MODULE Linux arm DA7778FB66018A4E9B4110ED06E730D00 breakpad_unittests
FUNC c 2c 0 std::basic_istream<char, std::char_traits<char> >::~basic_istream
FUNC c 12 0 std::basic_ostream<char, std::char_traits<char> >::~basic_ostream
FUNC 13a40 e0 0 MinidumpWriter::WriteFile
FUNC 13b20 40 0 MinidumpWriter::WriteProcFile
FUNC 13b60 28 0 std::priv::_STLP_alloc_proxy<wchar_t*, wchar_t, std::allocator<wchar_t> >::allocate(unsigned int, unsigned int&)
FUNC 13b88 6ac 0 _GLOBAL__sub_I__ZN40ExceptionHandlerTest_SimpleWithPath_Test10test_info_E
FUNC 14234 58 0 _GLOBAL__sub_I_microdump_writer_unittest.cc
FUNC 1428c 294 0 _GLOBAL__sub_I__ZN26CpuSetTest_EmptyCount_Test10test_info_E
FUNC 14520 5c 0 _GLOBAL__sub_I__ZN39DirectoryReaderTest_CompareResults_Test10test_info_E
FUNC 1457c 1dc 0 _GLOBAL__sub_I__ZN29LineReaderTest_EmptyFile_Test10test_info_E
FUNC 14758 9c 0 _GLOBAL__sub_I__ZN38LinuxCoreDumperTest_BuildProcPath_Test10test_info_E
FUNC 147f4 1d4 0 _GLOBAL__sub_I__ZN37LinuxPtraceDumperChildTest_Setup_Test10test_info_E
FUNC 149c8 200 0 _GLOBAL__sub_I_minidump_writer_unittest.cc
FUNC 14bc8 294 0 _GLOBAL__sub_I__ZN36ProcCpuInfoReaderTest_EmptyFile_Test10test_info_E
FUNC 14e5c dc 0 _GLOBAL__sub_I__ZN39ElfCoreDumpTest_DefaultConstructor_Test10test_info_E
FUNC 14f38 84 0 _GLOBAL__sub_I_gtest_FileIDTest_ElfClass_registered_
FUNC 14fbc 294 0 _GLOBAL__sub_I__ZN32LinuxLibcSupportTest_strlen_Test10test_info_E
FUNC 15250 1a4 0 _GLOBAL__sub_I__ZN28PageAllocatorTest_Setup_Test10test_info_E
FUNC 153f4 1dc 0 _GLOBAL__sub_I__ZN15google_breakpad31NonAllocatingMapTest_Entry_Test10test_info_E
FUNC 155d0 300 0 _GLOBAL__sub_I__ZN47MinidumpMemoryRangeTest_DefaultConstructor_Test10test_info_E
FUNC 158d0 9c 0 _GLOBAL__sub_I__ZN32AndroidUContext_GRegsOffset_Test10test_info_E
FUNC 1596c 1e0 0 _GLOBAL__sub_I_gtest.cc
FUNC 15b4c a8 0 _GLOBAL__sub_I_gtest_death_test.cc
FUNC 15bf4 24 0 _GLOBAL__sub_I_gtest_port.cc
FUNC 15c18 2c 0 main
FUNC 15c44 70 0 _GLOBAL__sub_I_cxxabi.cc
FUNC 15cb4 30 0 _GLOBAL__sub_I_locale_impl.cpp
FUNC 15ce4 30 0 _GLOBAL__sub_I_allocators.cpp
FUNC 15dc4 2 0 testing::Test::SetUpTestCase
FUNC 15dc6 2 0 testing::Test::TearDownTestCase
FUNC 15dc8 4 0 __cxxabiv1::__class_type_info::code() const
FUNC 15dc8 4 0 google_breakpad::LinuxPtraceDumper::IsPostMortem
FUNC 15dc8 4 0 std::basic_streambuf<char, std::char_traits<char> >::showmanyc
FUNC 15dc8 4 0 std::basic_streambuf<char, std::char_traits<char> >::sync
FUNC 15dc8 4 0 std::basic_streambuf<wchar_t, std::char_traits<wchar_t> >::showmanyc()
FUNC 15dc8 4 0 std::basic_streambuf<wchar_t, std::char_traits<wchar_t> >::sync()
FUNC 15dc8 4 0 std::moneypunct<char, false>::do_frac_digits() const
FUNC 15dc8 4 0 std::moneypunct<char, true>::do_frac_digits() const
FUNC 15dc8 4 0 std::moneypunct<wchar_t, false>::do_frac_digits() const
FUNC 15dc8 4 0 std::moneypunct<wchar_t, true>::do_frac_digits() const
FUNC 15dc8 4 0 std::priv::stdio_istreambuf::showmanyc()
FUNC 15dc8 4 0 testing::Test::Setup
FUNC 15dc8 4 0 testing::internal::GetThreadCount
FUNC 15dcc 4 0 DoneCallbackReturnFalse
FUNC 15dd0 4 0 DoneCallbackReturnTrue
FUNC 15dd4 4 0 FilterCallbackReturnFalse
FUNC 15dd8 4 0 FilterCallbackReturnTrue
FUNC 15ddc 6 0 std::basic_streambuf<char, std::char_traits<char> >::overflow
FUNC 15ddc 6 0 std::basic_streambuf<char, std::char_traits<char> >::pbackfail
FUNC 15ddc 6 0 std::basic_streambuf<char, std::char_traits<char> >::underflow
FUNC 15de2 2 0 google_breakpad::::CrashGenerationClientImpl::~CrashGenerationClientImpl
FUNC 15de2 2 0 google_breakpad::MinidumpObject::~MinidumpObject
FUNC 15de2 2 0 google_breakpad::SeccompUnwinder::PopSeccompStackFrame
FUNC 15de2 2 0 std::basic_streambuf<char, std::char_traits<char> >::imbue
FUNC 15de2 2 0 std::basic_streambuf<char, std::char_traits<char> >::setbuf
FUNC 15de2 2 0 testing::Test::SetUp
FUNC 15de2 2 0 testing::Test::TearDown
FUNC 15de2 2 0 testing::internal::DefaultDeathTestFactory::~DefaultDeathTestFactory
FUNC 15de2 2 0 testing::internal::DefaultGlobalTestPartResultReporter::~DefaultGlobalTestPartResultReporter
FUNC 15de2 2 0 testing::internal::DefaultPerThreadTestPartResultReporter::~DefaultPerThreadTestPartResultReporter
FUNC 15de2 2 0 testing::internal::IsTrue
FUNC 15de2 2 0 testing::internal::PrettyUnitTestResultPrinter::OnEnvironmentsSetUpEnd
FUNC 15de2 2 0 testing::internal::PrettyUnitTestResultPrinter::OnEnvironmentsTearDownEnd
FUNC 15de2 2 0 testing::internal::PrettyUnitTestResultPrinter::OnTestProgramEnd
FUNC 15de2 2 0 testing::internal::PrettyUnitTestResultPrinter::OnTestProgramStart
FUNC 15de2 2 0 testing::internal::PrettyUnitTestResultPrinter::~PrettyUnitTestResultPrinter
FUNC 15de2 2 0 testing::internal::TestFactoryImpl<(anonymous namespace)::MicrodumpWriterTest_Setup_Test>::~TestFactoryImpl
FUNC 15de2 2 0 testing::internal::TestFactoryImpl<(anonymous namespace)::MinidumpWriterTest_AdditionalMemory_Test>::~TestFactoryImpl
FUNC 15de2 2 0 testing::internal::TestFactoryImpl<(anonymous namespace)::MinidumpWriterTest_DeletedBinary_Test>::~TestFactoryImpl
FUNC 15de2 2 0 testing::internal::TestFactoryImpl<(anonymous namespace)::MinidumpWriterTest_InvalidStackPointer_Test>::~TestFactoryImpl
FUNC 15de2 2 0 testing::internal::TestFactoryImpl<(anonymous namespace)::MinidumpWriterTest_MappingInfoContained_Test>::~TestFactoryImpl
FUNC 15de2 2 0 testing::internal::TestFactoryImpl<(anonymous namespace)::MinidumpWriterTest_MappingInfo_Test>::~TestFactoryImpl
FUNC 15de2 2 0 testing::internal::TestFactoryImpl<(anonymous namespace)::MinidumpWriterTest_MinidumpSizeLimit_Test>::~TestFactoryImpl
FUNC 15de2 2 0 testing::internal::TestFactoryImpl<(anonymous namespace)::MinidumpWriterTest_SetupWithFD_Test>::~TestFactoryImpl
FUNC 15de2 2 0 testing::internal::TestFactoryImpl<(anonymous namespace)::MinidumpWriterTest_SetupWithPath_Test>::~TestFactoryImpl
FUNC 15de2 2 0 testing::internal::TestFactoryImpl<AndroidUContext_GRegsOffset_Test>::~TestFactoryImpl
FUNC 15de2 2 0 testing::internal::TestFactoryImpl<AndroidUContext_SigmakOffset_Test>::~TestFactoryImpl
FUNC 15de2 2 0 testing::internal::TestFactoryImpl<CpuSetTest_EmptyCount_Test>::~TestFactoryImpl
FUNC 15de2 2 0 testing::internal::TestFactoryImpl<CpuSetTest_EmptyIntersection_Test>::~TestFactoryImpl
FUNC 15de2 2 0 testing::internal::TestFactoryImpl<CpuSetTest_IntersectWith_Test>::~TestFactoryImpl
FUNC 15de2 2 0 testing::internal::TestFactoryImpl<CpuSetTest_MultiItems_Test>::~TestFactoryImpl
FUNC 15de2 2 0 testing::internal::TestFactoryImpl<CpuSetTest_OneCpuTerminated_Test>::~TestFactoryImpl
FUNC 15de2 2 0 testing::internal::TestFactoryImpl<CpuSetTest_OneCpu_Test>::~TestFactoryImpl
FUNC 15de2 2 0 testing::internal::TestFactoryImpl<CpuSetTest_SelfIntersection_Test>::~TestFactoryImpl
FUNC 15de2 2 0 testing::internal::TestFactoryImpl<CpuSetTest_TenCpusWithRange_Test>::~TestFactoryImpl
FUNC 15de2 2 0 testing::internal::TestFactoryImpl<CpuSetTest_TwoCpusWithComma_Test>::~TestFactoryImpl
FUNC 15de2 2 0 testing::internal::TestFactoryImpl<CpuSetTest_TwoCpusWithRange_Test>::~TestFactoryImpl
FUNC 15de2 2 0 testing::internal::TestFactoryImpl<DirectoryReaderTest_CompareResults_Test>::~TestFactoryImpl
FUNC 15de2 2 0 testing::internal::TestFactoryImpl<ElfCoreDumpTest_DefaultConstructor_Test>::~TestFactoryImpl
FUNC 15de2 2 0 testing::internal::TestFactoryImpl<ElfCoreDumpTest_TestElfHeader_Test>::~TestFactoryImpl
FUNC 15de2 2 0 testing::internal::TestFactoryImpl<ElfCoreDumpTest_ValidCoreFile_Test>::~TestFactoryImpl
FUNC 15de2 2 0 testing::internal::TestFactoryImpl<ExceptionHandlerTest_AdditionalMemoryRemove_Test>::~TestFactoryImpl
FUNC 15de2 2 0 testing::internal::TestFactoryImpl<ExceptionHandlerTest_AdditionalMemory_Test>::~TestFactoryImpl
FUNC 15de2 2 0 testing::internal::TestFactoryImpl<ExceptionHandlerTest_ChildCrashWithFD_Test>::~TestFactoryImpl
FUNC 15de2 2 0 testing::internal::TestFactoryImpl<ExceptionHandlerTest_ChildCrashWithPath_Test>::~TestFactoryImpl
FUNC 15de2 2 0 testing::internal::TestFactoryImpl<ExceptionHandlerTest_ExternalDumper_Test>::~TestFactoryImpl
FUNC 15de2 2 0 testing::internal::TestFactoryImpl<ExceptionHandlerTest_GenerateMultipleDumpsWithFD_Test>::~TestFactoryImpl
FUNC 15de2 2 0 testing::internal::TestFactoryImpl<ExceptionHandlerTest_GenerateMultipleDumpsWithPath_Test>::~TestFactoryImpl
FUNC 15de2 2 0 testing::internal::TestFactoryImpl<ExceptionHandlerTest_InstructionPointerMemoryMaxBound_Test>::~TestFactoryImpl
FUNC 15de2 2 0 testing::internal::TestFactoryImpl<ExceptionHandlerTest_InstructionPointerMemoryMinBound_Test>::~TestFactoryImpl
FUNC 15de2 2 0 testing::internal::TestFactoryImpl<ExceptionHandlerTest_InstructionPointerMemoryNullPointer_Test>::~TestFactoryImpl
FUNC 15de2 2 0 testing::internal::TestFactoryImpl<ExceptionHandlerTest_InstructionPointerMemory_Test>::~TestFactoryImpl
FUNC 15de2 2 0 testing::internal::TestFactoryImpl<ExceptionHandlerTest_ModuleInfo_Test>::~TestFactoryImpl
FUNC 15de2 2 0 testing::internal::TestFactoryImpl<ExceptionHandlerTest_NoRedeliveryOnDoneCallbackTrue_Test>::~TestFactoryImpl
FUNC 15de2 2 0 testing::internal::TestFactoryImpl<ExceptionHandlerTest_NoRedeliveryOnFilterCallbackTrue_Test>::~TestFactoryImpl
FUNC 15de2 2 0 testing::internal::TestFactoryImpl<ExceptionHandlerTest_RedeliveryOnBadSignalHandlerFlag_Test>::~TestFactoryImpl
FUNC 15de2 2 0 testing::internal::TestFactoryImpl<ExceptionHandlerTest_RedeliveryOnDoneCallbackFalse_Test>::~TestFactoryImpl
FUNC 15de2 2 0 testing::internal::TestFactoryImpl<ExceptionHandlerTest_RedeliveryOnFilterCallbackFalse_Test>::~TestFactoryImpl
FUNC 15de2 2 0 testing::internal::TestFactoryImpl<ExceptionHandlerTest_RedeliveryToDefaultHandler_Test>::~TestFactoryImpl
FUNC 15de2 2 0 testing::internal::TestFactoryImpl<ExceptionHandlerTest_SimpleWithFD_Test>::~TestFactoryImpl
FUNC 15de2 2 0 testing::internal::TestFactoryImpl<ExceptionHandlerTest_SimpleWithPath_Test>::~TestFactoryImpl
FUNC 15de2 2 0 testing::internal::TestFactoryImpl<ExceptionHandlerTest_StackedHandlersDeliveredToTop_Test>::~TestFactoryImpl
FUNC 15de2 2 0 testing::internal::TestFactoryImpl<ExceptionHandlerTest_StackedHandlersFilteredToBottom_Test>::~TestFactoryImpl
FUNC 15de2 2 0 testing::internal::TestFactoryImpl<ExceptionHandlerTest_StackedHandlersNotDeliveredToBottom_Test>::~TestFactoryImpl
FUNC 15de2 2 0 testing::internal::TestFactoryImpl<ExceptionHandlerTest_StackedHandlersUnhandledToBottom_Test>::~TestFactoryImpl
FUNC 15de2 2 0 testing::internal::TestFactoryImpl<ExceptionHandlerTest_WriteMinidumpExceptionStream_Test>::~TestFactoryImpl
FUNC 15de2 2 0 testing::internal::TestFactoryImpl<ExceptionHandlerTest_WriteMinidumpForChild_Test>::~TestFactoryImpl
FUNC 15de2 2 0 testing::internal::TestFactoryImpl<FileIDTest_BuildIDPH_Test<google_breakpad::ElfClass32> >::~TestFactoryImpl
FUNC 15de2 2 0 testing::internal::TestFactoryImpl<FileIDTest_BuildIDPH_Test<google_breakpad::ElfClass64> >::~TestFactoryImpl
FUNC 15de2 2 0 testing::internal::TestFactoryImpl<FileIDTest_BuildID_Test<google_breakpad::ElfClass32> >::~TestFactoryImpl
FUNC 15de2 2 0 testing::internal::TestFactoryImpl<FileIDTest_BuildID_Test<google_breakpad::ElfClass64> >::~TestFactoryImpl
FUNC 15de2 2 0 testing::internal::TestFactoryImpl<FileIDTest_ElfClass_Test<google_breakpad::ElfClass32> >::~TestFactoryImpl
FUNC 15de2 2 0 testing::internal::TestFactoryImpl<FileIDTest_ElfClass_Test<google_breakpad::ElfClass64> >::~TestFactoryImpl
FUNC 15de2 2 0 testing::internal::TestFactoryImpl<FileIDTest_UniqueHashes_Test<google_breakpad::ElfClass32> >::~TestFactoryImpl
FUNC 15de2 2 0 testing::internal::TestFactoryImpl<FileIDTest_UniqueHashes_Test<google_breakpad::ElfClass64> >::~TestFactoryImpl
FUNC 15de2 2 0 testing::internal::TestFactoryImpl<LineReaderTest_EmptyFile_Test>::~TestFactoryImpl
FUNC 15de2 2 0 testing::internal::TestFactoryImpl<LineReaderTest_MaxLength_Test>::~TestFactoryImpl
FUNC 15de2 2 0 testing::internal::TestFactoryImpl<LineReaderTest_OneLineTerminated_Test>::~TestFactoryImpl
FUNC 15de2 2 0 testing::internal::TestFactoryImpl<LineReaderTest_OneLine_Test>::~TestFactoryImpl
FUNC 15de2 2 0 testing::internal::TestFactoryImpl<LineReaderTest_TooLong_Test>::~TestFactoryImpl
FUNC 15de2 2 0 testing::internal::TestFactoryImpl<LineReaderTest_TwoLinesTerminated_Test>::~TestFactoryImpl
FUNC 15de2 2 0 testing::internal::TestFactoryImpl<LineReaderTest_TwoLines_Test>::~TestFactoryImpl
FUNC 15de2 2 0 testing::internal::TestFactoryImpl<LinuxCoreDumperTest_BuildProcPath_Test>::~TestFactoryImpl
FUNC 15de2 2 0 testing::internal::TestFactoryImpl<LinuxCoreDumperTest_VerifyDumpWithMultipleThreads_Test>::~TestFactoryImpl
FUNC 15de2 2 0 testing::internal::TestFactoryImpl<LinuxLibcSupportTest_memchr_Test>::~TestFactoryImpl
FUNC 15de2 2 0 testing::internal::TestFactoryImpl<LinuxLibcSupportTest_read_decimal_ptr_Test>::~TestFactoryImpl
FUNC 15de2 2 0 testing::internal::TestFactoryImpl<LinuxLibcSupportTest_read_hex_ptr_Test>::~TestFactoryImpl
FUNC 15de2 2 0 testing::internal::TestFactoryImpl<LinuxLibcSupportTest_strchr_Test>::~TestFactoryImpl
FUNC 15de2 2 0 testing::internal::TestFactoryImpl<LinuxLibcSupportTest_strcmp_Test>::~TestFactoryImpl
FUNC 15de2 2 0 testing::internal::TestFactoryImpl<LinuxLibcSupportTest_strlen_Test>::~TestFactoryImpl
FUNC 15de2 2 0 testing::internal::TestFactoryImpl<LinuxLibcSupportTest_strrchr_Test>::~TestFactoryImpl
FUNC 15de2 2 0 testing::internal::TestFactoryImpl<LinuxLibcSupportTest_strtoui_Test>::~TestFactoryImpl
FUNC 15de2 2 0 testing::internal::TestFactoryImpl<LinuxLibcSupportTest_uint_len_Test>::~TestFactoryImpl
FUNC 15de2 2 0 testing::internal::TestFactoryImpl<LinuxLibcSupportTest_uitos_Test>::~TestFactoryImpl
FUNC 15de2 2 0 testing::internal::TestFactoryImpl<LinuxPtraceDumperChildTest_BuildProcPath_Test>::~TestFactoryImpl
FUNC 15de2 2 0 testing::internal::TestFactoryImpl<LinuxPtraceDumperChildTest_FileIDsMatch_Test>::~TestFactoryImpl
FUNC 15de2 2 0 testing::internal::TestFactoryImpl<LinuxPtraceDumperChildTest_FindMappings_Test>::~TestFactoryImpl
FUNC 15de2 2 0 testing::internal::TestFactoryImpl<LinuxPtraceDumperChildTest_Setup_Test>::~TestFactoryImpl
FUNC 15de2 2 0 testing::internal::TestFactoryImpl<LinuxPtraceDumperChildTest_ThreadList_Test>::~TestFactoryImpl
FUNC 15de2 2 0 testing::internal::TestFactoryImpl<LinuxPtraceDumperMappingsTest_MergedMappings_Test>::~TestFactoryImpl
FUNC 15de2 2 0 testing::internal::TestFactoryImpl<LinuxPtraceDumperTest_VerifyStackReadWithMultipleThreads_Test>::~TestFactoryImpl
FUNC 15de2 2 0 testing::internal::TestFactoryImpl<MinidumpMemoryRangeTest_ConstructorWithDataAndLength_Test>::~TestFactoryImpl
FUNC 15de2 2 0 testing::internal::TestFactoryImpl<MinidumpMemoryRangeTest_DefaultConstructor_Test>::~TestFactoryImpl
FUNC 15de2 2 0 testing::internal::TestFactoryImpl<MinidumpMemoryRangeTest_GetArrayElement_Test>::~TestFactoryImpl
FUNC 15de2 2 0 testing::internal::TestFactoryImpl<MinidumpMemoryRangeTest_GetArrayElmentWithTemplateType_Test>::~TestFactoryImpl
FUNC 15de2 2 0 testing::internal::TestFactoryImpl<MinidumpMemoryRangeTest_GetAsciiMDString_Test>::~TestFactoryImpl
FUNC 15de2 2 0 testing::internal::TestFactoryImpl<MinidumpMemoryRangeTest_GetDataWithTemplateType_Test>::~TestFactoryImpl
FUNC 15de2 2 0 testing::internal::TestFactoryImpl<MinidumpMemoryRangeTest_Reset_Test>::~TestFactoryImpl
FUNC 15de2 2 0 testing::internal::TestFactoryImpl<MinidumpMemoryRangeTest_Set_Test>::~TestFactoryImpl
FUNC 15de2 2 0 testing::internal::TestFactoryImpl<MinidumpMemoryRangeTest_SubrangeAndGetData_Test>::~TestFactoryImpl
FUNC 15de2 2 0 testing::internal::TestFactoryImpl<MinidumpMemoryRangeTest_SubrangeOfEmptyMemoryRange_Test>::~TestFactoryImpl
FUNC 15de2 2 0 testing::internal::TestFactoryImpl<MinidumpMemoryRangeTest_SubrangeWithMDLocationDescriptor_Test>::~TestFactoryImpl
FUNC 15de2 2 0 testing::internal::TestFactoryImpl<PageAllocatorTest_LargeObject_Test>::~TestFactoryImpl
FUNC 15de2 2 0 testing::internal::TestFactoryImpl<PageAllocatorTest_Setup_Test>::~TestFactoryImpl
FUNC 15de2 2 0 testing::internal::TestFactoryImpl<PageAllocatorTest_SmallObjects_Test>::~TestFactoryImpl
FUNC 15de2 2 0 testing::internal::TestFactoryImpl<ProcCpuInfoReaderTest_EmptyFile_Test>::~TestFactoryImpl
FUNC 15de2 2 0 testing::internal::TestFactoryImpl<ProcCpuInfoReaderTest_EmptyValue_Test>::~TestFactoryImpl
FUNC 15de2 2 0 testing::internal::TestFactoryImpl<ProcCpuInfoReaderTest_FieldWithSpaces_Test>::~TestFactoryImpl
FUNC 15de2 2 0 testing::internal::TestFactoryImpl<ProcCpuInfoReaderTest_OneLineTerminated_Test>::~TestFactoryImpl
FUNC 15de2 2 0 testing::internal::TestFactoryImpl<ProcCpuInfoReaderTest_OneLine_Test>::~TestFactoryImpl
FUNC 15de2 2 0 testing::internal::TestFactoryImpl<ProcCpuInfoReaderTest_SkipEmptyField_Test>::~TestFactoryImpl
FUNC 15de2 2 0 testing::internal::TestFactoryImpl<ProcCpuInfoReaderTest_SkipMalformedLine_Test>::~TestFactoryImpl
FUNC 15de2 2 0 testing::internal::TestFactoryImpl<ProcCpuInfoReaderTest_SkipOneEmptyLine_Test>::~TestFactoryImpl
FUNC 15de2 2 0 testing::internal::TestFactoryImpl<ProcCpuInfoReaderTest_SkipTwoEmptyLines_Test>::~TestFactoryImpl
FUNC 15de2 2 0 testing::internal::TestFactoryImpl<ProcCpuInfoReaderTest_TwoLinesTerminated_Test>::~TestFactoryImpl
FUNC 15de2 2 0 testing::internal::TestFactoryImpl<WastefulVectorTest_Setup_Test>::~TestFactoryImpl
FUNC 15de2 2 0 testing::internal::TestFactoryImpl<WastefulVectorTest_Simple_Test>::~TestFactoryImpl
FUNC 15de2 2 0 testing::internal::TestFactoryImpl<WastefulVectorTest_UsesPageAllocator_Test>::~TestFactoryImpl
FUNC 15de2 2 0 testing::internal::TestFactoryImpl<google_breakpad::NonAllocatingMapTest_AddRemove_Test>::~TestFactoryImpl
FUNC 15de2 2 0 testing::internal::TestFactoryImpl<google_breakpad::NonAllocatingMapTest_CopyAndAssign_Test>::~TestFactoryImpl
FUNC 15de2 2 0 testing::internal::TestFactoryImpl<google_breakpad::NonAllocatingMapTest_Entry_Test>::~TestFactoryImpl
FUNC 15de2 2 0 testing::internal::TestFactoryImpl<google_breakpad::NonAllocatingMapTest_Iterator_Test>::~TestFactoryImpl
FUNC 15de2 2 0 testing::internal::TestFactoryImpl<google_breakpad::NonAllocatingMapTest_OutOfSpace_Test>::~TestFactoryImpl
FUNC 15de2 2 0 testing::internal::TestFactoryImpl<google_breakpad::NonAllocatingMapTest_Serialize_Test>::~TestFactoryImpl
FUNC 15de2 2 0 testing::internal::TestFactoryImpl<google_breakpad::NonAllocatingMapTest_SimpleStringDictionary_Test>::~TestFactoryImpl
FUNC 15de2 2 0 testing::internal::ThreadLocal<testing::TestPartResultReporterInterface*>::ValueHolder::~ValueHolder
FUNC 15de4 ac 0 std::basic_stringbuf<char, std::char_traits<char>, std::allocator<char> >::seekoff
FUNC 15e90 9e 0 std::basic_stringbuf<char, std::char_traits<char>, std::allocator<char> >::seekpos
FUNC 15f2e 10 0 std::basic_stringbuf<char, std::char_traits<char>, std::allocator<char> >::underflow
FUNC 15f3e 16 0 std::basic_stringbuf<char, std::char_traits<char>, std::allocator<char> >::uflow
FUNC 15f54 3e 0 std::basic_stringbuf<char, std::char_traits<char>, std::allocator<char> >::pbackfail
FUNC 15f92 c 0 std::basic_streambuf<char, std::char_traits<char> >::seekoff
FUNC 15f92 c 0 std::basic_streambuf<char, std::char_traits<char> >::seekoff(long, int, int)
FUNC 15f9e 1a 0 std::basic_streambuf<char, std::char_traits<char> >::seekpos
FUNC 15fb8 18 0 std::basic_streambuf<char, std::char_traits<char> >::uflow
FUNC 15fb8 18 0 std::basic_streambuf<char, std::char_traits<char> >::uflow()
FUNC 15fd0 c 0 google_breakpad::::CrashGenerationClientImpl::~CrashGenerationClientImpl
FUNC 15fd0 c 0 google_breakpad::MinidumpObject::~MinidumpObject
FUNC 15fd0 c 0 testing::internal::DefaultDeathTestFactory::~DefaultDeathTestFactory
FUNC 15fd0 c 0 testing::internal::DefaultGlobalTestPartResultReporter::~DefaultGlobalTestPartResultReporter
FUNC 15fd0 c 0 testing::internal::DefaultPerThreadTestPartResultReporter::~DefaultPerThreadTestPartResultReporter
FUNC 15fd0 c 0 testing::internal::PrettyUnitTestResultPrinter::~PrettyUnitTestResultPrinter
FUNC 15fd0 c 0 testing::internal::TestFactoryImpl<(anonymous namespace)::MicrodumpWriterTest_Setup_Test>::~TestFactoryImpl
FUNC 15fd0 c 0 testing::internal::TestFactoryImpl<(anonymous namespace)::MinidumpWriterTest_AdditionalMemory_Test>::~TestFactoryImpl
FUNC 15fd0 c 0 testing::internal::TestFactoryImpl<(anonymous namespace)::MinidumpWriterTest_DeletedBinary_Test>::~TestFactoryImpl
FUNC 15fd0 c 0 testing::internal::TestFactoryImpl<(anonymous namespace)::MinidumpWriterTest_InvalidStackPointer_Test>::~TestFactoryImpl
FUNC 15fd0 c 0 testing::internal::TestFactoryImpl<(anonymous namespace)::MinidumpWriterTest_MappingInfoContained_Test>::~TestFactoryImpl
FUNC 15fd0 c 0 testing::internal::TestFactoryImpl<(anonymous namespace)::MinidumpWriterTest_MappingInfo_Test>::~TestFactoryImpl
FUNC 15fd0 c 0 testing::internal::TestFactoryImpl<(anonymous namespace)::MinidumpWriterTest_MinidumpSizeLimit_Test>::~TestFactoryImpl
FUNC 15fd0 c 0 testing::internal::TestFactoryImpl<(anonymous namespace)::MinidumpWriterTest_SetupWithFD_Test>::~TestFactoryImpl
FUNC 15fd0 c 0 testing::internal::TestFactoryImpl<(anonymous namespace)::MinidumpWriterTest_SetupWithPath_Test>::~TestFactoryImpl
FUNC 15fd0 c 0 testing::internal::TestFactoryImpl<AndroidUContext_GRegsOffset_Test>::~TestFactoryImpl
FUNC 15fd0 c 0 testing::internal::TestFactoryImpl<AndroidUContext_SigmakOffset_Test>::~TestFactoryImpl
FUNC 15fd0 c 0 testing::internal::TestFactoryImpl<CpuSetTest_EmptyCount_Test>::~TestFactoryImpl
FUNC 15fd0 c 0 testing::internal::TestFactoryImpl<CpuSetTest_EmptyIntersection_Test>::~TestFactoryImpl
FUNC 15fd0 c 0 testing::internal::TestFactoryImpl<CpuSetTest_IntersectWith_Test>::~TestFactoryImpl
FUNC 15fd0 c 0 testing::internal::TestFactoryImpl<CpuSetTest_MultiItems_Test>::~TestFactoryImpl
FUNC 15fd0 c 0 testing::internal::TestFactoryImpl<CpuSetTest_OneCpuTerminated_Test>::~TestFactoryImpl
FUNC 15fd0 c 0 testing::internal::TestFactoryImpl<CpuSetTest_OneCpu_Test>::~TestFactoryImpl
FUNC 15fd0 c 0 testing::internal::TestFactoryImpl<CpuSetTest_SelfIntersection_Test>::~TestFactoryImpl
FUNC 15fd0 c 0 testing::internal::TestFactoryImpl<CpuSetTest_TenCpusWithRange_Test>::~TestFactoryImpl
FUNC 15fd0 c 0 testing::internal::TestFactoryImpl<CpuSetTest_TwoCpusWithComma_Test>::~TestFactoryImpl
FUNC 15fd0 c 0 testing::internal::TestFactoryImpl<CpuSetTest_TwoCpusWithRange_Test>::~TestFactoryImpl
FUNC 15fd0 c 0 testing::internal::TestFactoryImpl<DirectoryReaderTest_CompareResults_Test>::~TestFactoryImpl
FUNC 15fd0 c 0 testing::internal::TestFactoryImpl<ElfCoreDumpTest_DefaultConstructor_Test>::~TestFactoryImpl
FUNC 15fd0 c 0 testing::internal::TestFactoryImpl<ElfCoreDumpTest_TestElfHeader_Test>::~TestFactoryImpl
FUNC 15fd0 c 0 testing::internal::TestFactoryImpl<ElfCoreDumpTest_ValidCoreFile_Test>::~TestFactoryImpl
FUNC 15fd0 c 0 testing::internal::TestFactoryImpl<ExceptionHandlerTest_AdditionalMemoryRemove_Test>::~TestFactoryImpl
FUNC 15fd0 c 0 testing::internal::TestFactoryImpl<ExceptionHandlerTest_AdditionalMemory_Test>::~TestFactoryImpl
FUNC 15fd0 c 0 testing::internal::TestFactoryImpl<ExceptionHandlerTest_ChildCrashWithFD_Test>::~TestFactoryImpl
FUNC 15fd0 c 0 testing::internal::TestFactoryImpl<ExceptionHandlerTest_ChildCrashWithPath_Test>::~TestFactoryImpl
FUNC 15fd0 c 0 testing::internal::TestFactoryImpl<ExceptionHandlerTest_ExternalDumper_Test>::~TestFactoryImpl
FUNC 15fd0 c 0 testing::internal::TestFactoryImpl<ExceptionHandlerTest_GenerateMultipleDumpsWithFD_Test>::~TestFactoryImpl
FUNC 15fd0 c 0 testing::internal::TestFactoryImpl<ExceptionHandlerTest_GenerateMultipleDumpsWithPath_Test>::~TestFactoryImpl
FUNC 15fd0 c 0 testing::internal::TestFactoryImpl<ExceptionHandlerTest_InstructionPointerMemoryMaxBound_Test>::~TestFactoryImpl
FUNC 15fd0 c 0 testing::internal::TestFactoryImpl<ExceptionHandlerTest_InstructionPointerMemoryMinBound_Test>::~TestFactoryImpl
FUNC 15fd0 c 0 testing::internal::TestFactoryImpl<ExceptionHandlerTest_InstructionPointerMemoryNullPointer_Test>::~TestFactoryImpl
FUNC 15fd0 c 0 testing::internal::TestFactoryImpl<ExceptionHandlerTest_InstructionPointerMemory_Test>::~TestFactoryImpl
FUNC 15fd0 c 0 testing::internal::TestFactoryImpl<ExceptionHandlerTest_ModuleInfo_Test>::~TestFactoryImpl
FUNC 15fd0 c 0 testing::internal::TestFactoryImpl<ExceptionHandlerTest_NoRedeliveryOnDoneCallbackTrue_Test>::~TestFactoryImpl
FUNC 15fd0 c 0 testing::internal::TestFactoryImpl<ExceptionHandlerTest_NoRedeliveryOnFilterCallbackTrue_Test>::~TestFactoryImpl
FUNC 15fd0 c 0 testing::internal::TestFactoryImpl<ExceptionHandlerTest_RedeliveryOnBadSignalHandlerFlag_Test>::~TestFactoryImpl
FUNC 15fd0 c 0 testing::internal::TestFactoryImpl<ExceptionHandlerTest_RedeliveryOnDoneCallbackFalse_Test>::~TestFactoryImpl
FUNC 15fd0 c 0 testing::internal::TestFactoryImpl<ExceptionHandlerTest_RedeliveryOnFilterCallbackFalse_Test>::~TestFactoryImpl
FUNC 15fd0 c 0 testing::internal::TestFactoryImpl<ExceptionHandlerTest_RedeliveryToDefaultHandler_Test>::~TestFactoryImpl
FUNC 15fd0 c 0 testing::internal::TestFactoryImpl<ExceptionHandlerTest_SimpleWithFD_Test>::~TestFactoryImpl
FUNC 15fd0 c 0 testing::internal::TestFactoryImpl<ExceptionHandlerTest_SimpleWithPath_Test>::~TestFactoryImpl
FUNC 15fd0 c 0 testing::internal::TestFactoryImpl<ExceptionHandlerTest_StackedHandlersDeliveredToTop_Test>::~TestFactoryImpl
FUNC 15fd0 c 0 testing::internal::TestFactoryImpl<ExceptionHandlerTest_StackedHandlersFilteredToBottom_Test>::~TestFactoryImpl
FUNC 15fd0 c 0 testing::internal::TestFactoryImpl<ExceptionHandlerTest_StackedHandlersNotDeliveredToBottom_Test>::~TestFactoryImpl
FUNC 15fd0 c 0 testing::internal::TestFactoryImpl<ExceptionHandlerTest_StackedHandlersUnhandledToBottom_Test>::~TestFactoryImpl
FUNC 15fd0 c 0 testing::internal::TestFactoryImpl<ExceptionHandlerTest_WriteMinidumpExceptionStream_Test>::~TestFactoryImpl
FUNC 15fd0 c 0 testing::internal::TestFactoryImpl<ExceptionHandlerTest_WriteMinidumpForChild_Test>::~TestFactoryImpl
FUNC 15fd0 c 0 testing::internal::TestFactoryImpl<FileIDTest_BuildIDPH_Test<google_breakpad::ElfClass32> >::~TestFactoryImpl
FUNC 15fd0 c 0 testing::internal::TestFactoryImpl<FileIDTest_BuildIDPH_Test<google_breakpad::ElfClass64> >::~TestFactoryImpl
FUNC 15fd0 c 0 testing::internal::TestFactoryImpl<FileIDTest_BuildID_Test<google_breakpad::ElfClass32> >::~TestFactoryImpl
FUNC 15fd0 c 0 testing::internal::TestFactoryImpl<FileIDTest_BuildID_Test<google_breakpad::ElfClass64> >::~TestFactoryImpl
FUNC 15fd0 c 0 testing::internal::TestFactoryImpl<FileIDTest_ElfClass_Test<google_breakpad::ElfClass32> >::~TestFactoryImpl
FUNC 15fd0 c 0 testing::internal::TestFactoryImpl<FileIDTest_ElfClass_Test<google_breakpad::ElfClass64> >::~TestFactoryImpl
FUNC 15fd0 c 0 testing::internal::TestFactoryImpl<FileIDTest_UniqueHashes_Test<google_breakpad::ElfClass32> >::~TestFactoryImpl
FUNC 15fd0 c 0 testing::internal::TestFactoryImpl<FileIDTest_UniqueHashes_Test<google_breakpad::ElfClass64> >::~TestFactoryImpl
FUNC 15fd0 c 0 testing::internal::TestFactoryImpl<LineReaderTest_EmptyFile_Test>::~TestFactoryImpl
FUNC 15fd0 c 0 testing::internal::TestFactoryImpl<LineReaderTest_MaxLength_Test>::~TestFactoryImpl
FUNC 15fd0 c 0 testing::internal::TestFactoryImpl<LineReaderTest_OneLineTerminated_Test>::~TestFactoryImpl
FUNC 15fd0 c 0 testing::internal::TestFactoryImpl<LineReaderTest_OneLine_Test>::~TestFactoryImpl
FUNC 15fd0 c 0 testing::internal::TestFactoryImpl<LineReaderTest_TooLong_Test>::~TestFactoryImpl
FUNC 15fd0 c 0 testing::internal::TestFactoryImpl<LineReaderTest_TwoLinesTerminated_Test>::~TestFactoryImpl
FUNC 15fd0 c 0 testing::internal::TestFactoryImpl<LineReaderTest_TwoLines_Test>::~TestFactoryImpl
FUNC 15fd0 c 0 testing::internal::TestFactoryImpl<LinuxCoreDumperTest_BuildProcPath_Test>::~TestFactoryImpl
FUNC 15fd0 c 0 testing::internal::TestFactoryImpl<LinuxCoreDumperTest_VerifyDumpWithMultipleThreads_Test>::~TestFactoryImpl
FUNC 15fd0 c 0 testing::internal::TestFactoryImpl<LinuxLibcSupportTest_memchr_Test>::~TestFactoryImpl
FUNC 15fd0 c 0 testing::internal::TestFactoryImpl<LinuxLibcSupportTest_read_decimal_ptr_Test>::~TestFactoryImpl
FUNC 15fd0 c 0 testing::internal::TestFactoryImpl<LinuxLibcSupportTest_read_hex_ptr_Test>::~TestFactoryImpl
FUNC 15fd0 c 0 testing::internal::TestFactoryImpl<LinuxLibcSupportTest_strchr_Test>::~TestFactoryImpl
FUNC 15fd0 c 0 testing::internal::TestFactoryImpl<LinuxLibcSupportTest_strcmp_Test>::~TestFactoryImpl
FUNC 15fd0 c 0 testing::internal::TestFactoryImpl<LinuxLibcSupportTest_strlen_Test>::~TestFactoryImpl
FUNC 15fd0 c 0 testing::internal::TestFactoryImpl<LinuxLibcSupportTest_strrchr_Test>::~TestFactoryImpl
FUNC 15fd0 c 0 testing::internal::TestFactoryImpl<LinuxLibcSupportTest_strtoui_Test>::~TestFactoryImpl
FUNC 15fd0 c 0 testing::internal::TestFactoryImpl<LinuxLibcSupportTest_uint_len_Test>::~TestFactoryImpl
FUNC 15fd0 c 0 testing::internal::TestFactoryImpl<LinuxLibcSupportTest_uitos_Test>::~TestFactoryImpl
FUNC 15fd0 c 0 testing::internal::TestFactoryImpl<LinuxPtraceDumperChildTest_BuildProcPath_Test>::~TestFactoryImpl
FUNC 15fd0 c 0 testing::internal::TestFactoryImpl<LinuxPtraceDumperChildTest_FileIDsMatch_Test>::~TestFactoryImpl
FUNC 15fd0 c 0 testing::internal::TestFactoryImpl<LinuxPtraceDumperChildTest_FindMappings_Test>::~TestFactoryImpl
FUNC 15fd0 c 0 testing::internal::TestFactoryImpl<LinuxPtraceDumperChildTest_Setup_Test>::~TestFactoryImpl
FUNC 15fd0 c 0 testing::internal::TestFactoryImpl<LinuxPtraceDumperChildTest_ThreadList_Test>::~TestFactoryImpl
FUNC 15fd0 c 0 testing::internal::TestFactoryImpl<LinuxPtraceDumperMappingsTest_MergedMappings_Test>::~TestFactoryImpl
FUNC 15fd0 c 0 testing::internal::TestFactoryImpl<LinuxPtraceDumperTest_VerifyStackReadWithMultipleThreads_Test>::~TestFactoryImpl
FUNC 15fd0 c 0 testing::internal::TestFactoryImpl<MinidumpMemoryRangeTest_ConstructorWithDataAndLength_Test>::~TestFactoryImpl
FUNC 15fd0 c 0 testing::internal::TestFactoryImpl<MinidumpMemoryRangeTest_DefaultConstructor_Test>::~TestFactoryImpl
FUNC 15fd0 c 0 testing::internal::TestFactoryImpl<MinidumpMemoryRangeTest_GetArrayElement_Test>::~TestFactoryImpl
FUNC 15fd0 c 0 testing::internal::TestFactoryImpl<MinidumpMemoryRangeTest_GetArrayElmentWithTemplateType_Test>::~TestFactoryImpl
FUNC 15fd0 c 0 testing::internal::TestFactoryImpl<MinidumpMemoryRangeTest_GetAsciiMDString_Test>::~TestFactoryImpl
FUNC 15fd0 c 0 testing::internal::TestFactoryImpl<MinidumpMemoryRangeTest_GetDataWithTemplateType_Test>::~TestFactoryImpl
FUNC 15fd0 c 0 testing::internal::TestFactoryImpl<MinidumpMemoryRangeTest_Reset_Test>::~TestFactoryImpl
FUNC 15fd0 c 0 testing::internal::TestFactoryImpl<MinidumpMemoryRangeTest_Set_Test>::~TestFactoryImpl
FUNC 15fd0 c 0 testing::internal::TestFactoryImpl<MinidumpMemoryRangeTest_SubrangeAndGetData_Test>::~TestFactoryImpl
FUNC 15fd0 c 0 testing::internal::TestFactoryImpl<MinidumpMemoryRangeTest_SubrangeOfEmptyMemoryRange_Test>::~TestFactoryImpl
FUNC 15fd0 c 0 testing::internal::TestFactoryImpl<MinidumpMemoryRangeTest_SubrangeWithMDLocationDescriptor_Test>::~TestFactoryImpl
FUNC 15fd0 c 0 testing::internal::TestFactoryImpl<PageAllocatorTest_LargeObject_Test>::~TestFactoryImpl
FUNC 15fd0 c 0 testing::internal::TestFactoryImpl<PageAllocatorTest_Setup_Test>::~TestFactoryImpl
FUNC 15fd0 c 0 testing::internal::TestFactoryImpl<PageAllocatorTest_SmallObjects_Test>::~TestFactoryImpl
FUNC 15fd0 c 0 testing::internal::TestFactoryImpl<ProcCpuInfoReaderTest_EmptyFile_Test>::~TestFactoryImpl
FUNC 15fd0 c 0 testing::internal::TestFactoryImpl<ProcCpuInfoReaderTest_EmptyValue_Test>::~TestFactoryImpl
FUNC 15fd0 c 0 testing::internal::TestFactoryImpl<ProcCpuInfoReaderTest_FieldWithSpaces_Test>::~TestFactoryImpl
FUNC 15fd0 c 0 testing::internal::TestFactoryImpl<ProcCpuInfoReaderTest_OneLineTerminated_Test>::~TestFactoryImpl
FUNC 15fd0 c 0 testing::internal::TestFactoryImpl<ProcCpuInfoReaderTest_OneLine_Test>::~TestFactoryImpl
FUNC 15fd0 c 0 testing::internal::TestFactoryImpl<ProcCpuInfoReaderTest_SkipEmptyField_Test>::~TestFactoryImpl
FUNC 15fd0 c 0 testing::internal::TestFactoryImpl<ProcCpuInfoReaderTest_SkipMalformedLine_Test>::~TestFactoryImpl
FUNC 15fd0 c 0 testing::internal::TestFactoryImpl<ProcCpuInfoReaderTest_SkipOneEmptyLine_Test>::~TestFactoryImpl
FUNC 15fd0 c 0 testing::internal::TestFactoryImpl<ProcCpuInfoReaderTest_SkipTwoEmptyLines_Test>::~TestFactoryImpl
FUNC 15fd0 c 0 testing::internal::TestFactoryImpl<ProcCpuInfoReaderTest_TwoLinesTerminated_Test>::~TestFactoryImpl
FUNC 15fd0 c 0 testing::internal::TestFactoryImpl<WastefulVectorTest_Setup_Test>::~TestFactoryImpl
FUNC 15fd0 c 0 testing::internal::TestFactoryImpl<WastefulVectorTest_Simple_Test>::~TestFactoryImpl
FUNC 15fd0 c 0 testing::internal::TestFactoryImpl<WastefulVectorTest_UsesPageAllocator_Test>::~TestFactoryImpl
FUNC 15fd0 c 0 testing::internal::TestFactoryImpl<google_breakpad::NonAllocatingMapTest_AddRemove_Test>::~TestFactoryImpl
FUNC 15fd0 c 0 testing::internal::TestFactoryImpl<google_breakpad::NonAllocatingMapTest_CopyAndAssign_Test>::~TestFactoryImpl
FUNC 15fd0 c 0 testing::internal::TestFactoryImpl<google_breakpad::NonAllocatingMapTest_Entry_Test>::~TestFactoryImpl
FUNC 15fd0 c 0 testing::internal::TestFactoryImpl<google_breakpad::NonAllocatingMapTest_Iterator_Test>::~TestFactoryImpl
FUNC 15fd0 c 0 testing::internal::TestFactoryImpl<google_breakpad::NonAllocatingMapTest_OutOfSpace_Test>::~TestFactoryImpl
FUNC 15fd0 c 0 testing::internal::TestFactoryImpl<google_breakpad::NonAllocatingMapTest_Serialize_Test>::~TestFactoryImpl
FUNC 15fd0 c 0 testing::internal::TestFactoryImpl<google_breakpad::NonAllocatingMapTest_SimpleStringDictionary_Test>::~TestFactoryImpl
FUNC 15fd0 c 0 testing::internal::ThreadLocal<testing::TestPartResultReporterInterface*>::ValueHolder::~ValueHolder
FUNC 15fdc 54 0 std::basic_streambuf<char, std::char_traits<char> >::xsputn
FUNC 16030 4c 0 std::basic_streambuf<char, std::char_traits<char> >::_M_xsputnc
FUNC 1607c 1c 0 std::basic_streambuf<char, std::char_traits<char> >::~basic_streambuf
FUNC 16098 12 0 std::basic_streambuf<char, std::char_traits<char> >::~basic_streambuf
FUNC 160ac 1c 0 std::basic_ios<char, std::char_traits<char> >::~basic_ios
FUNC 160c8 12 0 std::basic_ios<char, std::char_traits<char> >::~basic_ios
FUNC 160dc 2c 0 InstallRaiseSIGKILL
FUNC 16108 6 0 RaiseSIGKILL
FUNC 1610e c 0 DoneCallbackRaiseSIGKILL
FUNC 1611c 18 0 ExceptionHandlerTest_WriteMinidumpForChild_Test::~ExceptionHandlerTest_WriteMinidumpForChild_Test
FUNC 16134 12 0 ExceptionHandlerTest_WriteMinidumpForChild_Test::~ExceptionHandlerTest_WriteMinidumpForChild_Test
FUNC 16148 18 0 ExceptionHandlerTest_AdditionalMemoryRemove_Test::~ExceptionHandlerTest_AdditionalMemoryRemove_Test
FUNC 16160 12 0 ExceptionHandlerTest_AdditionalMemoryRemove_Test::~ExceptionHandlerTest_AdditionalMemoryRemove_Test
FUNC 16174 18 0 ExceptionHandlerTest_AdditionalMemory_Test::~ExceptionHandlerTest_AdditionalMemory_Test
FUNC 1618c 12 0 ExceptionHandlerTest_AdditionalMemory_Test::~ExceptionHandlerTest_AdditionalMemory_Test
FUNC 161a0 18 0 ExceptionHandlerTest_GenerateMultipleDumpsWithPath_Test::~ExceptionHandlerTest_GenerateMultipleDumpsWithPath_Test
FUNC 161b8 12 0 ExceptionHandlerTest_GenerateMultipleDumpsWithPath_Test::~ExceptionHandlerTest_GenerateMultipleDumpsWithPath_Test
FUNC 161cc 18 0 ExceptionHandlerTest_GenerateMultipleDumpsWithFD_Test::~ExceptionHandlerTest_GenerateMultipleDumpsWithFD_Test
FUNC 161e4 12 0 ExceptionHandlerTest_GenerateMultipleDumpsWithFD_Test::~ExceptionHandlerTest_GenerateMultipleDumpsWithFD_Test
FUNC 161f8 18 0 ExceptionHandlerTest_WriteMinidumpExceptionStream_Test::~ExceptionHandlerTest_WriteMinidumpExceptionStream_Test
FUNC 16210 12 0 ExceptionHandlerTest_WriteMinidumpExceptionStream_Test::~ExceptionHandlerTest_WriteMinidumpExceptionStream_Test
FUNC 16224 18 0 ExceptionHandlerTest_ExternalDumper_Test::~ExceptionHandlerTest_ExternalDumper_Test
FUNC 1623c 12 0 ExceptionHandlerTest_ExternalDumper_Test::~ExceptionHandlerTest_ExternalDumper_Test
FUNC 16250 18 0 ExceptionHandlerTest_ModuleInfo_Test::~ExceptionHandlerTest_ModuleInfo_Test
FUNC 16268 12 0 ExceptionHandlerTest_ModuleInfo_Test::~ExceptionHandlerTest_ModuleInfo_Test
FUNC 1627c 18 0 ExceptionHandlerTest_InstructionPointerMemoryNullPointer_Test::~ExceptionHandlerTest_InstructionPointerMemoryNullPointer_Test
FUNC 16294 12 0 ExceptionHandlerTest_InstructionPointerMemoryNullPointer_Test::~ExceptionHandlerTest_InstructionPointerMemoryNullPointer_Test
FUNC 162a8 18 0 ExceptionHandlerTest_InstructionPointerMemoryMaxBound_Test::~ExceptionHandlerTest_InstructionPointerMemoryMaxBound_Test
FUNC 162c0 12 0 ExceptionHandlerTest_InstructionPointerMemoryMaxBound_Test::~ExceptionHandlerTest_InstructionPointerMemoryMaxBound_Test
FUNC 162d4 18 0 ExceptionHandlerTest_InstructionPointerMemoryMinBound_Test::~ExceptionHandlerTest_InstructionPointerMemoryMinBound_Test
FUNC 162ec 12 0 ExceptionHandlerTest_InstructionPointerMemoryMinBound_Test::~ExceptionHandlerTest_InstructionPointerMemoryMinBound_Test
FUNC 16300 18 0 ExceptionHandlerTest_InstructionPointerMemory_Test::~ExceptionHandlerTest_InstructionPointerMemory_Test
FUNC 16318 12 0 ExceptionHandlerTest_InstructionPointerMemory_Test::~ExceptionHandlerTest_InstructionPointerMemory_Test
FUNC 1632c 18 0 ExceptionHandlerTest_StackedHandlersUnhandledToBottom_Test::~ExceptionHandlerTest_StackedHandlersUnhandledToBottom_Test
FUNC 16344 12 0 ExceptionHandlerTest_StackedHandlersUnhandledToBottom_Test::~ExceptionHandlerTest_StackedHandlersUnhandledToBottom_Test
FUNC 16358 18 0 ExceptionHandlerTest_StackedHandlersFilteredToBottom_Test::~ExceptionHandlerTest_StackedHandlersFilteredToBottom_Test
FUNC 16370 12 0 ExceptionHandlerTest_StackedHandlersFilteredToBottom_Test::~ExceptionHandlerTest_StackedHandlersFilteredToBottom_Test
FUNC 16384 18 0 ExceptionHandlerTest_StackedHandlersNotDeliveredToBottom_Test::~ExceptionHandlerTest_StackedHandlersNotDeliveredToBottom_Test
FUNC 1639c 12 0 ExceptionHandlerTest_StackedHandlersNotDeliveredToBottom_Test::~ExceptionHandlerTest_StackedHandlersNotDeliveredToBottom_Test
FUNC 163b0 18 0 ExceptionHandlerTest_StackedHandlersDeliveredToTop_Test::~ExceptionHandlerTest_StackedHandlersDeliveredToTop_Test
FUNC 163c8 12 0 ExceptionHandlerTest_StackedHandlersDeliveredToTop_Test::~ExceptionHandlerTest_StackedHandlersDeliveredToTop_Test
FUNC 163dc 18 0 ExceptionHandlerTest_RedeliveryOnBadSignalHandlerFlag_Test::~ExceptionHandlerTest_RedeliveryOnBadSignalHandlerFlag_Test
FUNC 163f4 12 0 ExceptionHandlerTest_RedeliveryOnBadSignalHandlerFlag_Test::~ExceptionHandlerTest_RedeliveryOnBadSignalHandlerFlag_Test
FUNC 16408 18 0 ExceptionHandlerTest_RedeliveryToDefaultHandler_Test::~ExceptionHandlerTest_RedeliveryToDefaultHandler_Test
FUNC 16420 12 0 ExceptionHandlerTest_RedeliveryToDefaultHandler_Test::~ExceptionHandlerTest_RedeliveryToDefaultHandler_Test
FUNC 16434 18 0 ExceptionHandlerTest_NoRedeliveryOnFilterCallbackTrue_Test::~ExceptionHandlerTest_NoRedeliveryOnFilterCallbackTrue_Test
FUNC 1644c 12 0 ExceptionHandlerTest_NoRedeliveryOnFilterCallbackTrue_Test::~ExceptionHandlerTest_NoRedeliveryOnFilterCallbackTrue_Test
FUNC 16460 18 0 ExceptionHandlerTest_NoRedeliveryOnDoneCallbackTrue_Test::~ExceptionHandlerTest_NoRedeliveryOnDoneCallbackTrue_Test
FUNC 16478 12 0 ExceptionHandlerTest_NoRedeliveryOnDoneCallbackTrue_Test::~ExceptionHandlerTest_NoRedeliveryOnDoneCallbackTrue_Test
FUNC 1648c 18 0 ExceptionHandlerTest_RedeliveryOnDoneCallbackFalse_Test::~ExceptionHandlerTest_RedeliveryOnDoneCallbackFalse_Test
FUNC 164a4 12 0 ExceptionHandlerTest_RedeliveryOnDoneCallbackFalse_Test::~ExceptionHandlerTest_RedeliveryOnDoneCallbackFalse_Test
FUNC 164b8 18 0 ExceptionHandlerTest_RedeliveryOnFilterCallbackFalse_Test::~ExceptionHandlerTest_RedeliveryOnFilterCallbackFalse_Test
FUNC 164d0 12 0 ExceptionHandlerTest_RedeliveryOnFilterCallbackFalse_Test::~ExceptionHandlerTest_RedeliveryOnFilterCallbackFalse_Test
FUNC 164e4 18 0 ExceptionHandlerTest_ChildCrashWithFD_Test::~ExceptionHandlerTest_ChildCrashWithFD_Test
FUNC 164fc 12 0 ExceptionHandlerTest_ChildCrashWithFD_Test::~ExceptionHandlerTest_ChildCrashWithFD_Test
FUNC 16510 18 0 ExceptionHandlerTest_ChildCrashWithPath_Test::~ExceptionHandlerTest_ChildCrashWithPath_Test
FUNC 16528 12 0 ExceptionHandlerTest_ChildCrashWithPath_Test::~ExceptionHandlerTest_ChildCrashWithPath_Test
FUNC 1653c 18 0 ExceptionHandlerTest_SimpleWithFD_Test::~ExceptionHandlerTest_SimpleWithFD_Test
FUNC 16554 12 0 ExceptionHandlerTest_SimpleWithFD_Test::~ExceptionHandlerTest_SimpleWithFD_Test
FUNC 16568 18 0 ExceptionHandlerTest_SimpleWithPath_Test::~ExceptionHandlerTest_SimpleWithPath_Test
FUNC 16580 12 0 ExceptionHandlerTest_SimpleWithPath_Test::~ExceptionHandlerTest_SimpleWithPath_Test
FUNC 16592 80 0 DoneCallback
FUNC 16614 20 0 testing::internal::TestFactoryImpl<ExceptionHandlerTest_NoRedeliveryOnFilterCallbackTrue_Test>::CreateTest
FUNC 16634 20 0 testing::internal::TestFactoryImpl<ExceptionHandlerTest_NoRedeliveryOnDoneCallbackTrue_Test>::CreateTest
FUNC 16654 20 0 testing::internal::TestFactoryImpl<ExceptionHandlerTest_RedeliveryOnDoneCallbackFalse_Test>::CreateTest
FUNC 16674 20 0 testing::internal::TestFactoryImpl<ExceptionHandlerTest_RedeliveryOnFilterCallbackFalse_Test>::CreateTest
FUNC 16694 20 0 testing::internal::TestFactoryImpl<ExceptionHandlerTest_ChildCrashWithFD_Test>::CreateTest
FUNC 166b4 20 0 testing::internal::TestFactoryImpl<ExceptionHandlerTest_ChildCrashWithPath_Test>::CreateTest
FUNC 166d4 20 0 testing::internal::TestFactoryImpl<ExceptionHandlerTest_SimpleWithFD_Test>::CreateTest
FUNC 166f4 20 0 testing::internal::TestFactoryImpl<ExceptionHandlerTest_SimpleWithPath_Test>::CreateTest
FUNC 16714 20 0 testing::internal::TestFactoryImpl<ExceptionHandlerTest_AdditionalMemory_Test>::CreateTest
FUNC 16734 20 0 testing::internal::TestFactoryImpl<ExceptionHandlerTest_GenerateMultipleDumpsWithPath_Test>::CreateTest
FUNC 16754 20 0 testing::internal::TestFactoryImpl<ExceptionHandlerTest_GenerateMultipleDumpsWithFD_Test>::CreateTest
FUNC 16774 20 0 testing::internal::TestFactoryImpl<ExceptionHandlerTest_WriteMinidumpExceptionStream_Test>::CreateTest
FUNC 16794 20 0 testing::internal::TestFactoryImpl<ExceptionHandlerTest_ExternalDumper_Test>::CreateTest
FUNC 167b4 20 0 testing::internal::TestFactoryImpl<ExceptionHandlerTest_ModuleInfo_Test>::CreateTest
FUNC 167d4 20 0 testing::internal::TestFactoryImpl<ExceptionHandlerTest_InstructionPointerMemoryNullPointer_Test>::CreateTest
FUNC 167f4 20 0 testing::internal::TestFactoryImpl<ExceptionHandlerTest_InstructionPointerMemoryMaxBound_Test>::CreateTest
FUNC 16814 20 0 testing::internal::TestFactoryImpl<ExceptionHandlerTest_InstructionPointerMemoryMinBound_Test>::CreateTest
FUNC 16834 20 0 testing::internal::TestFactoryImpl<ExceptionHandlerTest_InstructionPointerMemory_Test>::CreateTest
FUNC 16854 20 0 testing::internal::TestFactoryImpl<ExceptionHandlerTest_StackedHandlersUnhandledToBottom_Test>::CreateTest
FUNC 16874 20 0 testing::internal::TestFactoryImpl<ExceptionHandlerTest_StackedHandlersFilteredToBottom_Test>::CreateTest
FUNC 16894 20 0 testing::internal::TestFactoryImpl<ExceptionHandlerTest_StackedHandlersNotDeliveredToBottom_Test>::CreateTest
FUNC 168b4 20 0 testing::internal::TestFactoryImpl<ExceptionHandlerTest_StackedHandlersDeliveredToTop_Test>::CreateTest
FUNC 168d4 20 0 testing::internal::TestFactoryImpl<ExceptionHandlerTest_RedeliveryOnBadSignalHandlerFlag_Test>::CreateTest
FUNC 168f4 20 0 testing::internal::TestFactoryImpl<ExceptionHandlerTest_RedeliveryToDefaultHandler_Test>::CreateTest
FUNC 16914 20 0 testing::internal::TestFactoryImpl<ExceptionHandlerTest_WriteMinidumpForChild_Test>::CreateTest
FUNC 16934 20 0 testing::internal::TestFactoryImpl<ExceptionHandlerTest_AdditionalMemoryRemove_Test>::CreateTest
FUNC 16954 118 0 CrashHandler
FUNC 16a6c 54 0 std::basic_streambuf<char, std::char_traits<char> >::xsgetn
FUNC 16ac0 18 0 std::priv::__ucopy_trivial
FUNC 16ad8 14 0 testing::AssertionResult::message
FUNC 16aec 1e 0 testing::internal::scoped_ptr<std::basic_stringstream<char, std::char_traits<char>, std::allocator<char> > >::~scoped_ptr
FUNC 16b0a 1e 0 std::priv::_String_base<char, std::allocator<char> >::_M_deallocate_block
FUNC 16b28 16 0 google_breakpad::MinidumpDescriptor::~MinidumpDescriptor
FUNC 16b40 24 0 std::basic_stringbuf<char, std::char_traits<char>, std::allocator<char> >::~basic_stringbuf
FUNC 16b64 12 0 std::basic_stringbuf<char, std::char_traits<char>, std::allocator<char> >::~basic_stringbuf
FUNC 16b76 28 0 testing::internal::scoped_ptr<std::basic_string<char, std::char_traits<char>, std::allocator<char> > >::reset
FUNC 16b9e e 0 testing::internal::scoped_ptr<std::basic_string<char, std::char_traits<char>, std::allocator<char> > >::~scoped_ptr
FUNC 16bac 9c 0 std::basic_ios<char, std::char_traits<char> >::init
FUNC 16c48 78 0 std::basic_iostream<char, std::char_traits<char> >::basic_iostream
FUNC 16cc0 66 0 std::basic_iostream<char, std::char_traits<char> >::basic_iostream
FUNC 16d26 42 0 std::__stlp_string_fill<char, std::char_traits<char> >
FUNC 16d68 6 0 std::basic_streambuf<char, std::char_traits<char> >::sputn
FUNC 16d6e 1c 0 std::basic_ios<char, std::char_traits<char> >::setstate
FUNC 16d8a 28 0 std::basic_string<char, std::char_traits<char>, std::allocator<char> >::erase
FUNC 16db4 38 0 std::priv::_String_base<char, std::allocator<char> >::_M_allocate_block
FUNC 16dec 18 0 std::basic_string<char, std::char_traits<char>, std::allocator<char> >::basic_string
FUNC 16e04 2e 0 google_breakpad::MinidumpDescriptor::MinidumpDescriptor
FUNC 16e34 ac 0 std::basic_stringstream<char, std::char_traits<char>, std::allocator<char> >::basic_stringstream
FUNC 16ee0 78 0 std::basic_stringstream<char, std::char_traits<char>, std::allocator<char> >::basic_stringstream
FUNC 16f58 30 0 std::basic_string<char, std::char_traits<char>, std::allocator<char> >::basic_string
FUNC 16f88 28 0 std::basic_string<char, std::char_traits<char>, std::allocator<char> >::basic_string
FUNC 16fb0 2a 0 google_breakpad::MinidumpDescriptor::MinidumpDescriptor
FUNC 16fdc 68 0 CrashWithCallbacks
FUNC 17044 16 0 std::use_facet<std::num_put<char, std::ostreambuf_iterator<char, std::char_traits<char> > > >
FUNC 1705c 54 0 std::basic_istream<char, std::char_traits<char> >::~basic_istream
FUNC 170b0 8 0 std::basic_istream<char, std::char_traits<char> >::~basic_istream
FUNC 170c4 12 0 std::basic_istream<char, std::char_traits<char> >::~basic_istream
FUNC 170e2 8 0 std::basic_istream<char, std::char_traits<char> >::~basic_istream
FUNC 170ec 54 0 std::basic_ostream<char, std::char_traits<char> >::~basic_ostream
FUNC 17140 8 0 std::basic_ostream<char, std::char_traits<char> >::~basic_ostream
FUNC 17154 12 0 std::basic_ostream<char, std::char_traits<char> >::~basic_ostream
FUNC 17172 8 0 std::basic_ostream<char, std::char_traits<char> >::~basic_ostream
FUNC 1717c 8c 0 std::basic_iostream<char, std::char_traits<char> >::~basic_iostream
FUNC 17208 8 0 std::basic_iostream<char, std::char_traits<char> >::~basic_iostream
FUNC 17210 80 0 std::basic_stringstream<char, std::char_traits<char>, std::allocator<char> >::~basic_stringstream
FUNC 17290 8 0 std::basic_stringstream<char, std::char_traits<char>, std::allocator<char> >::~basic_stringstream
FUNC 17298 8 0 std::basic_stringstream<char, std::char_traits<char>, std::allocator<char> >::~basic_stringstream
FUNC 172b4 12 0 std::basic_stringstream<char, std::char_traits<char>, std::allocator<char> >::~basic_stringstream
FUNC 172dc c0 0 testing::internal::CmpHelperEQ<std::basic_string<char, std::char_traits<char>, std::allocator<char> >, std::basic_string<char, std::char_traits<char>, std::allocator<char> > >
FUNC 1739c 8 0 std::basic_iostream<char, std::char_traits<char> >::~basic_iostream
FUNC 173b8 12 0 std::basic_iostream<char, std::char_traits<char> >::~basic_iostream
FUNC 173de 2c 0 std::basic_ostream<char, std::char_traits<char> >::flush
FUNC 1740a 40 0 std::priv::__init_bostr<char, std::char_traits<char> >
FUNC 1744a 24 0 std::basic_ostream<char, std::char_traits<char> >::sentry::~sentry
FUNC 1746e b4 0 std::basic_ostream<char, std::char_traits<char> >::_M_put_nowiden
FUNC 17522 90 0 std::priv::__put_num<char, std::char_traits<char>, long int>
FUNC 175b2 98 0 std::operator<< <char, std::char_traits<char>, std::allocator<char> >
FUNC 1764a 90 0 std::priv::__put_num<char, std::char_traits<char>, void const*>
FUNC 176da 16 0 std::priv::_String_base<char, std::allocator<char> >::_M_rest
FUNC 176f0 3c 0 std::basic_string<char, std::char_traits<char>, std::allocator<char> >::_M_compute_next_size
FUNC 1772c d8 0 std::basic_string<char, std::char_traits<char>, std::allocator<char> >::_M_append
FUNC 17804 44 0 std::basic_string<char, std::char_traits<char>, std::allocator<char> >::_M_assign
FUNC 17848 1a4 0 google_breakpad::AutoTempDir::AutoTempDir
FUNC 179ec 1a 0 std::basic_string<char, std::char_traits<char>, std::allocator<char> >::operator=
FUNC 17a06 10 0 SimpleCallback
FUNC 17a18 6c 0 testing::AssertionResult::AppendMessage
FUNC 17a84 2c 0 testing::AssertionResult::operator<< <char [12]>
FUNC 17a84 2c 0 testing::AssertionResult::operator<< <char [2]>
FUNC 17a84 2c 0 testing::AssertionResult::operator<< <char [3]>
FUNC 17a84 2c 0 testing::AssertionResult::operator<< <char [5]>
FUNC 17a84 2c 0 testing::AssertionResult::operator<< <char [7]>
FUNC 17ab0 38 0 testing::AssertionResult::operator<< <char const*>
FUNC 17ae8 2c 0 testing::AssertionResult::operator<< <std::basic_string<char, std::char_traits<char>, std::allocator<char> > >
FUNC 17b14 90 0 std::basic_string<char, std::char_traits<char>, std::allocator<char> >::_M_appendT<char const*>
FUNC 17ba4 46 0 std::operator+<char, std::char_traits<char>, std::allocator<char> >
FUNC 17bec 2c8 0 google_breakpad::AutoTempDir::DeleteRecursively
FUNC 17eb4 14 0 google_breakpad::AutoTempDir::~AutoTempDir
FUNC 17ec8 64 0 CreateTMPFile
FUNC 17f2c 88 0 ExceptionHandlerTest_SimpleWithFD_Test::TestBody
FUNC 17fb4 180 0 ExceptionHandlerTest_SimpleWithPath_Test::TestBody
FUNC 18134 a4 0 std::basic_stringbuf<char, std::char_traits<char>, std::allocator<char> >::xsputn
FUNC 181d8 48 0 testing::PrintToString<int>
FUNC 18220 d4 0 testing::internal::CmpHelperOpFailure<int, int>
FUNC 182f4 2c 0 testing::internal::CmpHelperNE<int, int>
FUNC 18320 74 0 testing::internal::CmpHelperEQ<int, int>
FUNC 18394 178 0 WaitForProcessToTerminate
FUNC 1850c 2ac 0 ReadMinidumpPathFromPipe
FUNC 187b8 e8 0 testing::internal::CmpHelperOpFailure<long int, int>
FUNC 188a0 244 0 ExceptionHandlerTest_GenerateMultipleDumpsWithFD_Test::TestBody
FUNC 18ae4 6c 0 testing::PrintToString<void*>
FUNC 18b50 d4 0 testing::internal::CmpHelperOpFailure<void*, void*>
FUNC 18c24 d8 0 testing::PrintToString<unsigned int>
FUNC 18cfc e8 0 testing::internal::CmpHelperLT<unsigned int, unsigned int>
FUNC 18de4 74 0 testing::internal::CmpHelperEQ<unsigned int, unsigned int>
FUNC 18e58 11c 0 testing::internal::CmpHelperEQ<unsigned int, long long unsigned int>
FUNC 18f74 96 0 std::priv::__put_num<char, std::char_traits<char>, long long int>
FUNC 1900c 110 0 testing::internal::CmpHelperGT<long long int, int>
FUNC 1911c 94 0 testing::internal::CmpHelperEQ<MDExceptionCodeLinux, unsigned int>
FUNC 191b0 62 0 std::basic_string<char, std::char_traits<char>, std::allocator<char> >::_M_reserve
FUNC 19212 30 0 std::basic_string<char, std::char_traits<char>, std::allocator<char> >::push_back
FUNC 19242 5e 0 std::basic_stringbuf<char, std::char_traits<char>, std::allocator<char> >::overflow
FUNC 192a0 64 0 std::basic_string<char, std::char_traits<char>, std::allocator<char> >::append
FUNC 19304 90 0 std::basic_stringbuf<char, std::char_traits<char>, std::allocator<char> >::_M_xsputnc
FUNC 19394 84 0 std::basic_stringbuf<char, std::char_traits<char>, std::allocator<char> >::setbuf
FUNC 19418 2f4 0 ChildCrash
FUNC 1970c 6c 0 ExceptionHandlerTest_ChildCrashWithPath_Test::TestBody
FUNC 19778 70 0 ExceptionHandlerTest_ChildCrashWithFD_Test::TestBody
FUNC 197e8 148 0 ExceptionHandlerTest_RedeliveryOnFilterCallbackFalse_Test::TestBody
FUNC 19930 148 0 ExceptionHandlerTest_RedeliveryOnDoneCallbackFalse_Test::TestBody
FUNC 19a78 148 0 ExceptionHandlerTest_NoRedeliveryOnDoneCallbackTrue_Test::TestBody
FUNC 19bc0 148 0 ExceptionHandlerTest_NoRedeliveryOnFilterCallbackTrue_Test::TestBody
FUNC 19d08 c4 0 ExceptionHandlerTest_RedeliveryToDefaultHandler_Test::TestBody
FUNC 19dcc 270 0 ExceptionHandlerTest_RedeliveryOnBadSignalHandlerFlag_Test::TestBody
FUNC 1a03c f8 0 ExceptionHandlerTest_StackedHandlersDeliveredToTop_Test::TestBody
FUNC 1a134 f8 0 ExceptionHandlerTest_StackedHandlersNotDeliveredToBottom_Test::TestBody
FUNC 1a22c fc 0 ExceptionHandlerTest_StackedHandlersFilteredToBottom_Test::TestBody
FUNC 1a328 fc 0 ExceptionHandlerTest_StackedHandlersUnhandledToBottom_Test::TestBody
FUNC 1a424 748 0 ExceptionHandlerTest_ExternalDumper_Test::TestBody
FUNC 1ab6c 884 0 ExceptionHandlerTest_InstructionPointerMemory_Test::TestBody
FUNC 1b3f0 7f8 0 ExceptionHandlerTest_InstructionPointerMemoryMinBound_Test::TestBody
FUNC 1bbe8 7f8 0 ExceptionHandlerTest_InstructionPointerMemoryMaxBound_Test::TestBody
FUNC 1c3e0 458 0 ExceptionHandlerTest_InstructionPointerMemoryNullPointer_Test::TestBody
FUNC 1c838 690 0 ExceptionHandlerTest_ModuleInfo_Test::TestBody
FUNC 1cec8 2dc 0 ExceptionHandlerTest_WriteMinidumpExceptionStream_Test::TestBody
FUNC 1d1a4 468 0 ExceptionHandlerTest_GenerateMultipleDumpsWithPath_Test::TestBody
FUNC 1d60c 370 0 ExceptionHandlerTest_AdditionalMemory_Test::TestBody
FUNC 1d97c 22c 0 ExceptionHandlerTest_AdditionalMemoryRemove_Test::TestBody
FUNC 1dba8 41c 0 ExceptionHandlerTest_WriteMinidumpForChild_Test::TestBody
FUNC 1dfc4 20 0 testing::internal::TestFactoryImpl<(anonymous namespace)::MicrodumpWriterTest_Setup_Test>::CreateTest
FUNC 1dfe4 18 0 MicrodumpWriterTest_Setup_Test::~MicrodumpWriterTest_Setup_Test
FUNC 1dffc 12 0 MicrodumpWriterTest_Setup_Test::~MicrodumpWriterTest_Setup_Test
FUNC 1e00e 10 0 std::__node_alloc::allocate
FUNC 1e020 6c 0 testing::PrintToString<void const*>
FUNC 1e08c 108 0 testing::internal::CmpHelperNE<char*, char*>
FUNC 1e194 6e4 0 MicrodumpWriterTest_Setup_Test::TestBody
FUNC 1e878 18 0 CpuSetTest_EmptyIntersection_Test::~CpuSetTest_EmptyIntersection_Test
FUNC 1e890 12 0 CpuSetTest_EmptyIntersection_Test::~CpuSetTest_EmptyIntersection_Test
FUNC 1e8a4 18 0 CpuSetTest_SelfIntersection_Test::~CpuSetTest_SelfIntersection_Test
FUNC 1e8bc 12 0 CpuSetTest_SelfIntersection_Test::~CpuSetTest_SelfIntersection_Test
FUNC 1e8d0 18 0 CpuSetTest_IntersectWith_Test::~CpuSetTest_IntersectWith_Test
FUNC 1e8e8 12 0 CpuSetTest_IntersectWith_Test::~CpuSetTest_IntersectWith_Test
FUNC 1e8fc 18 0 CpuSetTest_MultiItems_Test::~CpuSetTest_MultiItems_Test
FUNC 1e914 12 0 CpuSetTest_MultiItems_Test::~CpuSetTest_MultiItems_Test
FUNC 1e928 18 0 CpuSetTest_TenCpusWithRange_Test::~CpuSetTest_TenCpusWithRange_Test
FUNC 1e940 12 0 CpuSetTest_TenCpusWithRange_Test::~CpuSetTest_TenCpusWithRange_Test
FUNC 1e954 18 0 CpuSetTest_TwoCpusWithRange_Test::~CpuSetTest_TwoCpusWithRange_Test
FUNC 1e96c 12 0 CpuSetTest_TwoCpusWithRange_Test::~CpuSetTest_TwoCpusWithRange_Test
FUNC 1e980 18 0 CpuSetTest_TwoCpusWithComma_Test::~CpuSetTest_TwoCpusWithComma_Test
FUNC 1e998 12 0 CpuSetTest_TwoCpusWithComma_Test::~CpuSetTest_TwoCpusWithComma_Test
FUNC 1e9ac 18 0 CpuSetTest_OneCpuTerminated_Test::~CpuSetTest_OneCpuTerminated_Test
FUNC 1e9c4 12 0 CpuSetTest_OneCpuTerminated_Test::~CpuSetTest_OneCpuTerminated_Test
FUNC 1e9d8 18 0 CpuSetTest_OneCpu_Test::~CpuSetTest_OneCpu_Test
FUNC 1e9f0 12 0 CpuSetTest_OneCpu_Test::~CpuSetTest_OneCpu_Test
FUNC 1ea04 18 0 CpuSetTest_EmptyCount_Test::~CpuSetTest_EmptyCount_Test
FUNC 1ea1c 12 0 CpuSetTest_EmptyCount_Test::~CpuSetTest_EmptyCount_Test
FUNC 1ea30 20 0 testing::internal::TestFactoryImpl<CpuSetTest_IntersectWith_Test>::CreateTest
FUNC 1ea50 20 0 testing::internal::TestFactoryImpl<CpuSetTest_EmptyIntersection_Test>::CreateTest
FUNC 1ea70 20 0 testing::internal::TestFactoryImpl<CpuSetTest_SelfIntersection_Test>::CreateTest
FUNC 1ea90 20 0 testing::internal::TestFactoryImpl<CpuSetTest_TwoCpusWithComma_Test>::CreateTest
FUNC 1eab0 20 0 testing::internal::TestFactoryImpl<CpuSetTest_OneCpuTerminated_Test>::CreateTest
FUNC 1ead0 20 0 testing::internal::TestFactoryImpl<CpuSetTest_OneCpu_Test>::CreateTest
FUNC 1eaf0 20 0 testing::internal::TestFactoryImpl<CpuSetTest_EmptyCount_Test>::CreateTest
FUNC 1eb10 20 0 testing::internal::TestFactoryImpl<CpuSetTest_TenCpusWithRange_Test>::CreateTest
FUNC 1eb30 20 0 testing::internal::TestFactoryImpl<CpuSetTest_TwoCpusWithRange_Test>::CreateTest
FUNC 1eb50 20 0 testing::internal::TestFactoryImpl<CpuSetTest_MultiItems_Test>::CreateTest
FUNC 1eb70 10 0 google_breakpad::CpuSet::CpuSet
FUNC 1eb80 108 0 google_breakpad::CpuSet::ParseSysFile
FUNC 1ec88 1c 0 google_breakpad::CpuSet::GetCount
FUNC 1eca4 12 0 google_breakpad::AutoTestFile::~AutoTestFile
FUNC 1ecb8 6c 0 google_breakpad::AutoTestFile::Init
FUNC 1ed24 5c 0 ScopedTestFile::ScopedTestFile
FUNC 1ed80 dc 0 testing::internal::CmpHelperEQFailure<int, int>
FUNC 1ee5c 80 0 CpuSetTest_EmptyCount_Test::TestBody
FUNC 1eedc 1ac 0 CpuSetTest_OneCpu_Test::TestBody
FUNC 1f088 1ac 0 CpuSetTest_OneCpuTerminated_Test::TestBody
FUNC 1f234 1b0 0 CpuSetTest_TwoCpusWithComma_Test::TestBody
FUNC 1f3e4 1b0 0 CpuSetTest_TwoCpusWithRange_Test::TestBody
FUNC 1f594 1ac 0 CpuSetTest_TenCpusWithRange_Test::TestBody
FUNC 1f740 1ac 0 CpuSetTest_MultiItems_Test::TestBody
FUNC 1f8ec 3e8 0 CpuSetTest_IntersectWith_Test::TestBody
FUNC 1fcd4 1fc 0 CpuSetTest_SelfIntersection_Test::TestBody
FUNC 1fed0 3ec 0 CpuSetTest_EmptyIntersection_Test::TestBody
FUNC 202bc 18 0 DirectoryReaderTest_CompareResults_Test::~DirectoryReaderTest_CompareResults_Test
FUNC 202d4 12 0 DirectoryReaderTest_CompareResults_Test::~DirectoryReaderTest_CompareResults_Test
FUNC 202e8 20 0 testing::internal::TestFactoryImpl<DirectoryReaderTest_CompareResults_Test>::CreateTest
FUNC 20308 28 0 std::priv::_Rb_tree<std::basic_string<char, std::char_traits<char>, std::allocator<char> >, std::less<std::basic_string<char, std::char_traits<char>, std::allocator<char> > >, std::basic_string<char, std::char_traits<char>, std::allocator<char> >, std::priv::_Identity<std::basic_string<char, std::char_traits<char>, std::allocator<char> > >, std::priv::_SetTraitsT<std::basic_string<char, std::char_traits<char>, std::allocator<char> > >, std::allocator<std::basic_string<char, std::char_traits<char>, std::allocator<char> > > >::_M_create_node
FUNC 20330 98 0 std::priv::__put_num<char, std::char_traits<char>, long unsigned int>
FUNC 203c8 28 0 std::priv::_Rb_tree<std::basic_string<char, std::char_traits<char>, std::allocator<char> >, std::less<std::basic_string<char, std::char_traits<char>, std::allocator<char> > >, std::basic_string<char, std::char_traits<char>, std::allocator<char> >, std::priv::_Identity<std::basic_string<char, std::char_traits<char>, std::allocator<char> > >, std::priv::_SetTraitsT<std::basic_string<char, std::char_traits<char>, std::allocator<char> > >, std::allocator<std::basic_string<char, std::char_traits<char>, std::allocator<char> > > >::_M_erase
FUNC 203f0 34 0 std::operator< <char, std::char_traits<char>, std::allocator<char> >
FUNC 20424 2c 0 std::priv::_Rb_global<bool>::_Rotate_left
FUNC 20450 2c 0 std::priv::_Rb_global<bool>::_Rotate_right
FUNC 2047c 9e 0 std::priv::_Rb_global<bool>::_Rebalance
FUNC 2051a 6e 0 std::priv::_Rb_tree<std::basic_string<char, std::char_traits<char>, std::allocator<char> >, std::less<std::basic_string<char, std::char_traits<char>, std::allocator<char> > >, std::basic_string<char, std::char_traits<char>, std::allocator<char> >, std::priv::_Identity<std::basic_string<char, std::char_traits<char>, std::allocator<char> > >, std::priv::_SetTraitsT<std::basic_string<char, std::char_traits<char>, std::allocator<char> > >, std::allocator<std::basic_string<char, std::char_traits<char>, std::allocator<char> > > >::_M_insert
FUNC 20588 70c 0 DirectoryReaderTest_CompareResults_Test::TestBody
FUNC 20c94 18 0 LineReaderTest_TooLong_Test::~LineReaderTest_TooLong_Test
FUNC 20cac 12 0 LineReaderTest_TooLong_Test::~LineReaderTest_TooLong_Test
FUNC 20cc0 18 0 LineReaderTest_MaxLength_Test::~LineReaderTest_MaxLength_Test
FUNC 20cd8 12 0 LineReaderTest_MaxLength_Test::~LineReaderTest_MaxLength_Test
FUNC 20cec 18 0 LineReaderTest_TwoLines_Test::~LineReaderTest_TwoLines_Test
FUNC 20d04 12 0 LineReaderTest_TwoLines_Test::~LineReaderTest_TwoLines_Test
FUNC 20d18 18 0 LineReaderTest_TwoLinesTerminated_Test::~LineReaderTest_TwoLinesTerminated_Test
FUNC 20d30 12 0 LineReaderTest_TwoLinesTerminated_Test::~LineReaderTest_TwoLinesTerminated_Test
FUNC 20d44 18 0 LineReaderTest_OneLine_Test::~LineReaderTest_OneLine_Test
FUNC 20d5c 12 0 LineReaderTest_OneLine_Test::~LineReaderTest_OneLine_Test
FUNC 20d70 18 0 LineReaderTest_OneLineTerminated_Test::~LineReaderTest_OneLineTerminated_Test
FUNC 20d88 12 0 LineReaderTest_OneLineTerminated_Test::~LineReaderTest_OneLineTerminated_Test
FUNC 20d9c 18 0 LineReaderTest_EmptyFile_Test::~LineReaderTest_EmptyFile_Test
FUNC 20db4 12 0 LineReaderTest_EmptyFile_Test::~LineReaderTest_EmptyFile_Test
FUNC 20dc8 20 0 testing::internal::TestFactoryImpl<LineReaderTest_TooLong_Test>::CreateTest
FUNC 20de8 20 0 testing::internal::TestFactoryImpl<LineReaderTest_TwoLinesTerminated_Test>::CreateTest
FUNC 20e08 20 0 testing::internal::TestFactoryImpl<LineReaderTest_OneLine_Test>::CreateTest
FUNC 20e28 20 0 testing::internal::TestFactoryImpl<LineReaderTest_OneLineTerminated_Test>::CreateTest
FUNC 20e48 20 0 testing::internal::TestFactoryImpl<LineReaderTest_EmptyFile_Test>::CreateTest
FUNC 20e68 20 0 testing::internal::TestFactoryImpl<LineReaderTest_MaxLength_Test>::CreateTest
FUNC 20e88 20 0 testing::internal::TestFactoryImpl<LineReaderTest_TwoLines_Test>::CreateTest
FUNC 20ea8 9e 0 google_breakpad::LineReader::GetNextLine
FUNC 20f46 12 0 google_breakpad::LineReader::PopLine
FUNC 20f58 42 0 google_breakpad::AutoTestFile::WriteText
FUNC 20f9c 2c 0 ScopedTestFile::ScopedTestFile
FUNC 20fc8 148 0 LineReaderTest_EmptyFile_Test::TestBody
FUNC 21110 16c 0 LineReaderTest_TooLong_Test::TestBody
FUNC 2127c a0 0 testing::internal::CmpHelperEQFailure<unsigned int, unsigned int>
FUNC 2131c a0 0 testing::internal::CmpHelperEQFailure<char, char>
FUNC 213bc 20 0 testing::internal::CmpHelperEQ<char, char>
FUNC 213dc 288 0 LineReaderTest_OneLineTerminated_Test::TestBody
FUNC 21664 288 0 LineReaderTest_OneLine_Test::TestBody
FUNC 218ec 3c4 0 LineReaderTest_TwoLinesTerminated_Test::TestBody
FUNC 21cb0 3c4 0 LineReaderTest_TwoLines_Test::TestBody
FUNC 22074 268 0 LineReaderTest_MaxLength_Test::TestBody
FUNC 222dc 18 0 LinuxCoreDumperTest_VerifyDumpWithMultipleThreads_Test::~LinuxCoreDumperTest_VerifyDumpWithMultipleThreads_Test
FUNC 222f4 12 0 LinuxCoreDumperTest_VerifyDumpWithMultipleThreads_Test::~LinuxCoreDumperTest_VerifyDumpWithMultipleThreads_Test
FUNC 22308 18 0 LinuxCoreDumperTest_BuildProcPath_Test::~LinuxCoreDumperTest_BuildProcPath_Test
FUNC 22320 12 0 LinuxCoreDumperTest_BuildProcPath_Test::~LinuxCoreDumperTest_BuildProcPath_Test
FUNC 22334 20 0 testing::internal::TestFactoryImpl<LinuxCoreDumperTest_VerifyDumpWithMultipleThreads_Test>::CreateTest
FUNC 22354 20 0 testing::internal::TestFactoryImpl<LinuxCoreDumperTest_BuildProcPath_Test>::CreateTest
FUNC 22374 24 0 google_breakpad::LinuxCoreDumper::~LinuxCoreDumper
FUNC 22398 3b8 0 LinuxCoreDumperTest_BuildProcPath_Test::TestBody
FUNC 22750 70c 0 LinuxCoreDumperTest_VerifyDumpWithMultipleThreads_Test::TestBody
FUNC 22e5c 12 0 google_breakpad::LinuxCoreDumper::~LinuxCoreDumper
FUNC 22e6e c 0 LinuxPtraceDumperChildTest::SetUp
FUNC 22e7c 18 0 LinuxPtraceDumperTest_VerifyStackReadWithMultipleThreads_Test::~LinuxPtraceDumperTest_VerifyStackReadWithMultipleThreads_Test
FUNC 22e94 12 0 LinuxPtraceDumperTest_VerifyStackReadWithMultipleThreads_Test::~LinuxPtraceDumperTest_VerifyStackReadWithMultipleThreads_Test
FUNC 22ea8 18 0 LinuxPtraceDumperChildTest_BuildProcPath_Test::~LinuxPtraceDumperChildTest_BuildProcPath_Test
FUNC 22ea8 18 0 LinuxPtraceDumperChildTest_FileIDsMatch_Test::~LinuxPtraceDumperChildTest_FileIDsMatch_Test
FUNC 22ea8 18 0 LinuxPtraceDumperChildTest_FindMappings_Test::~LinuxPtraceDumperChildTest_FindMappings_Test
FUNC 22ea8 18 0 LinuxPtraceDumperChildTest_Setup_Test::~LinuxPtraceDumperChildTest_Setup_Test
FUNC 22ea8 18 0 LinuxPtraceDumperChildTest_ThreadList_Test::~LinuxPtraceDumperChildTest_ThreadList_Test
FUNC 22ec0 12 0 LinuxPtraceDumperChildTest_BuildProcPath_Test::~LinuxPtraceDumperChildTest_BuildProcPath_Test
FUNC 22ec0 12 0 LinuxPtraceDumperChildTest_FileIDsMatch_Test::~LinuxPtraceDumperChildTest_FileIDsMatch_Test
FUNC 22ec0 12 0 LinuxPtraceDumperChildTest_FindMappings_Test::~LinuxPtraceDumperChildTest_FindMappings_Test
FUNC 22ec0 12 0 LinuxPtraceDumperChildTest_Setup_Test::~LinuxPtraceDumperChildTest_Setup_Test
FUNC 22ec0 12 0 LinuxPtraceDumperChildTest_ThreadList_Test::~LinuxPtraceDumperChildTest_ThreadList_Test
FUNC 22ed4 20 0 testing::internal::TestFactoryImpl<LinuxPtraceDumperChildTest_FileIDsMatch_Test>::CreateTest
FUNC 22ef4 20 0 testing::internal::TestFactoryImpl<LinuxPtraceDumperChildTest_ThreadList_Test>::CreateTest
FUNC 22f14 20 0 testing::internal::TestFactoryImpl<LinuxPtraceDumperChildTest_FindMappings_Test>::CreateTest
FUNC 22f34 20 0 testing::internal::TestFactoryImpl<LinuxPtraceDumperChildTest_BuildProcPath_Test>::CreateTest
FUNC 22f54 20 0 testing::internal::TestFactoryImpl<LinuxPtraceDumperChildTest_Setup_Test>::CreateTest
FUNC 22f74 20 0 testing::internal::TestFactoryImpl<LinuxPtraceDumperTest_VerifyStackReadWithMultipleThreads_Test>::CreateTest
FUNC 22f94 144 0 LinuxPtraceDumperChildTest::TestBody
FUNC 230d8 44 0 LinuxPtraceDumperMappingsTest_MergedMappings_Test::~LinuxPtraceDumperMappingsTest_MergedMappings_Test
FUNC 2311c 12 0 LinuxPtraceDumperMappingsTest_MergedMappings_Test::~LinuxPtraceDumperMappingsTest_MergedMappings_Test
FUNC 23130 48 0 testing::internal::TestFactoryImpl<LinuxPtraceDumperMappingsTest_MergedMappings_Test>::CreateTest
FUNC 23178 2b8 0 LinuxPtraceDumperMappingsTest::SetUp
FUNC 23430 1c 0 google_breakpad::LinuxPtraceDumper::~LinuxPtraceDumper
FUNC 2344c 1a 0 LinuxPtraceDumperChildTest_Setup_Test::RealTestBody
FUNC 23468 1d0 0 LinuxPtraceDumperChildTest_FindMappings_Test::RealTestBody
FUNC 23638 400 0 LinuxPtraceDumperChildTest_BuildProcPath_Test::RealTestBody
FUNC 23a38 46c 0 LinuxPtraceDumperChildTest_FileIDsMatch_Test::RealTestBody
FUNC 23ea4 2b0 0 LinuxPtraceDumperChildTest_ThreadList_Test::RealTestBody
FUNC 24154 2a8 0 LinuxPtraceDumperMappingsTest_MergedMappings_Test::RealTestBody
FUNC 243fc 8b4 0 LinuxPtraceDumperTest_VerifyStackReadWithMultipleThreads_Test::TestBody
FUNC 24cb0 12 0 google_breakpad::LinuxPtraceDumper::~LinuxPtraceDumper
FUNC 24cc4 20 0 testing::internal::TestFactoryImpl<(anonymous namespace)::MinidumpWriterTest_SetupWithPath_Test>::CreateTest
FUNC 24ce4 20 0 testing::internal::TestFactoryImpl<(anonymous namespace)::MinidumpWriterTest_SetupWithFD_Test>::CreateTest
FUNC 24d04 20 0 testing::internal::TestFactoryImpl<(anonymous namespace)::MinidumpWriterTest_MappingInfo_Test>::CreateTest
FUNC 24d24 20 0 testing::internal::TestFactoryImpl<(anonymous namespace)::MinidumpWriterTest_MappingInfoContained_Test>::CreateTest
FUNC 24d44 20 0 testing::internal::TestFactoryImpl<(anonymous namespace)::MinidumpWriterTest_DeletedBinary_Test>::CreateTest
FUNC 24d64 20 0 testing::internal::TestFactoryImpl<(anonymous namespace)::MinidumpWriterTest_AdditionalMemory_Test>::CreateTest
FUNC 24d84 20 0 testing::internal::TestFactoryImpl<(anonymous namespace)::MinidumpWriterTest_InvalidStackPointer_Test>::CreateTest
FUNC 24da4 20 0 testing::internal::TestFactoryImpl<(anonymous namespace)::MinidumpWriterTest_MinidumpSizeLimit_Test>::CreateTest
FUNC 24dc4 18 0 MinidumpWriterTest_SetupWithPath_Test::~MinidumpWriterTest_SetupWithPath_Test
FUNC 24ddc 12 0 MinidumpWriterTest_SetupWithPath_Test::~MinidumpWriterTest_SetupWithPath_Test
FUNC 24df0 18 0 MinidumpWriterTest_SetupWithFD_Test::~MinidumpWriterTest_SetupWithFD_Test
FUNC 24e08 12 0 MinidumpWriterTest_SetupWithFD_Test::~MinidumpWriterTest_SetupWithFD_Test
FUNC 24e1c 18 0 MinidumpWriterTest_MappingInfo_Test::~MinidumpWriterTest_MappingInfo_Test
FUNC 24e34 12 0 MinidumpWriterTest_MappingInfo_Test::~MinidumpWriterTest_MappingInfo_Test
FUNC 24e48 18 0 MinidumpWriterTest_MappingInfoContained_Test::~MinidumpWriterTest_MappingInfoContained_Test
FUNC 24e60 12 0 MinidumpWriterTest_MappingInfoContained_Test::~MinidumpWriterTest_MappingInfoContained_Test
FUNC 24e74 18 0 MinidumpWriterTest_DeletedBinary_Test::~MinidumpWriterTest_DeletedBinary_Test
FUNC 24e8c 12 0 MinidumpWriterTest_DeletedBinary_Test::~MinidumpWriterTest_DeletedBinary_Test
FUNC 24ea0 18 0 MinidumpWriterTest_AdditionalMemory_Test::~MinidumpWriterTest_AdditionalMemory_Test
FUNC 24eb8 12 0 MinidumpWriterTest_AdditionalMemory_Test::~MinidumpWriterTest_AdditionalMemory_Test
FUNC 24ecc 18 0 MinidumpWriterTest_InvalidStackPointer_Test::~MinidumpWriterTest_InvalidStackPointer_Test
FUNC 24ee4 12 0 MinidumpWriterTest_InvalidStackPointer_Test::~MinidumpWriterTest_InvalidStackPointer_Test
FUNC 24ef8 18 0 MinidumpWriterTest_MinidumpSizeLimit_Test::~MinidumpWriterTest_MinidumpSizeLimit_Test
FUNC 24f10 12 0 MinidumpWriterTest_MinidumpSizeLimit_Test::~MinidumpWriterTest_MinidumpSizeLimit_Test
FUNC 24f22 7a 0 std::basic_string<char, std::char_traits<char>, std::allocator<char> >::find
FUNC 24f9c 30 0 std::basic_string<char, std::char_traits<char>, std::allocator<char> >::erase
FUNC 24fcc 32 0 std::priv::_Impl_list<google_breakpad::MappingEntry, std::allocator<google_breakpad::MappingEntry> >::push_back
FUNC 24ffe 1a 0 std::basic_string<char, std::char_traits<char>, std::allocator<char> >::append
FUNC 25018 22 0 std::priv::_List_base<google_breakpad::AppMemory, std::allocator<google_breakpad::AppMemory> >::_List_base
FUNC 25018 22 0 std::priv::_List_base<google_breakpad::MappingEntry, std::allocator<google_breakpad::MappingEntry> >::_List_base
FUNC 25018 22 0 std::priv::_List_base<std::pair<char, char const*>, std::allocator<std::pair<char, char const*> > >::_List_base
FUNC 2503a 1a 0 std::priv::_List_base<google_breakpad::MappingEntry, std::allocator<google_breakpad::MappingEntry> >::clear
FUNC 25054 1c 0 std::priv::_List_base<google_breakpad::AppMemory, std::allocator<google_breakpad::AppMemory> >::clear
FUNC 25054 1c 0 std::priv::_List_base<std::pair<char, char const*>, std::allocator<std::pair<char, char const*> > >::clear
FUNC 25070 c0 0 testing::internal::CmpHelperEQFailure<char const*, std::basic_string<char, std::char_traits<char>, std::allocator<char> > >
FUNC 25130 4a 0 testing::internal::CmpHelperEQ<char const*, std::basic_string<char, std::char_traits<char>, std::allocator<char> > >
FUNC 2517c a0 0 testing::internal::CmpHelperEQFailure<std::basic_string<char, std::char_traits<char>, std::allocator<char> >, std::basic_string<char, std::char_traits<char>, std::allocator<char> > >
FUNC 2521c d8 0 testing::PrintToString<long long int>
FUNC 252f4 26c 0 MinidumpWriterTest_SetupWithPath_Test::TestBody
FUNC 25560 274 0 MinidumpWriterTest_SetupWithFD_Test::TestBody
FUNC 257d4 c70 0 MinidumpWriterTest_MappingInfo_Test::TestBody
FUNC 26444 7d0 0 MinidumpWriterTest_MappingInfoContained_Test::TestBody
FUNC 26c14 8a8 0 MinidumpWriterTest_DeletedBinary_Test::TestBody
FUNC 274bc 298 0 MinidumpWriterTest_InvalidStackPointer_Test::TestBody
FUNC 27754 5a4 0 MinidumpWriterTest_AdditionalMemory_Test::TestBody
FUNC 27cf8 dec 0 MinidumpWriterTest_MinidumpSizeLimit_Test::TestBody
FUNC 28ae4 2a0 0 google_breakpad::GetHelperBinary
FUNC 28d84 18 0 ProcCpuInfoReaderTest_EmptyValue_Test::~ProcCpuInfoReaderTest_EmptyValue_Test
FUNC 28d9c 12 0 ProcCpuInfoReaderTest_EmptyValue_Test::~ProcCpuInfoReaderTest_EmptyValue_Test
FUNC 28db0 18 0 ProcCpuInfoReaderTest_FieldWithSpaces_Test::~ProcCpuInfoReaderTest_FieldWithSpaces_Test
FUNC 28dc8 12 0 ProcCpuInfoReaderTest_FieldWithSpaces_Test::~ProcCpuInfoReaderTest_FieldWithSpaces_Test
FUNC 28ddc 18 0 ProcCpuInfoReaderTest_SkipTwoEmptyLines_Test::~ProcCpuInfoReaderTest_SkipTwoEmptyLines_Test
FUNC 28df4 12 0 ProcCpuInfoReaderTest_SkipTwoEmptyLines_Test::~ProcCpuInfoReaderTest_SkipTwoEmptyLines_Test
FUNC 28e08 18 0 ProcCpuInfoReaderTest_SkipEmptyField_Test::~ProcCpuInfoReaderTest_SkipEmptyField_Test
FUNC 28e20 12 0 ProcCpuInfoReaderTest_SkipEmptyField_Test::~ProcCpuInfoReaderTest_SkipEmptyField_Test
FUNC 28e34 18 0 ProcCpuInfoReaderTest_SkipOneEmptyLine_Test::~ProcCpuInfoReaderTest_SkipOneEmptyLine_Test
FUNC 28e4c 12 0 ProcCpuInfoReaderTest_SkipOneEmptyLine_Test::~ProcCpuInfoReaderTest_SkipOneEmptyLine_Test
FUNC 28e60 18 0 ProcCpuInfoReaderTest_SkipMalformedLine_Test::~ProcCpuInfoReaderTest_SkipMalformedLine_Test
FUNC 28e78 12 0 ProcCpuInfoReaderTest_SkipMalformedLine_Test::~ProcCpuInfoReaderTest_SkipMalformedLine_Test
FUNC 28e8c 18 0 ProcCpuInfoReaderTest_TwoLinesTerminated_Test::~ProcCpuInfoReaderTest_TwoLinesTerminated_Test
FUNC 28ea4 12 0 ProcCpuInfoReaderTest_TwoLinesTerminated_Test::~ProcCpuInfoReaderTest_TwoLinesTerminated_Test
FUNC 28eb8 18 0 ProcCpuInfoReaderTest_OneLine_Test::~ProcCpuInfoReaderTest_OneLine_Test
FUNC 28ed0 12 0 ProcCpuInfoReaderTest_OneLine_Test::~ProcCpuInfoReaderTest_OneLine_Test
FUNC 28ee4 18 0 ProcCpuInfoReaderTest_OneLineTerminated_Test::~ProcCpuInfoReaderTest_OneLineTerminated_Test
FUNC 28efc 12 0 ProcCpuInfoReaderTest_OneLineTerminated_Test::~ProcCpuInfoReaderTest_OneLineTerminated_Test
FUNC 28f10 18 0 ProcCpuInfoReaderTest_EmptyFile_Test::~ProcCpuInfoReaderTest_EmptyFile_Test
FUNC 28f28 12 0 ProcCpuInfoReaderTest_EmptyFile_Test::~ProcCpuInfoReaderTest_EmptyFile_Test
FUNC 28f3c 20 0 testing::internal::TestFactoryImpl<ProcCpuInfoReaderTest_SkipTwoEmptyLines_Test>::CreateTest
FUNC 28f5c 20 0 testing::internal::TestFactoryImpl<ProcCpuInfoReaderTest_EmptyValue_Test>::CreateTest
FUNC 28f7c 20 0 testing::internal::TestFactoryImpl<ProcCpuInfoReaderTest_FieldWithSpaces_Test>::CreateTest
FUNC 28f9c 20 0 testing::internal::TestFactoryImpl<ProcCpuInfoReaderTest_TwoLinesTerminated_Test>::CreateTest
FUNC 28fbc 20 0 testing::internal::TestFactoryImpl<ProcCpuInfoReaderTest_OneLine_Test>::CreateTest
FUNC 28fdc 20 0 testing::internal::TestFactoryImpl<ProcCpuInfoReaderTest_OneLineTerminated_Test>::CreateTest
FUNC 28ffc 20 0 testing::internal::TestFactoryImpl<ProcCpuInfoReaderTest_EmptyFile_Test>::CreateTest
FUNC 2901c 20 0 testing::internal::TestFactoryImpl<ProcCpuInfoReaderTest_SkipOneEmptyLine_Test>::CreateTest
FUNC 2903c 20 0 testing::internal::TestFactoryImpl<ProcCpuInfoReaderTest_SkipMalformedLine_Test>::CreateTest
FUNC 2905c 20 0 testing::internal::TestFactoryImpl<ProcCpuInfoReaderTest_SkipEmptyField_Test>::CreateTest
FUNC 2907c 116 0 google_breakpad::ProcCpuInfoReader::GetNextField
FUNC 29194 5c 0 ScopedTestFile::ScopedTestFile
FUNC 291f0 150 0 ProcCpuInfoReaderTest_EmptyFile_Test::TestBody
FUNC 29340 230 0 ProcCpuInfoReaderTest_OneLineTerminated_Test::TestBody
FUNC 29570 30c 0 ProcCpuInfoReaderTest_TwoLinesTerminated_Test::TestBody
FUNC 2987c 230 0 ProcCpuInfoReaderTest_SkipMalformedLine_Test::TestBody
FUNC 29aac 230 0 ProcCpuInfoReaderTest_SkipOneEmptyLine_Test::TestBody
FUNC 29cdc 230 0 ProcCpuInfoReaderTest_SkipEmptyField_Test::TestBody
FUNC 29f0c 300 0 ProcCpuInfoReaderTest_SkipTwoEmptyLines_Test::TestBody
FUNC 2a20c 230 0 ProcCpuInfoReaderTest_FieldWithSpaces_Test::TestBody
FUNC 2a43c 294 0 ProcCpuInfoReaderTest_EmptyValue_Test::TestBody
FUNC 2a6d0 294 0 ProcCpuInfoReaderTest_OneLine_Test::TestBody
FUNC 2a964 18 0 ElfCoreDumpTest_ValidCoreFile_Test::~ElfCoreDumpTest_ValidCoreFile_Test
FUNC 2a97c 12 0 ElfCoreDumpTest_ValidCoreFile_Test::~ElfCoreDumpTest_ValidCoreFile_Test
FUNC 2a990 18 0 ElfCoreDumpTest_TestElfHeader_Test::~ElfCoreDumpTest_TestElfHeader_Test
FUNC 2a9a8 12 0 ElfCoreDumpTest_TestElfHeader_Test::~ElfCoreDumpTest_TestElfHeader_Test
FUNC 2a9bc 18 0 ElfCoreDumpTest_DefaultConstructor_Test::~ElfCoreDumpTest_DefaultConstructor_Test
FUNC 2a9d4 12 0 ElfCoreDumpTest_DefaultConstructor_Test::~ElfCoreDumpTest_DefaultConstructor_Test
FUNC 2a9e8 20 0 testing::internal::TestFactoryImpl<ElfCoreDumpTest_DefaultConstructor_Test>::CreateTest
FUNC 2aa08 20 0 testing::internal::TestFactoryImpl<ElfCoreDumpTest_ValidCoreFile_Test>::CreateTest
FUNC 2aa28 20 0 testing::internal::TestFactoryImpl<ElfCoreDumpTest_TestElfHeader_Test>::CreateTest
FUNC 2aa48 30 0 std::map<long long unsigned int, google_breakpad::RangeMap<long long unsigned int, google_breakpad::linked_ptr<const google_breakpad::CodeModule> >::Range, std::less<long long unsigned int>, std::allocator<std::pair<long long unsigned int const, google_breakpad::RangeMap<long long unsigned int, google_breakpad::linked_ptr<const google_breakpad::CodeModule> >::Range> > >::map
FUNC 2aa48 30 0 std::map<long long unsigned int, google_breakpad::RangeMap<long long unsigned int, unsigned int>::Range, std::less<long long unsigned int>, std::allocator<std::pair<long long unsigned int const, google_breakpad::RangeMap<long long unsigned int, unsigned int>::Range> > >::map
FUNC 2aa48 30 0 std::map<unsigned int, google_breakpad::Minidump::MinidumpStreamInfo, std::less<unsigned int>, std::allocator<std::pair<unsigned int const, google_breakpad::Minidump::MinidumpStreamInfo> > >::map
FUNC 2aa48 30 0 std::set<int, std::less<int>, std::allocator<int> >::set
FUNC 2aa78 74 0 std::operator==<int, std::less<int>, std::allocator<int> >
FUNC 2aaec 2c 0 testing::internal::DefaultPrintTo<const Elf32_Phdr>
FUNC 2aaec 2c 0 testing::internal::DefaultPrintTo<const elfhdr>
FUNC 2ab18 a0 0 testing::internal::CmpHelperEQFailure<const Elf32_Phdr*, const Elf32_Phdr*>
FUNC 2ab18 a0 0 testing::internal::CmpHelperEQFailure<const elfhdr*, const elfhdr*>
FUNC 2abb8 2fc 0 ElfCoreDumpTest_DefaultConstructor_Test::TestBody
FUNC 2aeb4 20 0 std::priv::_Rb_tree<int, std::less<int>, int, std::priv::_Identity<int>, std::priv::_SetTraitsT<int>, std::allocator<int> >::_M_erase
FUNC 2aed4 1a 0 std::priv::_Rb_tree<int, std::less<int>, int, std::priv::_Identity<int>, std::priv::_SetTraitsT<int>, std::allocator<int> >::clear
FUNC 2aef0 f5c 0 ElfCoreDumpTest_TestElfHeader_Test::TestBody
FUNC 2be4c 98 0 std::priv::_Rb_tree<int, std::less<int>, int, std::priv::_Identity<int>, std::priv::_SetTraitsT<int>, std::allocator<int> >::_M_insert
FUNC 2bee4 8e 0 std::priv::_Rb_tree<int, std::less<int>, int, std::priv::_Identity<int>, std::priv::_SetTraitsT<int>, std::allocator<int> >::insert_unique
FUNC 2bf74 858 0 ElfCoreDumpTest_ValidCoreFile_Test::TestBody
FUNC 2c7cc 28 0 testing::internal::TestFactoryImpl<FileIDTest_BuildID_Test<google_breakpad::ElfClass32> >::CreateTest
FUNC 2c7f4 28 0 testing::internal::TestFactoryImpl<FileIDTest_UniqueHashes_Test<google_breakpad::ElfClass32> >::CreateTest
FUNC 2c81c 28 0 testing::internal::TestFactoryImpl<FileIDTest_BuildIDPH_Test<google_breakpad::ElfClass32> >::CreateTest
FUNC 2c844 28 0 testing::internal::TestFactoryImpl<FileIDTest_ElfClass_Test<google_breakpad::ElfClass32> >::CreateTest
FUNC 2c86c 28 0 testing::internal::TestFactoryImpl<FileIDTest_BuildID_Test<google_breakpad::ElfClass64> >::CreateTest
FUNC 2c894 28 0 testing::internal::TestFactoryImpl<FileIDTest_BuildIDPH_Test<google_breakpad::ElfClass64> >::CreateTest
FUNC 2c8bc 28 0 testing::internal::TestFactoryImpl<FileIDTest_ElfClass_Test<google_breakpad::ElfClass64> >::CreateTest
FUNC 2c8e4 28 0 testing::internal::TestFactoryImpl<FileIDTest_UniqueHashes_Test<google_breakpad::ElfClass64> >::CreateTest
FUNC 2c90c 18 0 std::priv::__copy_trivial
FUNC 2c924 c 0 std::__node_alloc::deallocate
FUNC 2c930 f8 0 std::priv::_Impl_vector<unsigned char, std::allocator<unsigned char> >::_M_range_insert<char*>
FUNC 2ca28 4c 0 google_breakpad::test_assembler::Section::~Section
FUNC 2ca74 12 0 google_breakpad::test_assembler::Section::~Section
FUNC 2ca88 1c 0 google_breakpad::synth_elf::Notes::~Notes
FUNC 2caa4 12 0 google_breakpad::synth_elf::Notes::~Notes
FUNC 2cab8 40 0 PopulateSection
FUNC 2caf8 34 0 google_breakpad::test_assembler::Section::Section
FUNC 2cb2c 42 0 testing::internal::GetPrefixUntilComma
FUNC 2cb70 4c 0 testing::internal::StripTrailingSpaces
FUNC 2cbbc 3e 0 std::operator+<char, std::char_traits<char>, std::allocator<char> >
FUNC 2cbfa 32 0 std::priv::_Rb_tree<std::basic_string<char, std::char_traits<char>, std::allocator<char> >, std::less<std::basic_string<char, std::char_traits<char>, std::allocator<char> > >, std::pair<const std::basic_string<char, std::char_traits<char>, std::allocator<char> >, google_breakpad::test_assembler::Label>, std::priv::_Select1st<std::pair<const std::basic_string<char, std::char_traits<char>, std::allocator<char> >, google_breakpad::test_assembler::Label> >, std::priv::_MapTraitsT<std::pair<const std::basic_string<char, std::char_traits<char>, std::allocator<char> >, google_breakpad::test_assembler::Label> >, std::allocator<std::pair<const std::basic_string<char, std::char_traits<char>, std::allocator<char> >, google_breakpad::test_assembler::Label> > >::_M_erase
FUNC 2cc2c 30 0 google_breakpad::synth_elf::StringTable::~StringTable
FUNC 2cc5c 12 0 google_breakpad::synth_elf::StringTable::~StringTable
FUNC 2cc70 90 0 google_breakpad::synth_elf::ELF::~ELF
FUNC 2cd00 12 0 google_breakpad::synth_elf::ELF::~ELF
FUNC 2cd12 c6 0 testing::internal::StreamableToString<int>
FUNC 2cdd8 148 0 testing::internal::TypeParameterizedTest<FileIDTest, testing::internal::TemplateSel<FileIDTest_ElfClass_Test>, testing::internal::Types1<google_breakpad::ElfClass64> >::Register
FUNC 2cf20 158 0 testing::internal::TypeParameterizedTest<FileIDTest, testing::internal::TemplateSel<FileIDTest_ElfClass_Test>, testing::internal::Types2<google_breakpad::ElfClass32, google_breakpad::ElfClass64> >::Register
FUNC 2d078 148 0 testing::internal::TypeParameterizedTest<FileIDTest, testing::internal::TemplateSel<FileIDTest_BuildID_Test>, testing::internal::Types1<google_breakpad::ElfClass64> >::Register
FUNC 2d1c0 158 0 testing::internal::TypeParameterizedTest<FileIDTest, testing::internal::TemplateSel<FileIDTest_BuildID_Test>, testing::internal::Types2<google_breakpad::ElfClass32, google_breakpad::ElfClass64> >::Register
FUNC 2d318 148 0 testing::internal::TypeParameterizedTest<FileIDTest, testing::internal::TemplateSel<FileIDTest_BuildIDPH_Test>, testing::internal::Types1<google_breakpad::ElfClass64> >::Register
FUNC 2d460 158 0 testing::internal::TypeParameterizedTest<FileIDTest, testing::internal::TemplateSel<FileIDTest_BuildIDPH_Test>, testing::internal::Types2<google_breakpad::ElfClass32, google_breakpad::ElfClass64> >::Register
FUNC 2d5b8 148 0 testing::internal::TypeParameterizedTest<FileIDTest, testing::internal::TemplateSel<FileIDTest_UniqueHashes_Test>, testing::internal::Types1<google_breakpad::ElfClass64> >::Register
FUNC 2d700 158 0 testing::internal::TypeParameterizedTest<FileIDTest, testing::internal::TemplateSel<FileIDTest_UniqueHashes_Test>, testing::internal::Types2<google_breakpad::ElfClass32, google_breakpad::ElfClass64> >::Register
FUNC 2d858 28 0 FileIDTest<google_breakpad::ElfClass64>::~FileIDTest
FUNC 2d880 1c 0 FileIDTest_ElfClass_Test<google_breakpad::ElfClass64>::~FileIDTest_ElfClass_Test
FUNC 2d89c 12 0 FileIDTest_ElfClass_Test<google_breakpad::ElfClass64>::~FileIDTest_ElfClass_Test
FUNC 2d8b0 1c 0 FileIDTest_BuildID_Test<google_breakpad::ElfClass64>::~FileIDTest_BuildID_Test
FUNC 2d8cc 12 0 FileIDTest_BuildID_Test<google_breakpad::ElfClass64>::~FileIDTest_BuildID_Test
FUNC 2d8e0 1c 0 FileIDTest_BuildIDPH_Test<google_breakpad::ElfClass64>::~FileIDTest_BuildIDPH_Test
FUNC 2d8fc 12 0 FileIDTest_BuildIDPH_Test<google_breakpad::ElfClass64>::~FileIDTest_BuildIDPH_Test
FUNC 2d910 1c 0 FileIDTest_UniqueHashes_Test<google_breakpad::ElfClass64>::~FileIDTest_UniqueHashes_Test
FUNC 2d92c 12 0 FileIDTest_UniqueHashes_Test<google_breakpad::ElfClass64>::~FileIDTest_UniqueHashes_Test
FUNC 2d940 28 0 FileIDTest<google_breakpad::ElfClass32>::~FileIDTest
FUNC 2d968 1c 0 FileIDTest_ElfClass_Test<google_breakpad::ElfClass32>::~FileIDTest_ElfClass_Test
FUNC 2d984 12 0 FileIDTest_ElfClass_Test<google_breakpad::ElfClass32>::~FileIDTest_ElfClass_Test
FUNC 2d998 1c 0 FileIDTest_BuildID_Test<google_breakpad::ElfClass32>::~FileIDTest_BuildID_Test
FUNC 2d9b4 12 0 FileIDTest_BuildID_Test<google_breakpad::ElfClass32>::~FileIDTest_BuildID_Test
FUNC 2d9c8 1c 0 FileIDTest_BuildIDPH_Test<google_breakpad::ElfClass32>::~FileIDTest_BuildIDPH_Test
FUNC 2d9e4 12 0 FileIDTest_BuildIDPH_Test<google_breakpad::ElfClass32>::~FileIDTest_BuildIDPH_Test
FUNC 2d9f8 1c 0 FileIDTest_UniqueHashes_Test<google_breakpad::ElfClass32>::~FileIDTest_UniqueHashes_Test
FUNC 2da14 12 0 FileIDTest_UniqueHashes_Test<google_breakpad::ElfClass32>::~FileIDTest_UniqueHashes_Test
FUNC 2da28 180 0 testing::internal::CmpHelperOpFailure<unsigned int, unsigned int>
FUNC 2dba8 178 0 FileIDTest<google_breakpad::ElfClass32>::GetElfContents
FUNC 2dba8 178 0 FileIDTest<google_breakpad::ElfClass64>::GetElfContents
FUNC 2dd20 1c4 0 FileIDTest_ElfClass_Test<google_breakpad::ElfClass32>::TestBody
FUNC 2dee4 274 0 FileIDTest_BuildID_Test<google_breakpad::ElfClass32>::TestBody
FUNC 2e158 2a8 0 FileIDTest_BuildIDPH_Test<google_breakpad::ElfClass32>::TestBody
FUNC 2e400 390 0 FileIDTest_UniqueHashes_Test<google_breakpad::ElfClass32>::TestBody
FUNC 2e790 1c4 0 FileIDTest_ElfClass_Test<google_breakpad::ElfClass64>::TestBody
FUNC 2e954 274 0 FileIDTest_BuildID_Test<google_breakpad::ElfClass64>::TestBody
FUNC 2ebc8 2a8 0 FileIDTest_BuildIDPH_Test<google_breakpad::ElfClass64>::TestBody
FUNC 2ee70 390 0 FileIDTest_UniqueHashes_Test<google_breakpad::ElfClass64>::TestBody
FUNC 2f200 18 0 LinuxLibcSupportTest_read_decimal_ptr_Test::~LinuxLibcSupportTest_read_decimal_ptr_Test
FUNC 2f218 12 0 LinuxLibcSupportTest_read_decimal_ptr_Test::~LinuxLibcSupportTest_read_decimal_ptr_Test
FUNC 2f22c 18 0 LinuxLibcSupportTest_read_hex_ptr_Test::~LinuxLibcSupportTest_read_hex_ptr_Test
FUNC 2f244 12 0 LinuxLibcSupportTest_read_hex_ptr_Test::~LinuxLibcSupportTest_read_hex_ptr_Test
FUNC 2f258 18 0 LinuxLibcSupportTest_memchr_Test::~LinuxLibcSupportTest_memchr_Test
FUNC 2f270 12 0 LinuxLibcSupportTest_memchr_Test::~LinuxLibcSupportTest_memchr_Test
FUNC 2f284 18 0 LinuxLibcSupportTest_strrchr_Test::~LinuxLibcSupportTest_strrchr_Test
FUNC 2f29c 12 0 LinuxLibcSupportTest_strrchr_Test::~LinuxLibcSupportTest_strrchr_Test
FUNC 2f2b0 18 0 LinuxLibcSupportTest_strchr_Test::~LinuxLibcSupportTest_strchr_Test
FUNC 2f2c8 12 0 LinuxLibcSupportTest_strchr_Test::~LinuxLibcSupportTest_strchr_Test
FUNC 2f2dc 18 0 LinuxLibcSupportTest_uitos_Test::~LinuxLibcSupportTest_uitos_Test
FUNC 2f2f4 12 0 LinuxLibcSupportTest_uitos_Test::~LinuxLibcSupportTest_uitos_Test
FUNC 2f308 18 0 LinuxLibcSupportTest_uint_len_Test::~LinuxLibcSupportTest_uint_len_Test
FUNC 2f320 12 0 LinuxLibcSupportTest_uint_len_Test::~LinuxLibcSupportTest_uint_len_Test
FUNC 2f334 18 0 LinuxLibcSupportTest_strtoui_Test::~LinuxLibcSupportTest_strtoui_Test
FUNC 2f34c 12 0 LinuxLibcSupportTest_strtoui_Test::~LinuxLibcSupportTest_strtoui_Test
FUNC 2f360 18 0 LinuxLibcSupportTest_strcmp_Test::~LinuxLibcSupportTest_strcmp_Test
FUNC 2f378 12 0 LinuxLibcSupportTest_strcmp_Test::~LinuxLibcSupportTest_strcmp_Test
FUNC 2f38c 18 0 LinuxLibcSupportTest_strlen_Test::~LinuxLibcSupportTest_strlen_Test
FUNC 2f3a4 12 0 LinuxLibcSupportTest_strlen_Test::~LinuxLibcSupportTest_strlen_Test
FUNC 2f3b8 20 0 testing::internal::TestFactoryImpl<LinuxLibcSupportTest_read_decimal_ptr_Test>::CreateTest
FUNC 2f3d8 20 0 testing::internal::TestFactoryImpl<LinuxLibcSupportTest_read_hex_ptr_Test>::CreateTest
FUNC 2f3f8 20 0 testing::internal::TestFactoryImpl<LinuxLibcSupportTest_memchr_Test>::CreateTest
FUNC 2f418 20 0 testing::internal::TestFactoryImpl<LinuxLibcSupportTest_strrchr_Test>::CreateTest
FUNC 2f438 20 0 testing::internal::TestFactoryImpl<LinuxLibcSupportTest_strchr_Test>::CreateTest
FUNC 2f458 20 0 testing::internal::TestFactoryImpl<LinuxLibcSupportTest_uitos_Test>::CreateTest
FUNC 2f478 20 0 testing::internal::TestFactoryImpl<LinuxLibcSupportTest_uint_len_Test>::CreateTest
FUNC 2f498 20 0 testing::internal::TestFactoryImpl<LinuxLibcSupportTest_strtoui_Test>::CreateTest
FUNC 2f4b8 20 0 testing::internal::TestFactoryImpl<LinuxLibcSupportTest_strcmp_Test>::CreateTest
FUNC 2f4d8 20 0 testing::internal::TestFactoryImpl<LinuxLibcSupportTest_strlen_Test>::CreateTest
FUNC 2f4f8 a4 0 LinuxLibcSupportTest_strlen_Test::TestBody
FUNC 2f59c 328 0 LinuxLibcSupportTest_uint_len_Test::TestBody
FUNC 2f8c4 c4 0 LinuxLibcSupportTest_strcmp_Test::TestBody
FUNC 2f988 558 0 LinuxLibcSupportTest_strtoui_Test::TestBody
FUNC 2fee0 280 0 LinuxLibcSupportTest_uitos_Test::TestBody
FUNC 30160 7c 0 testing::internal::CmpHelperEQ<char const*, char const*>
FUNC 301dc 338 0 LinuxLibcSupportTest_strrchr_Test::TestBody
FUNC 30514 380 0 LinuxLibcSupportTest_strchr_Test::TestBody
FUNC 30894 64 0 testing::internal::CmpHelperEQFailure<void*, void*>
FUNC 308f8 74 0 testing::internal::CmpHelperEQ<char [10], void*>
FUNC 3096c 78 0 testing::internal::CmpHelperEQ<char const*, void*>
FUNC 309e4 290 0 LinuxLibcSupportTest_memchr_Test::TestBody
FUNC 30c74 48 0 testing::PrintToString<char>
FUNC 30cbc 74 0 testing::internal::CmpHelperEQ<char, int>
FUNC 30d30 30c 0 LinuxLibcSupportTest_read_hex_ptr_Test::TestBody
FUNC 3103c 26c 0 LinuxLibcSupportTest_read_decimal_ptr_Test::TestBody
FUNC 312a8 2e 0 google_breakpad::test_assembler::Section::Mark
FUNC 312d6 3e 0 google_breakpad::synth_elf::ELF::AppendSection
FUNC 31314 d6 0 google_breakpad::synth_elf::ELF::AddSegment
FUNC 313ec 24 0 google_breakpad::synth_elf::ELF::ElfSection::~ElfSection
FUNC 31410 12 0 google_breakpad::synth_elf::ELF::ElfSection::~ElfSection
FUNC 31424 1c 0 google_breakpad::synth_elf::SymbolTable::~SymbolTable
FUNC 31440 12 0 google_breakpad::synth_elf::SymbolTable::~SymbolTable
FUNC 31452 70 0 google_breakpad::synth_elf::Notes::AddNote
FUNC 314c4 a8 0 std::priv::_Impl_vector<google_breakpad::test_assembler::Section::Reference, std::allocator<google_breakpad::test_assembler::Section::Reference> >::_Impl_vector
FUNC 3156c 34 0 std::priv::_Rb_tree<std::basic_string<char, std::char_traits<char>, std::allocator<char> >, std::less<std::basic_string<char, std::char_traits<char>, std::allocator<char> > >, std::pair<const std::basic_string<char, std::char_traits<char>, std::allocator<char> >, google_breakpad::test_assembler::Label>, std::priv::_Select1st<std::pair<const std::basic_string<char, std::char_traits<char>, std::allocator<char> >, google_breakpad::test_assembler::Label> >, std::priv::_MapTraitsT<std::pair<const std::basic_string<char, std::char_traits<char>, std::allocator<char> >, google_breakpad::test_assembler::Label> >, std::allocator<std::pair<const std::basic_string<char, std::char_traits<char>, std::allocator<char> >, google_breakpad::test_assembler::Label> > >::_M_create_node
FUNC 315a0 24 0 google_breakpad::synth_elf::SymbolTable::SymbolTable
FUNC 315c4 68 0 google_breakpad::synth_elf::ELF::ElfSection::ElfSection
FUNC 3162c 170 0 std::priv::_Impl_vector<google_breakpad::synth_elf::ELF::ElfSection, std::allocator<google_breakpad::synth_elf::ELF::ElfSection> >::_M_insert_overflow_aux
FUNC 3179c 2e 0 std::priv::_Rb_global<bool>::_M_decrement
FUNC 317ca 6e 0 std::priv::_Rb_tree<std::basic_string<char, std::char_traits<char>, std::allocator<char> >, std::less<std::basic_string<char, std::char_traits<char>, std::allocator<char> > >, std::pair<const std::basic_string<char, std::char_traits<char>, std::allocator<char> >, google_breakpad::test_assembler::Label>, std::priv::_Select1st<std::pair<const std::basic_string<char, std::char_traits<char>, std::allocator<char> >, google_breakpad::test_assembler::Label> >, std::priv::_MapTraitsT<std::pair<const std::basic_string<char, std::char_traits<char>, std::allocator<char> >, google_breakpad::test_assembler::Label> >, std::allocator<std::pair<const std::basic_string<char, std::char_traits<char>, std::allocator<char> >, google_breakpad::test_assembler::Label> > >::_M_insert
FUNC 31838 78 0 std::priv::_Rb_tree<std::basic_string<char, std::char_traits<char>, std::allocator<char> >, std::less<std::basic_string<char, std::char_traits<char>, std::allocator<char> > >, std::pair<const std::basic_string<char, std::char_traits<char>, std::allocator<char> >, google_breakpad::test_assembler::Label>, std::priv::_Select1st<std::pair<const std::basic_string<char, std::char_traits<char>, std::allocator<char> >, google_breakpad::test_assembler::Label> >, std::priv::_MapTraitsT<std::pair<const std::basic_string<char, std::char_traits<char>, std::allocator<char> >, google_breakpad::test_assembler::Label> >, std::allocator<std::pair<const std::basic_string<char, std::char_traits<char>, std::allocator<char> >, google_breakpad::test_assembler::Label> > >::insert_unique
FUNC 318b0 174 0 std::priv::_Rb_tree<std::basic_string<char, std::char_traits<char>, std::allocator<char> >, std::less<std::basic_string<char, std::char_traits<char>, std::allocator<char> > >, std::pair<const std::basic_string<char, std::char_traits<char>, std::allocator<char> >, google_breakpad::test_assembler::Label>, std::priv::_Select1st<std::pair<const std::basic_string<char, std::char_traits<char>, std::allocator<char> >, google_breakpad::test_assembler::Label> >, std::priv::_MapTraitsT<std::pair<const std::basic_string<char, std::char_traits<char>, std::allocator<char> >, google_breakpad::test_assembler::Label> >, std::allocator<std::pair<const std::basic_string<char, std::char_traits<char>, std::allocator<char> >, google_breakpad::test_assembler::Label> > >::insert_unique
FUNC 31a24 ac 0 std::map<std::basic_string<char, std::char_traits<char>, std::allocator<char> >, google_breakpad::test_assembler::Label, std::less<std::basic_string<char, std::char_traits<char>, std::allocator<char> > >, std::allocator<std::pair<const std::basic_string<char, std::char_traits<char>, std::allocator<char> >, google_breakpad::test_assembler::Label> > >::operator[]<std::basic_string<char, std::char_traits<char>, std::allocator<char> > >
FUNC 31ad0 a4 0 google_breakpad::synth_elf::StringTable::Add
FUNC 31b74 58 0 google_breakpad::synth_elf::SymbolTable::AddSymbol
FUNC 31bcc 5c 0 google_breakpad::synth_elf::SymbolTable::AddSymbol
FUNC 31c28 18c 0 google_breakpad::synth_elf::ELF::AddSection
FUNC 31db4 dc 0 google_breakpad::synth_elf::ELF::Finish
FUNC 31e90 30c 0 google_breakpad::synth_elf::ELF::ELF
FUNC 3219c 40 0 pthread_barrier_wait
FUNC 321dc 3c 0 thread_function
FUNC 32218 5c 0 google_breakpad::CrashGenerator::HasDefaultCorePattern
FUNC 32274 8 0 google_breakpad::CrashGenerator::GetThreadId
FUNC 3227c 8 0 google_breakpad::CrashGenerator::GetThreadIdPointer
FUNC 32284 2c 0 google_breakpad::CrashGenerator::UnmapSharedMemory
FUNC 322b0 54 0 google_breakpad::CrashGenerator::MapSharedMemory
FUNC 32304 2c 0 google_breakpad::CrashGenerator::SetCoreFileSizeLimit
FUNC 32330 b4 0 google_breakpad::CrashGenerator::CopyProcFiles
FUNC 323e4 114 0 google_breakpad::CrashGenerator::CreateThreadsInChildProcess
FUNC 324f8 22 0 testing::internal::scoped_ptr<std::basic_stringstream<char, std::char_traits<char>, std::allocator<char> > >::reset
FUNC 3251a 12 0 google_breakpad::CrashGenerator::CrashGenerator
FUNC 3252c 1a 0 google_breakpad::CrashGenerator::~CrashGenerator
FUNC 32548 14 0 google_breakpad::CrashGenerator::GetCoreFilePath
FUNC 3255c 14 0 google_breakpad::CrashGenerator::GetDirectoryOfProcFilesCopy
FUNC 32570 1c4 0 google_breakpad::CrashGenerator::CreateChildCrash
FUNC 32734 18 0 WastefulVectorTest_UsesPageAllocator_Test::~WastefulVectorTest_UsesPageAllocator_Test
FUNC 3274c 12 0 WastefulVectorTest_UsesPageAllocator_Test::~WastefulVectorTest_UsesPageAllocator_Test
FUNC 32760 18 0 WastefulVectorTest_Simple_Test::~WastefulVectorTest_Simple_Test
FUNC 32778 12 0 WastefulVectorTest_Simple_Test::~WastefulVectorTest_Simple_Test
FUNC 3278c 18 0 WastefulVectorTest_Setup_Test::~WastefulVectorTest_Setup_Test
FUNC 327a4 12 0 WastefulVectorTest_Setup_Test::~WastefulVectorTest_Setup_Test
FUNC 327b8 18 0 PageAllocatorTest_LargeObject_Test::~PageAllocatorTest_LargeObject_Test
FUNC 327d0 12 0 PageAllocatorTest_LargeObject_Test::~PageAllocatorTest_LargeObject_Test
FUNC 327e4 18 0 PageAllocatorTest_SmallObjects_Test::~PageAllocatorTest_SmallObjects_Test
FUNC 327fc 12 0 PageAllocatorTest_SmallObjects_Test::~PageAllocatorTest_SmallObjects_Test
FUNC 32810 18 0 PageAllocatorTest_Setup_Test::~PageAllocatorTest_Setup_Test
FUNC 32828 12 0 PageAllocatorTest_Setup_Test::~PageAllocatorTest_Setup_Test
FUNC 3283c 20 0 testing::internal::TestFactoryImpl<WastefulVectorTest_UsesPageAllocator_Test>::CreateTest
FUNC 3285c 20 0 testing::internal::TestFactoryImpl<WastefulVectorTest_Simple_Test>::CreateTest
FUNC 3287c 20 0 testing::internal::TestFactoryImpl<WastefulVectorTest_Setup_Test>::CreateTest
FUNC 3289c 20 0 testing::internal::TestFactoryImpl<PageAllocatorTest_LargeObject_Test>::CreateTest
FUNC 328bc 20 0 testing::internal::TestFactoryImpl<PageAllocatorTest_SmallObjects_Test>::CreateTest
FUNC 328dc 20 0 testing::internal::TestFactoryImpl<PageAllocatorTest_Setup_Test>::CreateTest
FUNC 328fc a2 0 google_breakpad::PageAllocator::Alloc
FUNC 3299e 30 0 google_breakpad::PageAllocator::FreeAll
FUNC 329d0 24 0 PageAllocatorTest_Setup_Test::TestBody
FUNC 329f4 e8 0 PageAllocatorTest_SmallObjects_Test::TestBody
FUNC 32adc 13c 0 PageAllocatorTest_LargeObject_Test::TestBody
FUNC 32c18 72 0 std::priv::_Impl_vector<unsigned int, google_breakpad::PageStdAllocator<unsigned int> >::push_back
FUNC 32c8c 2c 0 testing::internal::DefaultPrintTo<unsigned int>
FUNC 32cb8 ac 0 WastefulVectorTest_Setup_Test::TestBody
FUNC 32d64 5c 0 std::priv::_Impl_vector<unsigned int, google_breakpad::PageStdAllocator<unsigned int> >::reserve
FUNC 32dc0 32c 0 WastefulVectorTest_Simple_Test::TestBody
FUNC 330ec fc 0 WastefulVectorTest_UsesPageAllocator_Test::TestBody
FUNC 331e8 18 0 google_breakpad::NonAllocatingMapTest_OutOfSpace_Test::~NonAllocatingMapTest_OutOfSpace_Test
FUNC 33200 12 0 google_breakpad::NonAllocatingMapTest_OutOfSpace_Test::~NonAllocatingMapTest_OutOfSpace_Test
FUNC 33214 18 0 google_breakpad::NonAllocatingMapTest_Serialize_Test::~NonAllocatingMapTest_Serialize_Test
FUNC 3322c 12 0 google_breakpad::NonAllocatingMapTest_Serialize_Test::~NonAllocatingMapTest_Serialize_Test
FUNC 33240 18 0 google_breakpad::NonAllocatingMapTest_AddRemove_Test::~NonAllocatingMapTest_AddRemove_Test
FUNC 33258 12 0 google_breakpad::NonAllocatingMapTest_AddRemove_Test::~NonAllocatingMapTest_AddRemove_Test
FUNC 3326c 18 0 google_breakpad::NonAllocatingMapTest_Iterator_Test::~NonAllocatingMapTest_Iterator_Test
FUNC 33284 12 0 google_breakpad::NonAllocatingMapTest_Iterator_Test::~NonAllocatingMapTest_Iterator_Test
FUNC 33298 18 0 google_breakpad::NonAllocatingMapTest_CopyAndAssign_Test::~NonAllocatingMapTest_CopyAndAssign_Test
FUNC 332b0 12 0 google_breakpad::NonAllocatingMapTest_CopyAndAssign_Test::~NonAllocatingMapTest_CopyAndAssign_Test
FUNC 332c4 18 0 google_breakpad::NonAllocatingMapTest_SimpleStringDictionary_Test::~NonAllocatingMapTest_SimpleStringDictionary_Test
FUNC 332dc 12 0 google_breakpad::NonAllocatingMapTest_SimpleStringDictionary_Test::~NonAllocatingMapTest_SimpleStringDictionary_Test
FUNC 332f0 18 0 google_breakpad::NonAllocatingMapTest_Entry_Test::~NonAllocatingMapTest_Entry_Test
FUNC 33308 12 0 google_breakpad::NonAllocatingMapTest_Entry_Test::~NonAllocatingMapTest_Entry_Test
FUNC 3331a 66 0 google_breakpad::NonAllocatingMap<3u, 2u, 2u>::SetKeyValue
FUNC 33380 5e 0 google_breakpad::NonAllocatingMap<5u, 9u, 15u>::SetKeyValue
FUNC 333e0 20 0 testing::internal::TestFactoryImpl<google_breakpad::NonAllocatingMapTest_OutOfSpace_Test>::CreateTest
FUNC 33400 20 0 testing::internal::TestFactoryImpl<google_breakpad::NonAllocatingMapTest_Serialize_Test>::CreateTest
FUNC 33420 20 0 testing::internal::TestFactoryImpl<google_breakpad::NonAllocatingMapTest_AddRemove_Test>::CreateTest
FUNC 33440 20 0 testing::internal::TestFactoryImpl<google_breakpad::NonAllocatingMapTest_Iterator_Test>::CreateTest
FUNC 33460 20 0 testing::internal::TestFactoryImpl<google_breakpad::NonAllocatingMapTest_CopyAndAssign_Test>::CreateTest
FUNC 33480 20 0 testing::internal::TestFactoryImpl<google_breakpad::NonAllocatingMapTest_SimpleStringDictionary_Test>::CreateTest
FUNC 334a0 20 0 testing::internal::TestFactoryImpl<google_breakpad::NonAllocatingMapTest_Entry_Test>::CreateTest
FUNC 334c0 16 0 google_breakpad::NonAllocatingMap<5u, 7u, 6u>::GetCount
FUNC 334d6 2a 0 google_breakpad::NonAllocatingMap<256u, 256u, 64u>::GetConstEntryForKey
FUNC 33500 14 0 google_breakpad::NonAllocatingMap<256u, 256u, 64u>::RemoveKey
FUNC 33514 6e 0 google_breakpad::NonAllocatingMap<256u, 256u, 64u>::SetKeyValue
FUNC 33582 24 0 google_breakpad::NonAllocatingMap<10u, 10u, 10u>::GetConstEntryForKey
FUNC 335a6 12 0 google_breakpad::NonAllocatingMap<10u, 10u, 10u>::RemoveKey
FUNC 335b8 6a 0 google_breakpad::NonAllocatingMap<10u, 10u, 10u>::SetKeyValue
FUNC 33622 12 0 google_breakpad::NonAllocatingMap<10u, 10u, 10u>::GetValueForKey
FUNC 33634 24 0 google_breakpad::NonAllocatingMap<5u, 7u, 6u>::GetConstEntryForKey
FUNC 33658 12 0 google_breakpad::NonAllocatingMap<5u, 7u, 6u>::RemoveKey
FUNC 3366a 68 0 google_breakpad::NonAllocatingMap<5u, 7u, 6u>::SetKeyValue
FUNC 336d2 24 0 google_breakpad::NonAllocatingMap<4u, 5u, 7u>::GetConstEntryForKey
FUNC 336f6 50 0 google_breakpad::NonAllocatingMap<4u, 5u, 7u>::SetKeyValue
FUNC 33748 49c 0 google_breakpad::NonAllocatingMapTest_Entry_Test::TestBody
FUNC 33be4 7a0 0 google_breakpad::NonAllocatingMapTest_CopyAndAssign_Test::TestBody
FUNC 34384 544 0 google_breakpad::NonAllocatingMapTest_AddRemove_Test::TestBody
FUNC 348c8 498 0 google_breakpad::NonAllocatingMapTest_Serialize_Test::TestBody
FUNC 34d60 1a4 0 google_breakpad::NonAllocatingMapTest_OutOfSpace_Test::TestBody
FUNC 34f04 104 0 testing::internal::CmpHelperNE<char const*, char [7]>
FUNC 35008 478 0 google_breakpad::NonAllocatingMapTest_SimpleStringDictionary_Test::TestBody
FUNC 35480 4a8 0 google_breakpad::NonAllocatingMapTest_Iterator_Test::TestBody
FUNC 35928 20 0 google_breakpad::test_assembler::Label::Label
FUNC 35948 20 0 google_breakpad::test_assembler::Label::Label
FUNC 35968 c 0 google_breakpad::test_assembler::Label::Label
FUNC 35974 14 0 google_breakpad::test_assembler::Label::Binding::Binding
FUNC 35988 10 0 google_breakpad::test_assembler::Label::Binding::Binding
FUNC 35998 28 0 google_breakpad::test_assembler::Label::Binding::~Binding
FUNC 359c0 22 0 google_breakpad::test_assembler::Label::~Label
FUNC 359e2 66 0 google_breakpad::test_assembler::Label::Binding::Get
FUNC 35a48 28 0 google_breakpad::test_assembler::Label::IsKnownConstant
FUNC 35a70 1a 0 google_breakpad::test_assembler::Label::Value
FUNC 35a8a 44 0 google_breakpad::test_assembler::Label::IsKnownOffsetFrom
FUNC 35ace 12 0 google_breakpad::test_assembler::Label::operator-
FUNC 35ae0 80 0 google_breakpad::test_assembler::Label::Binding::Set
FUNC 35b60 10 0 google_breakpad::test_assembler::Label::operator=
FUNC 35b70 14 0 google_breakpad::test_assembler::Label::operator=
FUNC 35b84 1e 0 google_breakpad::test_assembler::Label::operator+
FUNC 35ba2 20 0 google_breakpad::test_assembler::Label::operator-
FUNC 35bc2 20 0 google_breakpad::test_assembler::Section::Align
FUNC 35be2 44 0 google_breakpad::test_assembler::Section::LEB128
FUNC 35c26 3a 0 google_breakpad::test_assembler::Section::ULEB128
FUNC 35c60 5a 0 google_breakpad::test_assembler::InsertEndian<std::back_insert_iterator<std::basic_string<char, std::char_traits<char>, std::allocator<char> > > >
FUNC 35cba 1c 0 google_breakpad::test_assembler::Section::Append
FUNC 35cd6 1a 0 google_breakpad::test_assembler::Section::L16
FUNC 35cf0 1c 0 google_breakpad::test_assembler::Section::L32
FUNC 35d0c 18 0 google_breakpad::test_assembler::Section::L64
FUNC 35d24 1a 0 google_breakpad::test_assembler::Section::B16
FUNC 35d3e 1c 0 google_breakpad::test_assembler::Section::B32
FUNC 35d5a 18 0 google_breakpad::test_assembler::Section::B64
FUNC 35d72 1a 0 google_breakpad::test_assembler::Section::D16
FUNC 35d8c 1c 0 google_breakpad::test_assembler::Section::D32
FUNC 35da8 18 0 google_breakpad::test_assembler::Section::D64
FUNC 35dc0 20 0 std::priv::_Impl_vector<google_breakpad::test_assembler::Section::Reference, std::allocator<google_breakpad::test_assembler::Section::Reference> >::clear
FUNC 35de0 1a 0 google_breakpad::test_assembler::Section::Clear
FUNC 35dfc b4 0 std::priv::_String_base<char, std::allocator<char> >::_M_swap
FUNC 35eb0 ec 0 google_breakpad::test_assembler::Section::GetContents
FUNC 35f9c 1bc 0 std::priv::_Impl_vector<google_breakpad::test_assembler::Section::Reference, std::allocator<google_breakpad::test_assembler::Section::Reference> >::_M_insert_overflow_aux
FUNC 36158 42 0 std::priv::_Impl_vector<google_breakpad::test_assembler::Section::Reference, std::allocator<google_breakpad::test_assembler::Section::Reference> >::push_back
FUNC 3619a 6a 0 google_breakpad::test_assembler::Section::Append
FUNC 36204 a 0 google_breakpad::test_assembler::Section::L8
FUNC 3620e a 0 google_breakpad::test_assembler::Section::B8
FUNC 36218 a 0 google_breakpad::test_assembler::Section::L16
FUNC 36222 a 0 google_breakpad::test_assembler::Section::L32
FUNC 3622c a 0 google_breakpad::test_assembler::Section::L64
FUNC 36236 a 0 google_breakpad::test_assembler::Section::B16
FUNC 36240 a 0 google_breakpad::test_assembler::Section::B32
FUNC 3624a a 0 google_breakpad::test_assembler::Section::B64
FUNC 36254 a 0 google_breakpad::test_assembler::Section::D8
FUNC 3625e a 0 google_breakpad::test_assembler::Section::D16
FUNC 36268 a 0 google_breakpad::test_assembler::Section::D32
FUNC 36272 a 0 google_breakpad::test_assembler::Section::D64
FUNC 3627c 130 0 google_breakpad::test_assembler::Section::Append
FUNC 363ac 158 0 google_breakpad::CopyFile
FUNC 36504 9c 0 google_breakpad::ReadFile
FUNC 365a0 a0 0 google_breakpad::WriteFile
FUNC 36640 18 0 MinidumpMemoryRangeTest_GetAsciiMDString_Test::~MinidumpMemoryRangeTest_GetAsciiMDString_Test
FUNC 36658 12 0 MinidumpMemoryRangeTest_GetAsciiMDString_Test::~MinidumpMemoryRangeTest_GetAsciiMDString_Test
FUNC 3666c 18 0 MinidumpMemoryRangeTest_GetArrayElmentWithTemplateType_Test::~MinidumpMemoryRangeTest_GetArrayElmentWithTemplateType_Test
FUNC 36684 12 0 MinidumpMemoryRangeTest_GetArrayElmentWithTemplateType_Test::~MinidumpMemoryRangeTest_GetArrayElmentWithTemplateType_Test
FUNC 36698 18 0 MinidumpMemoryRangeTest_GetArrayElement_Test::~MinidumpMemoryRangeTest_GetArrayElement_Test
FUNC 366b0 12 0 MinidumpMemoryRangeTest_GetArrayElement_Test::~MinidumpMemoryRangeTest_GetArrayElement_Test
FUNC 366c4 18 0 MinidumpMemoryRangeTest_GetDataWithTemplateType_Test::~MinidumpMemoryRangeTest_GetDataWithTemplateType_Test
FUNC 366dc 12 0 MinidumpMemoryRangeTest_GetDataWithTemplateType_Test::~MinidumpMemoryRangeTest_GetDataWithTemplateType_Test
FUNC 366f0 18 0 MinidumpMemoryRangeTest_SubrangeWithMDLocationDescriptor_Test::~MinidumpMemoryRangeTest_SubrangeWithMDLocationDescriptor_Test
FUNC 36708 12 0 MinidumpMemoryRangeTest_SubrangeWithMDLocationDescriptor_Test::~MinidumpMemoryRangeTest_SubrangeWithMDLocationDescriptor_Test
FUNC 3671c 18 0 MinidumpMemoryRangeTest_SubrangeAndGetData_Test::~MinidumpMemoryRangeTest_SubrangeAndGetData_Test
FUNC 36734 12 0 MinidumpMemoryRangeTest_SubrangeAndGetData_Test::~MinidumpMemoryRangeTest_SubrangeAndGetData_Test
FUNC 36748 18 0 MinidumpMemoryRangeTest_SubrangeOfEmptyMemoryRange_Test::~MinidumpMemoryRangeTest_SubrangeOfEmptyMemoryRange_Test
FUNC 36760 12 0 MinidumpMemoryRangeTest_SubrangeOfEmptyMemoryRange_Test::~MinidumpMemoryRangeTest_SubrangeOfEmptyMemoryRange_Test
FUNC 36774 18 0 MinidumpMemoryRangeTest_Set_Test::~MinidumpMemoryRangeTest_Set_Test
FUNC 3678c 12 0 MinidumpMemoryRangeTest_Set_Test::~MinidumpMemoryRangeTest_Set_Test
FUNC 367a0 18 0 MinidumpMemoryRangeTest_Reset_Test::~MinidumpMemoryRangeTest_Reset_Test
FUNC 367b8 12 0 MinidumpMemoryRangeTest_Reset_Test::~MinidumpMemoryRangeTest_Reset_Test
FUNC 367cc 18 0 MinidumpMemoryRangeTest_ConstructorWithDataAndLength_Test::~MinidumpMemoryRangeTest_ConstructorWithDataAndLength_Test
FUNC 367e4 12 0 MinidumpMemoryRangeTest_ConstructorWithDataAndLength_Test::~MinidumpMemoryRangeTest_ConstructorWithDataAndLength_Test
FUNC 367f8 18 0 MinidumpMemoryRangeTest_DefaultConstructor_Test::~MinidumpMemoryRangeTest_DefaultConstructor_Test
FUNC 36810 12 0 MinidumpMemoryRangeTest_DefaultConstructor_Test::~MinidumpMemoryRangeTest_DefaultConstructor_Test
FUNC 36824 20 0 testing::internal::TestFactoryImpl<MinidumpMemoryRangeTest_GetAsciiMDString_Test>::CreateTest
FUNC 36844 20 0 testing::internal::TestFactoryImpl<MinidumpMemoryRangeTest_GetArrayElmentWithTemplateType_Test>::CreateTest
FUNC 36864 20 0 testing::internal::TestFactoryImpl<MinidumpMemoryRangeTest_GetArrayElement_Test>::CreateTest
FUNC 36884 20 0 testing::internal::TestFactoryImpl<MinidumpMemoryRangeTest_GetDataWithTemplateType_Test>::CreateTest
FUNC 368a4 20 0 testing::internal::TestFactoryImpl<MinidumpMemoryRangeTest_SubrangeWithMDLocationDescriptor_Test>::CreateTest
FUNC 368c4 20 0 testing::internal::TestFactoryImpl<MinidumpMemoryRangeTest_SubrangeAndGetData_Test>::CreateTest
FUNC 368e4 20 0 testing::internal::TestFactoryImpl<MinidumpMemoryRangeTest_SubrangeOfEmptyMemoryRange_Test>::CreateTest
FUNC 36904 20 0 testing::internal::TestFactoryImpl<MinidumpMemoryRangeTest_Set_Test>::CreateTest
FUNC 36924 20 0 testing::internal::TestFactoryImpl<MinidumpMemoryRangeTest_Reset_Test>::CreateTest
FUNC 36944 20 0 testing::internal::TestFactoryImpl<MinidumpMemoryRangeTest_ConstructorWithDataAndLength_Test>::CreateTest
FUNC 36964 20 0 testing::internal::TestFactoryImpl<MinidumpMemoryRangeTest_DefaultConstructor_Test>::CreateTest
FUNC 36984 18 0 google_breakpad::MemoryRange::GetData
FUNC 3699c 26 0 google_breakpad::MemoryRange::Subrange
FUNC 3699c 26 0 google_breakpad::MinidumpMemoryRange::Subrange
FUNC 369c2 44 0 google_breakpad::MinidumpMemoryRange::GetAsciiMDString
FUNC 36a08 98 0 testing::PrintToString<char const*>
FUNC 36aa0 2c 0 testing::internal::DefaultPrintTo<int const>
FUNC 36aa0 2c 0 testing::internal::DefaultPrintTo<void const>
FUNC 36acc c8 0 testing::operator<<
FUNC 36b94 a0 0 testing::internal::CmpHelperEQFailure<int const*, int const*>
FUNC 36c34 28 0 std::operator==<char, std::char_traits<char>, std::allocator<char> >
FUNC 36c5c 98 0 testing::internal::CmpHelperEQ<char [1], std::basic_string<char, std::char_traits<char>, std::allocator<char> > >
FUNC 36cf4 308 0 MinidumpMemoryRangeTest_GetAsciiMDString_Test::TestBody
FUNC 36ffc 48 0 testing::PrintToString<unsigned char const*>
FUNC 37044 74 0 testing::internal::CmpHelperEQ<unsigned char const*, unsigned char const*>
FUNC 370b8 e0 0 MinidumpMemoryRangeTest_ConstructorWithDataAndLength_Test::TestBody
FUNC 37198 d4 0 MinidumpMemoryRangeTest_DefaultConstructor_Test::TestBody
FUNC 3726c e8 0 MinidumpMemoryRangeTest_SubrangeOfEmptyMemoryRange_Test::TestBody
FUNC 37354 1a0 0 MinidumpMemoryRangeTest_Set_Test::TestBody
FUNC 374f4 264 0 MinidumpMemoryRangeTest_Reset_Test::TestBody
FUNC 37758 74 0 testing::internal::CmpHelperEQ<unsigned char const*, void const*>
FUNC 377cc 74 0 testing::internal::CmpHelperEQ<void const*, void const*>
FUNC 37840 148 0 MinidumpMemoryRangeTest_GetArrayElement_Test::TestBody
FUNC 37988 490 0 MinidumpMemoryRangeTest_SubrangeWithMDLocationDescriptor_Test::TestBody
FUNC 37e18 490 0 MinidumpMemoryRangeTest_SubrangeAndGetData_Test::TestBody
FUNC 382a8 6c 0 testing::internal::CmpHelperEQFailure<char const*, char const*>
FUNC 38314 124 0 MinidumpMemoryRangeTest_GetArrayElmentWithTemplateType_Test::TestBody
FUNC 38438 124 0 MinidumpMemoryRangeTest_GetDataWithTemplateType_Test::TestBody
FUNC 3855c 18 0 AndroidUContext_SigmakOffset_Test::~AndroidUContext_SigmakOffset_Test
FUNC 38574 12 0 AndroidUContext_SigmakOffset_Test::~AndroidUContext_SigmakOffset_Test
FUNC 38588 18 0 AndroidUContext_GRegsOffset_Test::~AndroidUContext_GRegsOffset_Test
FUNC 385a0 12 0 AndroidUContext_GRegsOffset_Test::~AndroidUContext_GRegsOffset_Test
FUNC 385b4 20 0 testing::internal::TestFactoryImpl<AndroidUContext_SigmakOffset_Test>::CreateTest
FUNC 385d4 20 0 testing::internal::TestFactoryImpl<AndroidUContext_GRegsOffset_Test>::CreateTest
FUNC 385f4 60 0 AndroidUContext_GRegsOffset_Test::TestBody
FUNC 38654 60 0 AndroidUContext_SigmakOffset_Test::TestBody
FUNC 386b4 6 0 std::basic_streambuf<char, std::char_traits<char> >::_M_sputnc
FUNC 386ba 20 0 std::basic_streambuf<char, std::char_traits<char> >::sputc
FUNC 386da a6 0 std::basic_ostream<char, std::char_traits<char> >::_M_put_char
FUNC 38780 1bc 0 std::operator+<char, std::char_traits<char>, std::allocator<char> >
FUNC 3893c 194 0 testing::internal::PrintCharAndCodeTo<unsigned char, unsigned char>
FUNC 38ad0 4 0 testing::internal::PrintTo
FUNC 38ad4 11c 0 testing::internal::PrintAsCharLiteralTo<wchar_t, wchar_t>
FUNC 38bf0 bc 0 testing::internal::PrintCharsAsStringTo<char>
FUNC 38cac e 0 testing::internal::PrintStringTo
FUNC 38cba 12 0 testing::internal::HasNewFatalFailureHelper::ReportTestPartResult
FUNC 38ccc 20 0 testing::internal::HasNewFatalFailureHelper::~HasNewFatalFailureHelper
FUNC 38cec 12 0 testing::internal::HasNewFatalFailureHelper::~HasNewFatalFailureHelper
FUNC 38d00 30 0 testing::internal::HasNewFatalFailureHelper::HasNewFatalFailureHelper
FUNC 38d30 58 0 testing::TestPartResult::ExtractSummary
FUNC 38d88 32 0 testing::TestPartResult::TestPartResult
FUNC 38dbc 190 0 std::priv::_Impl_vector<testing::TestPartResult, std::allocator<testing::TestPartResult> >::_M_insert_overflow_aux
FUNC 38f4c 8 0 std::ios_base::precision
FUNC 38f54 8 0 std::ios_base::width
FUNC 38f5c a 0 testing::internal::DeleteThreadLocalValue
FUNC 38f66 a 0 testing::Test::DeleteSelf_
FUNC 38f70 4 0 testing::TestCase::RunSetUpTestCase
FUNC 38f74 4 0 testing::TestCase::RunTearDownTestCase
FUNC 38f78 e 0 testing::TestCase::TestReportableDisabled
FUNC 38f86 6 0 testing::TestCase::TestReportable
FUNC 38f8c 6 0 testing::TestCase::ShouldRunTest
FUNC 38f92 2 0 testing::EmptyTestEventListener::OnTestProgramStart
FUNC 38f94 2 0 testing::EmptyTestEventListener::OnTestIterationStart
FUNC 38f96 2 0 testing::EmptyTestEventListener::OnEnvironmentsSetUpStart
FUNC 38f98 2 0 testing::EmptyTestEventListener::OnEnvironmentsSetUpEnd
FUNC 38f9a 2 0 testing::EmptyTestEventListener::OnTestCaseStart
FUNC 38f9c 2 0 testing::EmptyTestEventListener::OnTestStart
FUNC 38f9e 2 0 testing::EmptyTestEventListener::OnTestPartResult
FUNC 38fa0 2 0 testing::EmptyTestEventListener::OnTestEnd
FUNC 38fa2 2 0 testing::EmptyTestEventListener::OnTestCaseEnd
FUNC 38fa4 2 0 testing::EmptyTestEventListener::OnEnvironmentsTearDownStart
FUNC 38fa6 2 0 testing::EmptyTestEventListener::OnEnvironmentsTearDownEnd
FUNC 38fa8 2 0 testing::EmptyTestEventListener::OnTestProgramEnd
FUNC 38faa 6 0 testing::internal::ShouldRunTestCase
FUNC 38fb0 2 0 testing::internal::OsStackTraceGetter::UponLeavingGTest
FUNC 38fb2 6 0 testing::internal::SetUpEnvironment
FUNC 38fb8 6 0 testing::internal::TearDownEnvironment
FUNC 38fbe a 0 testing::internal::Delete<testing::Environment>
FUNC 38fbe a 0 testing::internal::Delete<testing::TestCase>
FUNC 38fbe a 0 testing::internal::Delete<testing::TestEventListener>
FUNC 38fc8 2c 0 testing::internal::TestEventRepeater::OnTestProgramStart
FUNC 38ff4 2c 0 testing::internal::TestEventRepeater::OnEnvironmentsSetUpStart
FUNC 39020 2c 0 testing::internal::TestEventRepeater::OnTestCaseStart
FUNC 3904c 2c 0 testing::internal::TestEventRepeater::OnTestStart
FUNC 39078 2c 0 testing::internal::TestEventRepeater::OnTestPartResult
FUNC 390a4 2c 0 testing::internal::TestEventRepeater::OnEnvironmentsTearDownStart
FUNC 390d0 2e 0 testing::internal::TestEventRepeater::OnEnvironmentsSetUpEnd
FUNC 390fe 2e 0 testing::internal::TestEventRepeater::OnEnvironmentsTearDownEnd
FUNC 3912c 2e 0 testing::internal::TestEventRepeater::OnTestEnd
FUNC 3915a 2e 0 testing::internal::TestEventRepeater::OnTestCaseEnd
FUNC 39188 2e 0 testing::internal::TestEventRepeater::OnTestProgramEnd
FUNC 391b6 30 0 testing::internal::TestEventRepeater::OnTestIterationStart
FUNC 391e6 36 0 testing::internal::TestEventRepeater::OnTestIterationEnd
FUNC 3921c 44 0 testing::internal::PrintOnOneLine
FUNC 39260 2e 0 testing::internal::SumOverTestCaseList
FUNC 39290 20 0 testing::internal::StreamingListener::~StreamingListener
FUNC 392b0 12 0 testing::internal::StreamingListener::~StreamingListener
FUNC 392c4 34 0 std::allocator<testing::internal::edit_distance::EditType>::_M_allocate
FUNC 392f8 2c 0 std::setprecision
FUNC 39324 54 0 testing::internal::UnitTestOptions::PatternMatchesString
FUNC 39378 24 0 testing::internal::UnitTestOptions::MatchesFilter
FUNC 3939c c 0 testing::internal::GetTestTypeId
FUNC 393a8 24 0 testing::internal::UnitTestImpl::successful_test_count
FUNC 393cc 24 0 testing::internal::UnitTestImpl::failed_test_count
FUNC 393f0 24 0 testing::internal::UnitTestImpl::reportable_disabled_test_count
FUNC 39414 24 0 testing::internal::UnitTestImpl::reportable_test_count
FUNC 39438 24 0 testing::internal::UnitTestImpl::test_to_run_count
FUNC 3945c 24 0 testing::internal::GetTimeInMillis
FUNC 39480 1c 0 testing::internal::String::CStringEquals
FUNC 3949c a 0 testing::AssertionSuccess
FUNC 394a6 8 0 testing::AssertionFailure
FUNC 394ae 1c 0 testing::internal::String::CaseInsensitiveCStringEquals
FUNC 394cc 34 0 testing::TestResult::GetTestPartResult
FUNC 39500 34 0 testing::TestResult::GetTestProperty
FUNC 39534 34 0 testing::TestResult::Failed
FUNC 39568 10 0 testing::TestCase::TestFailed
FUNC 39578 18 0 testing::TestCase::TestPassed
FUNC 39590 20 0 testing::TestResult::HasFatalFailure
FUNC 395b0 20 0 testing::TestResult::HasNonfatalFailure
FUNC 395d0 26 0 testing::internal::UnitTestImpl::RegisterParameterizedTests
FUNC 395f6 18 0 testing::TestCase::UnshuffleTests
FUNC 39610 30 0 testing::internal::GetAnsiColorCode
FUNC 39640 f8 0 testing::internal::ShouldUseColor
FUNC 39738 90 0 testing::internal::ColoredPrintf
FUNC 397c8 30 0 testing::internal::PrettyUnitTestResultPrinter::OnEnvironmentsSetUpStart
FUNC 397f8 3c 0 testing::internal::PrettyUnitTestResultPrinter::OnTestStart
FUNC 39834 30 0 testing::internal::PrettyUnitTestResultPrinter::OnEnvironmentsTearDownStart
FUNC 39864 68 0 testing::internal::PrintFullTestCommentIfPresent
FUNC 398cc 3a 0 testing::internal::TestEventRepeater::Release
FUNC 39908 2c 0 testing::TestEventListeners::TestEventListeners
FUNC 39934 12 0 google_breakpad::scoped_ptr<google_breakpad::MinidumpContext>::~scoped_ptr
FUNC 39934 12 0 testing::TestEventListeners::~TestEventListeners
FUNC 39946 1c 0 testing::TestEventListeners::Release
FUNC 39962 8 0 testing::TestEventListeners::SuppressEventForwarding
FUNC 3996a c 0 testing::UnitTest::total_test_case_count
FUNC 39976 6 0 testing::UnitTest::successful_test_count
FUNC 3997c 6 0 testing::UnitTest::failed_test_count
FUNC 39982 6 0 testing::UnitTest::reportable_disabled_test_count
FUNC 39988 6 0 testing::UnitTest::reportable_test_count
FUNC 3998e 6 0 testing::UnitTest::test_to_run_count
FUNC 39994 6 0 testing::UnitTest::original_working_dir
FUNC 3999a 10 0 testing::internal::UnitTestImpl::SuppressTestEventsIfInSubprocess
FUNC 399aa 1a 0 testing::internal::TestCaseNameIs::operator()
FUNC 399c4 54 0 testing::internal::WriteToShardStatusFileIfNeeded
FUNC 39a18 f0 0 testing::internal::UnitTestImpl::ListTestsMatchingFilter
FUNC 39b08 26 0 testing::internal::UnitTestImpl::UnshuffleTests
FUNC 39b2e 4 0 __cxxabiv1::__si_class_type_info::code() const
FUNC 39b2e 4 0 google_breakpad::LinuxCoreDumper::IsPostMortem
FUNC 39b2e 4 0 google_breakpad::LinuxCoreDumper::ThreadsResume
FUNC 39b2e 4 0 google_breakpad::LinuxCoreDumper::ThreadsSuspend
FUNC 39b2e 4 0 std::codecvt<char, char, mbstate_t>::do_always_noconv() const
FUNC 39b2e 4 0 std::codecvt<char, char, mbstate_t>::do_encoding() const
FUNC 39b2e 4 0 std::codecvt<char, char, mbstate_t>::do_max_length() const
FUNC 39b2e 4 0 std::codecvt<wchar_t, char, mbstate_t>::do_always_noconv() const
FUNC 39b2e 4 0 std::codecvt<wchar_t, char, mbstate_t>::do_encoding() const
FUNC 39b2e 4 0 std::codecvt<wchar_t, char, mbstate_t>::do_max_length() const
FUNC 39b2e 4 0 testing::internal::AlwaysTrue
FUNC 39b32 26 0 testing::internal::SkipPrefix
FUNC 39b58 74 0 testing::internal::HasGoogleTestFlagPrefix
FUNC 39bcc 1c 0 testing::internal::GetElementOr<int>
FUNC 39be8 1c 0 testing::TestCase::GetMutableTestInfo
FUNC 39be8 1c 0 testing::TestCase::GetTestInfo
FUNC 39c04 20 0 testing::UnitTest::GetTestCase
FUNC 39c24 24 0 testing::internal::CountIf<std::vector<testing::TestCase*>, bool (*)(const testing::TestCase*)>
FUNC 39c24 24 0 testing::internal::CountIf<std::vector<testing::TestInfo*>, bool (*)(const testing::TestInfo*)>
FUNC 39c48 10 0 testing::internal::UnitTestImpl::failed_test_case_count
FUNC 39c58 1c 0 testing::internal::UnitTestImpl::Failed
FUNC 39c74 10 0 testing::UnitTest::Passed
FUNC 39c84 10 0 testing::internal::UnitTestImpl::test_case_to_run_count
FUNC 39c94 6 0 testing::UnitTest::test_case_to_run_count
FUNC 39c9a 2a 0 std::operator<< <char, std::char_traits<char>, int>
FUNC 39cc4 14 0 std::priv::_Impl_vector<MDMemoryDescriptor, std::allocator<MDMemoryDescriptor> >::~_Impl_vector
FUNC 39cc4 14 0 std::priv::_Impl_vector<MDRawDirectory, std::allocator<MDRawDirectory> >::~_Impl_vector
FUNC 39cc4 14 0 std::priv::_Impl_vector<testing::internal::edit_distance::EditType, std::allocator<testing::internal::edit_distance::EditType> >::~_Impl_vector
FUNC 39cc4 14 0 std::priv::_Vector_base<double, std::allocator<double> >::~_Vector_base
FUNC 39cc4 14 0 std::priv::_Vector_base<short unsigned int, std::allocator<short unsigned int> >::~_Vector_base
FUNC 39cc4 14 0 std::priv::_Vector_base<unsigned char, std::allocator<unsigned char> >::~_Vector_base
FUNC 39cc4 14 0 std::priv::_Vector_base<unsigned int, std::allocator<unsigned int> >::~_Vector_base
FUNC 39cc4 14 0 std::priv::_Vector_base<void*, std::allocator<void*> >::~_Vector_base
FUNC 39cd8 2a 0 std::operator==<char, std::char_traits<char>, std::allocator<char> >
FUNC 39d04 10 0 testing::TestCase::successful_test_count
FUNC 39d14 10 0 testing::TestCase::failed_test_count
FUNC 39d24 18 0 testing::internal::TestCaseFailed
FUNC 39d3c 98 0 testing::internal::PrettyUnitTestResultPrinter::PrintFailedTests
FUNC 39dd4 10 0 testing::TestCase::reportable_disabled_test_count
FUNC 39de4 10 0 testing::TestCase::reportable_test_count
FUNC 39df4 10 0 testing::TestCase::test_to_run_count
FUNC 39e04 c 0 std::basic_string<char, std::char_traits<char>, std::allocator<char> >::~basic_string
FUNC 39e10 18 0 testing::internal::AssertHelper::~AssertHelper
FUNC 39e28 1c 0 testing::TestPartResult::~TestPartResult
FUNC 39e44 1c 0 testing::internal::XmlUnitTestResultPrinter::~XmlUnitTestResultPrinter
FUNC 39e60 12 0 testing::internal::XmlUnitTestResultPrinter::~XmlUnitTestResultPrinter
FUNC 39e72 2e 0 std::priv::_Impl_vector<std::basic_string<char, std::char_traits<char>, std::allocator<char> >, std::allocator<std::basic_string<char, std::char_traits<char>, std::allocator<char> > > >::~_Impl_vector
FUNC 39ea0 28 0 testing::internal::scoped_ptr<testing::internal::InternalRunDeathTestFlag>::reset
FUNC 39ec8 30 0 testing::internal::TestEventRepeater::~TestEventRepeater
FUNC 39ef8 12 0 testing::internal::TestEventRepeater::~TestEventRepeater
FUNC 39f0a 84 0 std::priv::_Impl_vector<int, std::allocator<int> >::push_back
FUNC 39f0a 84 0 std::priv::_Impl_vector<unsigned int, std::allocator<unsigned int> >::push_back
FUNC 39f90 3c 0 std::basic_string<char, std::char_traits<char>, std::allocator<char> >::reserve
FUNC 39fcc 16 0 std::basic_string<char, std::char_traits<char>, std::allocator<char> >::operator=
FUNC 39fe2 1e 0 std::priv::_Impl_vector<testing::TestPartResult, std::allocator<testing::TestPartResult> >::clear
FUNC 3a000 38 0 testing::TestResult::Clear
FUNC 3a038 22 0 testing::TestCase::ClearResult
FUNC 3a05c 14c 0 testing::Test::~Test
FUNC 3a1a8 a 0 std::basic_string<char, std::char_traits<char>, std::allocator<char> >::append
FUNC 3a1b2 ac 0 std::priv::__find_if<testing::TestCase**, testing::internal::TestCaseNameIs>
FUNC 3a25e 22 0 std::basic_string<char, std::char_traits<char>, std::allocator<char> >::_M_range_initialize
FUNC 3a280 30 0 testing::internal::AssertHelper::AssertHelper
FUNC 3a2b0 18 0 testing::internal::UnitTestImpl::CurrentOsStackTraceExceptTop
FUNC 3a2c8 50 0 testing::internal::XmlUnitTestResultPrinter::XmlUnitTestResultPrinter
FUNC 3a318 18 0 testing::internal::OsStackTraceGetter::CurrentStackTrace
FUNC 3a330 88 0 std::priv::_Impl_vector<std::basic_string<char, std::char_traits<char>, std::allocator<char> >, std::allocator<std::basic_string<char, std::char_traits<char>, std::allocator<char> > > >::_M_range_initialize<char const* const*>
FUNC 3a3b8 12 0 testing::internal::FilePath::FilePath
FUNC 3a3cc 64 0 testing::internal::GetCurrentExecutableName
FUNC 3a430 22 0 testing::AssertionResult::AssertionResult
FUNC 3a452 2c 0 std::priv::_Rb_tree<std::basic_string<char, std::char_traits<char>, std::allocator<char> >, std::less<std::basic_string<char, std::char_traits<char>, std::allocator<char> > >, std::pair<const std::basic_string<char, std::char_traits<char>, std::allocator<char> >, unsigned int>, std::priv::_Select1st<std::pair<const std::basic_string<char, std::char_traits<char>, std::allocator<char> >, unsigned int> >, std::priv::_MapTraitsT<std::pair<const std::basic_string<char, std::char_traits<char>, std::allocator<char> >, unsigned int> >, std::allocator<std::pair<const std::basic_string<char, std::char_traits<char>, std::allocator<char> >, unsigned int> > >::_M_create_node
FUNC 3a480 34 0 std::basic_string<char, std::char_traits<char>, std::allocator<char> >::basic_string
FUNC 3a4b4 44 0 testing::internal::UnitTestOptions::GetOutputFormat
FUNC 3a4f8 44 0 testing::internal::XmlUnitTestResultPrinter::RemoveInvalidXmlCharacters
FUNC 3a53c 80 0 testing::internal::StringStreamToString
FUNC 3a5bc e 0 testing::Message::GetString
FUNC 3a5ca 2e 0 testing::Message::Message
FUNC 3a5f8 160 0 testing::Test::Test
FUNC 3a758 d0 0 testing::internal::PrintColorEncoded
FUNC 3a828 a4 0 testing::internal::String::FormatByte
FUNC 3a8cc e8 0 testing::internal::Random::Generate
FUNC 3a9b4 1c 0 testing::Message::operator<< <char const>
FUNC 3a9d0 5c 0 testing::internal::StreamingListener::SocketWriter::CloseConnection
FUNC 3aa2c 30 0 testing::internal::StreamingListener::SocketWriter::~SocketWriter
FUNC 3aa5c 12 0 testing::internal::StreamingListener::SocketWriter::~SocketWriter
FUNC 3aa70 38 0 testing::internal::StreamableToString<char*>
FUNC 3aaa8 50 0 testing::internal::Int32FromEnvOrDie
FUNC 3aaf8 b0 0 testing::internal::CmpHelperSTRNE
FUNC 3aba8 b0 0 testing::internal::GetBoolAssertionFailureMessage
FUNC 3ac58 4 0 std::basic_ostream<char, std::char_traits<char> >::operator<<
FUNC 3ac5c 64 0 testing::internal::MutexBase::Lock
FUNC 3acc0 64 0 testing::internal::GTestMutexLock::~GTestMutexLock
FUNC 3ad24 1e 0 testing::internal::UnitTestImpl::GetGlobalTestPartResultReporter
FUNC 3ad42 16 0 testing::internal::DefaultPerThreadTestPartResultReporter::ReportTestPartResult
FUNC 3ad58 64 0 testing::internal::Mutex::Mutex
FUNC 3adbc 24 0 testing::TestResult::TestResult
FUNC 3ade0 68 0 testing::TestInfo::TestInfo
FUNC 3ae48 68 0 testing::TestCase::TestCase
FUNC 3aeb0 30 0 testing::internal::UnitTestImpl::os_stack_trace_getter
FUNC 3aee0 5c 0 testing::internal::Mutex::~Mutex
FUNC 3af3c 24 0 testing::UnitTest::~UnitTest
FUNC 3af60 12 0 testing::UnitTest::~UnitTest
FUNC 3af74 1c 0 testing::internal::OsStackTraceGetter::~OsStackTraceGetter
FUNC 3af90 12 0 testing::internal::OsStackTraceGetter::~OsStackTraceGetter
FUNC 3afa2 60 0 testing::TestResult::~TestResult
FUNC 3b002 48 0 testing::TestInfo::~TestInfo
FUNC 3b04a 16 0 testing::internal::Delete<testing::TestInfo>
FUNC 3b060 58 0 testing::TestCase::~TestCase
FUNC 3b0b8 12 0 testing::TestCase::~TestCase
FUNC 3b0cc 80 0 testing::internal::String::FormatIntWidth2
FUNC 3b14c 6c 0 testing::internal::String::FormatHexInt
FUNC 3b1b8 118 0 testing::internal::ThreadLocal<std::vector<testing::internal::TraceInfo, std::allocator<testing::internal::TraceInfo> > >::GetOrCreateValue
FUNC 3b2d0 32 0 testing::UnitTest::PopGTestTrace
FUNC 3b304 150 0 testing::internal::ShuffleRange<int>
FUNC 3b454 58 0 testing::internal::UnitTestImpl::ShuffleTests
FUNC 3b4ac 96 0 std::priv::__put_num<char, std::char_traits<char>, double>
FUNC 3b548 74 0 testing::internal::FormatTimeInMillisAsSeconds
FUNC 3b5c0 94 0 testing::internal::XmlUnitTestResultPrinter::OutputXmlCDataSection
FUNC 3b654 bc 0 testing::internal::StreamingListener::SocketWriter::Send
FUNC 3b710 154 0 testing::internal::StreamingListener::SocketWriter::MakeConnection
FUNC 3b864 5c 0 testing::AssertionResult::operator<< <testing::Message>
FUNC 3b8c0 d4 0 testing::internal::PrettyUnitTestResultPrinter::OnTestPartResult
FUNC 3b994 138 0 testing::internal::XmlUnitTestResultPrinter::EscapeXml
FUNC 3bacc f0 0 testing::internal::XmlUnitTestResultPrinter::TestPropertiesAsXmlAttributes
FUNC 3bbbc 58 0 testing::Message::Message
FUNC 3bc14 270 0 testing::internal::ShouldShard
FUNC 3be84 a 0 testing::internal::ShouldShard
FUNC 3be90 dc 0 testing::GetReservedAttributesForElement
FUNC 3bf6c 84 0 testing::internal::ThreadLocal<testing::TestPartResultReporterInterface*>::GetOrCreateValue
FUNC 3bff0 c 0 testing::internal::UnitTestImpl::GetTestPartResultReporterForCurrentThread
FUNC 3bffc 1d4 0 testing::UnitTest::AddTestPartResult
FUNC 3c1d0 e 0 testing::internal::UnitTestImpl::SetTestPartResultReporterForCurrentThread
FUNC 3c1de 42 0 std::priv::_Rb_tree<std::basic_string<char, std::char_traits<char>, std::allocator<char> >, std::less<std::basic_string<char, std::char_traits<char>, std::allocator<char> > >, std::pair<const std::basic_string<char, std::char_traits<char>, std::allocator<char> >, unsigned int>, std::priv::_Select1st<std::pair<const std::basic_string<char, std::char_traits<char>, std::allocator<char> >, unsigned int> >, std::priv::_MapTraitsT<std::pair<const std::basic_string<char, std::char_traits<char>, std::allocator<char> >, unsigned int> >, std::allocator<std::pair<const std::basic_string<char, std::char_traits<char>, std::allocator<char> >, unsigned int> > >::_M_find<std::basic_string<char, std::char_traits<char>, std::allocator<char> > >
FUNC 3c220 28 0 std::priv::_Rb_tree<std::basic_string<char, std::char_traits<char>, std::allocator<char> >, std::less<std::basic_string<char, std::char_traits<char>, std::allocator<char> > >, std::pair<const std::basic_string<char, std::char_traits<char>, std::allocator<char> >, unsigned int>, std::priv::_Select1st<std::pair<const std::basic_string<char, std::char_traits<char>, std::allocator<char> >, unsigned int> >, std::priv::_MapTraitsT<std::pair<const std::basic_string<char, std::char_traits<char>, std::allocator<char> >, unsigned int> >, std::allocator<std::pair<const std::basic_string<char, std::char_traits<char>, std::allocator<char> >, unsigned int> > >::_M_erase
FUNC 3c248 20 0 std::priv::_List_global<bool>::_Transfer
FUNC 3c268 56 0 testing::internal::edit_distance::::Hunk::PushLine
FUNC 3c2be 26 0 std::operator==<char, std::char_traits<char>, std::allocator<char> >
FUNC 3c2e4 a8 0 std::priv::__find<const std::basic_string<char, std::char_traits<char>, std::allocator<char> >*, std::basic_string<char, std::char_traits<char>, std::allocator<char> > >
FUNC 3c38c 10c 0 testing::internal::XmlUnitTestResultPrinter::OutputXmlAttribute
FUNC 3c498 ac 0 std::priv::_Impl_vector<void*, std::allocator<void*> >::_M_insert_overflow
FUNC 3c544 28 0 std::priv::_Impl_vector<void*, std::allocator<void*> >::push_back
FUNC 3c56c 18 0 testing::TestEventListeners::Append
FUNC 3c584 2a 0 testing::TestEventListeners::SetDefaultResultPrinter
FUNC 3c5b0 1c8 0 testing::internal::UnitTestImpl::UnitTestImpl
FUNC 3c778 2c 0 testing::UnitTest::UnitTest
FUNC 3c7a4 44 0 testing::UnitTest::GetInstance
FUNC 3c7e8 194 0 testing::internal::UnitTestOptions::GetAbsolutePathToOutputFile
FUNC 3c97c a 0 testing::internal::GetUnitTestImpl
FUNC 3c986 46 0 testing::internal::HandleExceptionsInMethodIfSupported<testing::Test, void>
FUNC 3c986 46 0 testing::internal::HandleExceptionsInMethodIfSupported<testing::TestCase, void>
FUNC 3c9cc 1c 0 testing::Test::HasFatalFailure
FUNC 3c9e8 1c 0 testing::Test::HasNonfatalFailure
FUNC 3ca04 88 0 testing::UnitTest::Run
FUNC 3ca8c 10 0 testing::internal::ScopedTrace::~ScopedTrace
FUNC 3ca9c 2a 0 testing::TestEventListeners::SetDefaultXmlGenerator
FUNC 3cac8 a0 0 testing::internal::UnitTestImpl::ConfigureXmlOutput
FUNC 3cb68 2c 0 testing::TestCase::AddTestInfo
FUNC 3cb94 20 0 std::_Destroy_Range<std::reverse_iterator<testing::internal::TraceInfo*> >
FUNC 3cbb4 34 0 testing::internal::ThreadLocal<std::vector<testing::internal::TraceInfo, std::allocator<testing::internal::TraceInfo> > >::ValueHolder::~ValueHolder
FUNC 3cbe8 12 0 testing::internal::ThreadLocal<std::vector<testing::internal::TraceInfo, std::allocator<testing::internal::TraceInfo> > >::ValueHolder::~ValueHolder
FUNC 3cbfc 19c 0 testing::internal::UnitTestImpl::~UnitTestImpl
FUNC 3cd98 12 0 testing::internal::UnitTestImpl::~UnitTestImpl
FUNC 3cdac 98 0 testing::internal::StreamingListener::UrlEncode
FUNC 3ce44 130 0 testing::internal::UnitTestOptions::FilterMatchesTest
FUNC 3cf74 148 0 testing::internal::UnitTestImpl::FilterTests
FUNC 3d0bc 44 0 testing::internal::StreamingListener::SendLn
FUNC 3d100 44 0 testing::internal::StreamingListener::OnTestProgramStart
FUNC 3d144 78 0 testing::internal::StreamingListener::OnTestProgramEnd
FUNC 3d1bc 58 0 testing::internal::StreamingListener::OnTestIterationStart
FUNC 3d214 180 0 testing::internal::UnitTestImpl::ConfigureStreamingOutput
FUNC 3d394 3c 0 testing::internal::UnitTestImpl::PostFlagParsingInit
FUNC 3d3d0 70 0 testing::internal::AppendUserMessage
FUNC 3d440 78 0 testing::internal::AssertHelper::operator=
FUNC 3d4b8 224 0 testing::Test::HasSameFixtureClass
FUNC 3d6dc a8 0 testing::Test::Run
FUNC 3d784 104 0 testing::TestInfo::Run
FUNC 3d888 d4 0 testing::TestCase::Run
FUNC 3d95c 2d4 0 testing::internal::UnitTestImpl::RunAllTests
FUNC 3dc30 60 0 testing::internal::StreamingListener::OnTestStart
FUNC 3dc90 60 0 testing::internal::StreamingListener::OnTestCaseStart
FUNC 3dcf0 6c 0 testing::FormatCountableNoun
FUNC 3dd5c 9c 0 testing::internal::PrettyUnitTestResultPrinter::OnTestCaseStart
FUNC 3ddf8 150 0 testing::internal::PrettyUnitTestResultPrinter::OnTestIterationStart
FUNC 3df48 1a4 0 testing::internal::FormatEpochTimeInMillisAsIso8601
FUNC 3e0ec a4 0 testing::internal::ParseFlagValue
FUNC 3e190 26 0 testing::internal::ParseBoolFlag
FUNC 3e1b8 48 0 testing::internal::ParseInt32Flag
FUNC 3e200 1a 0 testing::internal::ParseStringFlag
FUNC 3e21c 2b8 0 testing::internal::ParseGoogleTestFlagsOnlyImpl<char>
FUNC 3e4d4 f8 0 testing::internal::StreamingListener::OnTestPartResult
FUNC 3e5cc 348 0 testing::internal::XmlUnitTestResultPrinter::OutputXmlTestInfo
FUNC 3e914 228 0 testing::internal::XmlUnitTestResultPrinter::PrintXmlTestCase
FUNC 3eb3c 2c0 0 testing::internal::XmlUnitTestResultPrinter::PrintXmlUnitTest
FUNC 3edfc c8 0 testing::internal::XmlUnitTestResultPrinter::OnTestIterationEnd
FUNC 3eec4 2e 0 testing::internal::StreamableToString<long long int>
FUNC 3eef4 b4 0 testing::internal::PrettyUnitTestResultPrinter::OnTestEnd
FUNC 3efa8 1dc 0 testing::internal::PrettyUnitTestResultPrinter::OnTestIterationEnd
FUNC 3f184 ac 0 testing::internal::PrettyUnitTestResultPrinter::OnTestCaseEnd
FUNC 3f230 d8 0 testing::internal::StreamingListener::OnTestEnd
FUNC 3f308 d8 0 testing::internal::StreamingListener::OnTestCaseEnd
FUNC 3f3e0 dc 0 testing::internal::StreamingListener::OnTestIterationEnd
FUNC 3f4bc f0 0 std::priv::_Impl_vector<testing::internal::edit_distance::EditType, std::allocator<testing::internal::edit_distance::EditType> >::_M_insert_overflow_aux
FUNC 3f5b0 48e 0 testing::internal::edit_distance::CalculateOptimalEdits
FUNC 3fa40 32 0 std::priv::_Impl_vector<testing::TestPartResult, std::allocator<testing::TestPartResult> >::push_back
FUNC 3fa72 30 0 testing::internal::DefaultGlobalTestPartResultReporter::ReportTestPartResult
FUNC 3faa4 194 0 std::priv::_Impl_vector<testing::internal::TraceInfo, std::allocator<testing::internal::TraceInfo> >::_M_insert_overflow_aux
FUNC 3fc38 58 0 testing::UnitTest::PushGTestTrace
FUNC 3fc90 68 0 testing::internal::ScopedTrace::ScopedTrace
FUNC 3fcf8 b4 0 std::priv::_Impl_vector<unsigned int, google_breakpad::PageStdAllocator<unsigned int> >::_M_fill_insert_aux
FUNC 3fcf8 b4 0 std::priv::_Impl_vector<void*, google_breakpad::PageStdAllocator<void*> >::_M_fill_insert_aux
FUNC 3fcf8 b4 0 std::priv::_Impl_vector<void*, std::allocator<void*> >::_M_fill_insert_aux
FUNC 3fdac 120 0 testing::internal::UnitTestImpl::GetTestCase
FUNC 3fecc 110 0 testing::internal::MakeAndRegisterTestInfo
FUNC 3ffdc 6e 0 std::priv::_Rb_tree<std::basic_string<char, std::char_traits<char>, std::allocator<char> >, std::less<std::basic_string<char, std::char_traits<char>, std::allocator<char> > >, std::pair<const std::basic_string<char, std::char_traits<char>, std::allocator<char> >, unsigned int>, std::priv::_Select1st<std::pair<const std::basic_string<char, std::char_traits<char>, std::allocator<char> >, unsigned int> >, std::priv::_MapTraitsT<std::pair<const std::basic_string<char, std::char_traits<char>, std::allocator<char> >, unsigned int> >, std::allocator<std::pair<const std::basic_string<char, std::char_traits<char>, std::allocator<char> >, unsigned int> > >::_M_insert
FUNC 4004a 78 0 std::priv::_Rb_tree<std::basic_string<char, std::char_traits<char>, std::allocator<char> >, std::less<std::basic_string<char, std::char_traits<char>, std::allocator<char> > >, std::pair<const std::basic_string<char, std::char_traits<char>, std::allocator<char> >, unsigned int>, std::priv::_Select1st<std::pair<const std::basic_string<char, std::char_traits<char>, std::allocator<char> >, unsigned int> >, std::priv::_MapTraitsT<std::pair<const std::basic_string<char, std::char_traits<char>, std::allocator<char> >, unsigned int> >, std::allocator<std::pair<const std::basic_string<char, std::char_traits<char>, std::allocator<char> >, unsigned int> > >::insert_unique
FUNC 400c2 174 0 std::priv::_Rb_tree<std::basic_string<char, std::char_traits<char>, std::allocator<char> >, std::less<std::basic_string<char, std::char_traits<char>, std::allocator<char> > >, std::pair<const std::basic_string<char, std::char_traits<char>, std::allocator<char> >, unsigned int>, std::priv::_Select1st<std::pair<const std::basic_string<char, std::char_traits<char>, std::allocator<char> >, unsigned int> >, std::priv::_MapTraitsT<std::pair<const std::basic_string<char, std::char_traits<char>, std::allocator<char> >, unsigned int> >, std::allocator<std::pair<const std::basic_string<char, std::char_traits<char>, std::allocator<char> >, unsigned int> > >::insert_unique
FUNC 40238 8c 0 std::map<std::basic_string<char, std::char_traits<char>, std::allocator<char> >, unsigned int, std::less<std::basic_string<char, std::char_traits<char>, std::allocator<char> > >, std::allocator<std::pair<const std::basic_string<char, std::char_traits<char>, std::allocator<char> >, unsigned int> > >::operator[]<std::basic_string<char, std::char_traits<char>, std::allocator<char> > >
FUNC 402c4 104 0 testing::internal::edit_distance::CalculateOptimalEdits
FUNC 403c8 36c 0 testing::internal::edit_distance::CreateUnifiedDiff
FUNC 40734 36 0 std::basic_string<char, std::char_traits<char>, std::allocator<char> >::basic_string
FUNC 4076a 5a 0 std::priv::_Impl_vector<std::basic_string<char, std::char_traits<char>, std::allocator<char> >, std::allocator<std::basic_string<char, std::char_traits<char>, std::allocator<char> > > >::_M_erase
FUNC 407c4 14c 0 std::priv::_Impl_vector<std::basic_string<char, std::char_traits<char>, std::allocator<char> >, std::allocator<std::basic_string<char, std::char_traits<char>, std::allocator<char> > > >::_M_insert_overflow_aux
FUNC 40910 84 0 std::priv::_Impl_vector<std::basic_string<char, std::char_traits<char>, std::allocator<char> >, std::allocator<std::basic_string<char, std::char_traits<char>, std::allocator<char> > > >::push_back
FUNC 40994 c4 0 testing::internal::::SplitEscapedString
FUNC 40a58 180 0 testing::internal::EqFailure
FUNC 40bd8 78 0 testing::internal::CmpHelperSTREQ
FUNC 40c50 b4 0 testing::InitGoogleTest
FUNC 40d04 e 0 testing::internal::AlwaysFalse
FUNC 40d14 5c 0 testing::internal::DeathTestAbort
FUNC 40d70 12 0 testing::internal::StackLowerThanAddress
FUNC 40d82 16 0 testing::internal::StackGrowsDown
FUNC 40d98 30 0 testing::internal::GetLastErrnoDescription
FUNC 40dc8 58 0 testing::internal::DeathTest::DeathTest
FUNC 40e20 34 0 testing::internal::ForkingDeathTest::ForkingDeathTest
FUNC 40e54 98 0 testing::internal::ParseNaturalNumber<int>
FUNC 40eec 6c 0 testing::internal::DeathTest::set_last_death_test_message
FUNC 40f58 a8 0 testing::internal::FormatDeathTestOutput
FUNC 41000 2ac 0 testing::internal::DeathTestImpl::Passed
FUNC 412ac 2c8 0 testing::internal::DeathTestImpl::ReadAndInterpretStatusByte
FUNC 41574 e0 0 testing::internal::DeathTestImpl::Abort
FUNC 41654 e8 0 testing::internal::ForkingDeathTest::Wait
FUNC 4173c 3bc 0 testing::internal::NoExecDeathTest::AssumeRole
FUNC 41af8 184 0 testing::internal::ExecDeathTestChildMain
FUNC 41c7c c8 0 testing::internal::DeathTestImpl::~DeathTestImpl
FUNC 41d44 18 0 testing::internal::ExecDeathTest::~ExecDeathTest
FUNC 41d44 18 0 testing::internal::NoExecDeathTest::~NoExecDeathTest
FUNC 41d5c 12 0 testing::internal::ExecDeathTest::~ExecDeathTest
FUNC 41d5c 12 0 testing::internal::NoExecDeathTest::~NoExecDeathTest
FUNC 41d70 1a8 0 testing::internal::DefaultDeathTestFactory::Create
FUNC 41f18 30 0 std::priv::_Impl_vector<void*, std::allocator<void*> >::_M_fill_insert
FUNC 41f48 22 0 testing::internal::Arguments::AddArgument
FUNC 41f6c 98c 0 testing::internal::ExecDeathTest::AssumeRole
FUNC 428f8 16c 0 testing::internal::ParseInternalRunDeathTestFlag
FUNC 42a64 8 0 testing::internal::FilePath::FindLastPathSeparator
FUNC 42a6c 30 0 testing::internal::FilePath::FileOrDirectoryExists
FUNC 42a9c 40 0 testing::internal::FilePath::DirectoryExists
FUNC 42adc e 0 testing::internal::FilePath::IsAbsolutePath
FUNC 42aea 1a 0 testing::internal::FilePath::IsDirectory
FUNC 42b04 20 0 testing::internal::FilePath::CreateFolder
FUNC 42b24 6c 0 testing::internal::FilePath::Normalize
FUNC 42b90 78 0 testing::internal::FilePath::GetCurrentDir
FUNC 42c08 58 0 testing::internal::FilePath::RemoveDirectoryName
FUNC 42c60 64 0 testing::internal::FilePath::RemoveTrailingPathSeparator
FUNC 42cc4 14c 0 testing::internal::FilePath::ConcatPaths
FUNC 42e10 90 0 testing::internal::FilePath::RemoveFileName
FUNC 42ea0 70 0 testing::internal::FilePath::CreateDirectoriesRecursively
FUNC 42f10 160 0 testing::internal::FilePath::MakeFileName
FUNC 43070 74 0 testing::internal::FilePath::GenerateUniqueFileName
FUNC 430e4 18 0 testing::internal::IsInSet
FUNC 430fc c 0 testing::internal::IsAsciiPunct
FUNC 43108 c 0 testing::internal::IsRepeat
FUNC 43114 c 0 testing::internal::IsAsciiWhiteSpace
FUNC 43120 20 0 testing::internal::IsAsciiWordChar
FUNC 43140 b8 0 testing::internal::AtomMatchesChar
FUNC 431f8 5a 0 testing::internal::MatchRegexAtHead
FUNC 43252 60 0 testing::internal::MatchRepetitionAndRegexAtHead
FUNC 432b2 34 0 testing::internal::MatchRegexAnywhere
FUNC 432e6 16 0 testing::internal::RE::PartialMatch
FUNC 432fc 16 0 testing::internal::CapturedStream::GetFileSize
FUNC 43314 18 0 testing::internal::GetInjectableArgvs
FUNC 4332c 1e 0 std::_Destroy_Range<std::reverse_iterator<std::basic_string<char, std::char_traits<char>, std::allocator<char> >*> >
FUNC 4334a 30 0 std::vector<std::basic_string<char, std::char_traits<char>, std::allocator<char> >, std::allocator<std::basic_string<char, std::char_traits<char>, std::allocator<char> > > >::~vector
FUNC 4337a 52 0 testing::internal::CapturedStream::ReadEntireFile
FUNC 433cc 68 0 testing::internal::GetCapturedStream
FUNC 43434 14 0 testing::internal::GetCapturedStderr
FUNC 43448 1c 0 testing::Message::operator<< <char const>
FUNC 43464 46 0 std::endl<char, std::char_traits<char> >
FUNC 434ac 30 0 testing::internal::GTestLog::~GTestLog
FUNC 434dc 17c 0 testing::internal::ParseInt32
FUNC 43658 e0 0 testing::internal::FormatFileLocation
FUNC 43738 b0 0 testing::internal::GTestLog::GTestLog
FUNC 437e8 140 0 testing::internal::CaptureStream
FUNC 43928 18 0 testing::internal::CaptureStderr
FUNC 43940 c8 0 testing::internal::FormatCompilerIndependentFileLocation
FUNC 43a08 a4 0 testing::internal::FlagToEnvVar
FUNC 43aac 54 0 testing::internal::BoolFromGTestEnv
FUNC 43b00 d0 0 testing::internal::Int32FromGTestEnv
FUNC 43bd0 44 0 testing::internal::StringFromGTestEnv
FUNC 43c14 24 0 sys_sigaltstack
FUNC 43c38 24 0 sys_close
FUNC 43c5c 2a 0 sys_prctl
FUNC 43c88 d0 0 google_breakpad::ExceptionHandler::InstallHandlersLocked
FUNC 43d58 214 0 google_breakpad::ExceptionHandler::ExceptionHandler
FUNC 43f6c 50 0 google_breakpad::ExceptionHandler::RestoreHandlersLocked
FUNC 43fbc 7c 0 google_breakpad::ExceptionHandler::SendContinueSignalToChild
FUNC 44038 268 0 google_breakpad::ExceptionHandler::GenerateDump
FUNC 442a0 a0 0 google_breakpad::ExceptionHandler::HandleSignal
FUNC 44340 22 0 google_breakpad::ExceptionHandler::HandleSignal
FUNC 44364 134 0 google_breakpad::ExceptionHandler::SignalHandler
FUNC 44498 74 0 google_breakpad::ExceptionHandler::WaitForContinueSignal
FUNC 4450c 4e 0 google_breakpad::ExceptionHandler::DoDump
FUNC 4455a 1e 0 google_breakpad::ExceptionHandler::ThreadEntry
FUNC 44578 c0 0 google_breakpad::ExceptionHandler::WriteMinidump
FUNC 44638 a4 0 google_breakpad::ExceptionHandler::AddMappingInfo
FUNC 446dc 50 0 google_breakpad::ExceptionHandler::RegisterAppMemory
FUNC 4472c 34 0 google_breakpad::ExceptionHandler::UnregisterAppMemory
FUNC 44760 184 0 google_breakpad::ExceptionHandler::~ExceptionHandler
FUNC 448e4 98 0 google_breakpad::ExceptionHandler::WriteMinidumpForChild
FUNC 4497c 50 0 google_breakpad::MinidumpDescriptor::MinidumpDescriptor
FUNC 449cc b0 0 google_breakpad::MinidumpDescriptor::UpdatePath
FUNC 44a7c 48 0 google_breakpad::MinidumpDescriptor::operator=
FUNC 44ac4 10 0 logger::write
FUNC 44ad4 a 0 MicrodumpWriter::LogAppend
FUNC 44ae0 30 0 MicrodumpWriter::LogAppend<unsigned char>
FUNC 44b10 4c 0 MicrodumpWriter::LogAppend<unsigned int>
FUNC 44b5c 2c 0 MicrodumpWriter::LogCommitLine
FUNC 44b88 16c 0 MicrodumpWriter::DumpModule
FUNC 44cf4 444 0 google_breakpad::WriteMicrodump
FUNC 45138 5a 0 google_breakpad::LinuxCoreDumper::BuildProcPath
FUNC 45194 38 0 google_breakpad::LinuxCoreDumper::GetThreadInfoByIndex
FUNC 451cc 22 0 google_breakpad::LinuxCoreDumper::CopyFromProcess
FUNC 451f0 40 0 std::priv::__ucopy<google_breakpad::ThreadInfo*, google_breakpad::ThreadInfo*, int>
FUNC 45230 50 0 google_breakpad::LinuxCoreDumper::LinuxCoreDumper
FUNC 45280 d0 0 std::priv::_Impl_vector<google_breakpad::ThreadInfo, google_breakpad::PageStdAllocator<google_breakpad::ThreadInfo> >::_M_insert_overflow_aux
FUNC 45350 1f4 0 google_breakpad::LinuxCoreDumper::EnumerateThreads
FUNC 45544 114 0 google_breakpad::::ElfFileSoName
FUNC 45658 c4 0 google_breakpad::LinuxDumper::HandleDeletedFileInMapping
FUNC 4571c 40 0 google_breakpad::LinuxDumper::~LinuxDumper
FUNC 4575c 80 0 google_breakpad::LinuxDumper::GetMappingEffectiveNameAndPath
FUNC 457dc b8 0 google_breakpad::LinuxDumper::ReadAuxv
FUNC 45894 24 0 google_breakpad::LinuxDumper::Init
FUNC 458b8 2a 0 google_breakpad::LinuxDumper::FindMapping
FUNC 458e4 38 0 google_breakpad::LinuxDumper::GetStackInfo
FUNC 4591c 34 0 google_breakpad::LinuxDumper::HandleDeletedFileInMapping
FUNC 45950 130 0 google_breakpad::LinuxDumper::ElfFileIdentifierForMapping
FUNC 45a80 94 0 std::priv::_Impl_vector<void*, google_breakpad::PageStdAllocator<void*> >::_M_insert_overflow
FUNC 45b14 98 0 google_breakpad::LinuxDumper::LinuxDumper
FUNC 45bac 374 0 google_breakpad::LinuxDumper::EnumerateMappings
FUNC 45f20 24 0 sys_ptrace
FUNC 45f44 52 0 google_breakpad::LinuxPtraceDumper::CopyFromProcess
FUNC 45f98 78 0 google_breakpad::LinuxPtraceDumper::BuildProcPath
FUNC 46010 42 0 google_breakpad::LinuxPtraceDumper::ThreadsResume
FUNC 46054 1b0 0 google_breakpad::LinuxPtraceDumper::GetThreadInfoByIndex
FUNC 46204 20 0 google_breakpad::LinuxPtraceDumper::LinuxPtraceDumper
FUNC 46224 a0 0 std::priv::_Impl_vector<int, google_breakpad::PageStdAllocator<int> >::_M_insert_overflow
FUNC 462c4 164 0 google_breakpad::LinuxPtraceDumper::EnumerateThreads
FUNC 46428 be 0 std::priv::_Impl_vector<int, google_breakpad::PageStdAllocator<int> >::_M_fill_insert_aux
FUNC 464e6 fe 0 google_breakpad::LinuxPtraceDumper::ThreadsSuspend
FUNC 465e4 24 0 sys_read
FUNC 46608 e4 0 MinidumpWriter::WriteOSInformation
FUNC 466ec 36 0 MinidumpWriter::Init
FUNC 46722 2a 0 MinidumpWriter::HaveMappingInfo
FUNC 4674c 36 0 std::priv::__ucopy<MDMemoryDescriptor*, MDMemoryDescriptor*, int>
FUNC 46782 28 0 sys_open
FUNC 467ac 128 0 MinidumpWriter::FillRawModule
FUNC 468d4 26 0 MinidumpWriter::~MinidumpWriter
FUNC 468fc 340 0 MinidumpWriter::WriteSystemInfoStream
FUNC 46c3c 12 0 google_breakpad::TypedMDRVA<MDRawDirectory>::CopyIndex
FUNC 46c4e 1e 0 google_breakpad::TypedMDRVA<MDRawContextARM>::~TypedMDRVA
FUNC 46c6c 14 0 google_breakpad::TypedMDRVA<MDString>::CopyIndexAfterObject
FUNC 46c6c 14 0 google_breakpad::TypedMDRVA<unsigned int>::CopyIndexAfterObject
FUNC 46c80 1a 0 google_breakpad::TypedMDRVA<MDRawLinkMap>::~TypedMDRVA
FUNC 46c9c 5c 0 std::priv::_Impl_vector<MDMemoryDescriptor, google_breakpad::PageStdAllocator<MDMemoryDescriptor> >::reserve
FUNC 46cf8 ac 0 std::priv::_Impl_vector<MDMemoryDescriptor, google_breakpad::PageStdAllocator<MDMemoryDescriptor> >::_M_insert_overflow_aux
FUNC 46da4 32 0 std::priv::_Impl_vector<MDMemoryDescriptor, google_breakpad::PageStdAllocator<MDMemoryDescriptor> >::push_back
FUNC 46dd6 c2 0 MinidumpWriter::FillThreadStack
FUNC 46e98 388 0 MinidumpWriter::WriteThreadListStream
FUNC 47220 8a 0 MinidumpWriter::WriteAppMemory
FUNC 472aa b0 0 std::priv::_Impl_vector<char, google_breakpad::PageStdAllocator<char> >::_M_fill_insert_aux
FUNC 4735c ac 0 std::priv::_Impl_vector<char, google_breakpad::PageStdAllocator<char> >::resize
FUNC 47408 800 0 MinidumpWriter::Dump
FUNC 47c08 a8 0 WriteMinidumpImpl
FUNC 47cb0 52 0 google_breakpad::WriteMinidump
FUNC 47d02 52 0 google_breakpad::WriteMinidump
FUNC 47d54 20 0 google_breakpad::WriteMinidump
FUNC 47d74 26 0 google_breakpad::WriteMinidump
FUNC 47d9a 26 0 google_breakpad::WriteMinidump
FUNC 47dc0 a4 0 google_breakpad::WriteMinidump
FUNC 47e64 12 0 google_breakpad::MinidumpFileWriter::MinidumpFileWriter
FUNC 47e76 34 0 google_breakpad::MinidumpFileWriter::Open
FUNC 47eaa 8 0 google_breakpad::MinidumpFileWriter::SetFile
FUNC 47eb2 4a 0 google_breakpad::MinidumpFileWriter::Close
FUNC 47efc 10 0 google_breakpad::MinidumpFileWriter::~MinidumpFileWriter
FUNC 47f0c 44 0 google_breakpad::MinidumpFileWriter::Allocate
FUNC 47f50 6e 0 google_breakpad::MinidumpFileWriter::Copy
FUNC 47fbe 16 0 google_breakpad::UntypedMDRVA::Allocate
FUNC 47fd4 6 0 google_breakpad::UntypedMDRVA::Copy
FUNC 47fda 4c 0 google_breakpad::MinidumpFileWriter::CopyStringToMDString
FUNC 48026 aa 0 google_breakpad::MinidumpFileWriter::WriteString
FUNC 480d0 8 0 google_breakpad::ElfCoreDump::Note::GetHeader
FUNC 480d8 e 0 google_breakpad::ElfCoreDump::Note::IsValid
FUNC 480e6 c 0 google_breakpad::ElfCoreDump::Note::GetType
FUNC 480f2 26 0 google_breakpad::ElfCoreDump::Note::GetName
FUNC 48118 2c 0 google_breakpad::ElfCoreDump::Note::GetDescription
FUNC 48144 42 0 google_breakpad::ElfCoreDump::Note::GetNextNote
FUNC 48186 8 0 google_breakpad::ElfCoreDump::ElfCoreDump
FUNC 48186 8 0 google_breakpad::MemoryMappedFile::MemoryMappedFile
FUNC 4818e a 0 google_breakpad::ElfCoreDump::SetContent
FUNC 48198 8 0 google_breakpad::ElfCoreDump::GetHeader
FUNC 481a0 30 0 google_breakpad::ElfCoreDump::IsValid
FUNC 481d0 20 0 google_breakpad::ElfCoreDump::GetProgramHeader
FUNC 481f0 c 0 google_breakpad::ElfCoreDump::GetProgramHeaderCount
FUNC 481fc 28 0 google_breakpad::ElfCoreDump::GetFirstProgramHeaderOfType
FUNC 48224 5e 0 google_breakpad::ElfCoreDump::CopyData
FUNC 48282 34 0 google_breakpad::ElfCoreDump::GetFirstNote
FUNC 482b8 18 0 google_breakpad::IsValidElf
FUNC 482d0 104 0 google_breakpad::FindElfSection
FUNC 483d4 8a 0 google_breakpad::FindElfSegment
FUNC 48460 5c 0 google_breakpad::FileID::FileID
FUNC 484bc 138 0 google_breakpad::FileID::ElfFileIdentifierFromMappedFile
FUNC 485f4 2a 0 google_breakpad::FileID::ElfFileIdentifier
FUNC 48620 b4 0 google_breakpad::FileID::ConvertIdentifierToString
FUNC 486d4 10 0 GUIDGenerator::InitOnceImpl
FUNC 486e4 54 0 CreateGUID
FUNC 48738 60 0 GUIDToString
FUNC 48798 10 0 my_strlen
FUNC 487a8 22 0 my_strcmp
FUNC 487ca 26 0 my_strncmp
FUNC 487f0 32 0 my_strtoui
FUNC 48822 24 0 my_uint_len
FUNC 48846 36 0 my_uitos
FUNC 4887c 1a 0 my_strchr
FUNC 48896 18 0 my_strrchr
FUNC 488ae 1a 0 my_memchr
FUNC 488c8 40 0 my_read_hex_ptr
FUNC 48908 22 0 my_read_decimal_ptr
FUNC 4892a e 0 my_memset
FUNC 48938 22 0 my_strlcpy
FUNC 4895a 20 0 my_strlcat
FUNC 4897c 48 0 my_isspace
FUNC 489c4 2c 0 google_breakpad::MemoryMappedFile::Unmap
FUNC 489f0 c 0 google_breakpad::MemoryMappedFile::~MemoryMappedFile
FUNC 489fc e4 0 google_breakpad::MemoryMappedFile::Map
FUNC 48ae0 12 0 google_breakpad::MemoryMappedFile::MemoryMappedFile
FUNC 48af2 32 0 google_breakpad::SafeReadLink
FUNC 48b24 48 0 google_breakpad::UTF8ToUTF16Char
FUNC 48ba8 f8 0 google_breakpad::::CrashGenerationClientImpl::RequestDump
FUNC 48ca0 20 0 google_breakpad::CrashGenerationClient::TryCreate
FUNC 48cc0 4 0 google_breakpad::ThreadInfo::GetInstructionPointer
FUNC 48cc4 24 0 google_breakpad::ThreadInfo::FillCPUContext
FUNC 48ce8 4 0 google_breakpad::UContextReader::GetStackPointer
FUNC 48cec 4 0 google_breakpad::UContextReader::GetInstructionPointer
FUNC 48cf0 94 0 google_breakpad::UContextReader::FillCPUContext
FUNC 48d84 7a 0 isLegalUTF8
FUNC 48e00 118 0 ConvertUTF8toUTF16
FUNC 48f18 20 0 google_breakpad::DumpContext::DumpContext
FUNC 48f38 10 0 google_breakpad::DumpContext::GetContextCPU
FUNC 48f48 4 0 google_breakpad::DumpContext::GetContextFlags
FUNC 48f4c 4 0 google_breakpad::DumpContext::SetContextFlags
FUNC 48f50 4 0 google_breakpad::DumpContext::SetContextAMD64
FUNC 48f50 4 0 google_breakpad::DumpContext::SetContextARM
FUNC 48f50 4 0 google_breakpad::DumpContext::SetContextARM64
FUNC 48f50 4 0 google_breakpad::DumpContext::SetContextMIPS
FUNC 48f50 4 0 google_breakpad::DumpContext::SetContextPPC
FUNC 48f50 4 0 google_breakpad::DumpContext::SetContextPPC64
FUNC 48f50 4 0 google_breakpad::DumpContext::SetContextSPARC
FUNC 48f50 4 0 google_breakpad::DumpContext::SetContextX86
FUNC 48f54 4a 0 google_breakpad::DumpContext::FreeContext
FUNC 48fa0 18 0 google_breakpad::DumpContext::~DumpContext
FUNC 48fb8 12 0 google_breakpad::DumpContext::~DumpContext
FUNC 48fcc 4c 0 google_breakpad::DumpContext::GetContextX86
FUNC 49018 4c 0 google_breakpad::DumpContext::GetContextPPC
FUNC 49064 4c 0 google_breakpad::DumpContext::GetContextARM
FUNC 490b0 4c 0 google_breakpad::DumpContext::GetContextPPC64
FUNC 490fc 4c 0 google_breakpad::DumpContext::GetContextAMD64
FUNC 49148 4c 0 google_breakpad::DumpContext::GetContextSPARC
FUNC 49194 4c 0 google_breakpad::DumpContext::GetContextARM64
FUNC 491e0 4c 0 google_breakpad::DumpContext::GetContextMIPS
FUNC 4922c 170 0 google_breakpad::DumpContext::GetInstructionPointer
FUNC 4939c 6 0 google_breakpad::DumpObject::DumpObject
FUNC 493a4 44 0 google_breakpad::HexString
FUNC 493e8 48 0 google_breakpad::HexString
FUNC 49430 44 0 google_breakpad::HexString
FUNC 49474 4a 0 google_breakpad::LogStream::~LogStream
FUNC 494c0 18c 0 google_breakpad::LogStream::LogStream
FUNC 4964c 62 0 google_breakpad::ErrnoString
FUNC 496ae c 0 google_breakpad::MinidumpThreadList::thread_count
FUNC 496ba 14 0 google_breakpad::MinidumpModule::base_address
FUNC 496d6 e 0 google_breakpad::MinidumpModule::size
FUNC 496ec c 0 google_breakpad::MinidumpModuleList::module_count
FUNC 49700 e 0 google_breakpad::Minidump::header
FUNC 4970e 6 0 google_breakpad::BasicCodeModule::base_address
FUNC 49714 6 0 google_breakpad::BasicCodeModule::size
FUNC 4971a e 0 google_breakpad::Swap
FUNC 49728 8 0 google_breakpad::Swap
FUNC 49730 18 0 google_breakpad::Swap
FUNC 49748 12 0 google_breakpad::Swap
FUNC 4975c 28 0 google_breakpad::MinidumpThread::~MinidumpThread
FUNC 49784 20 0 google_breakpad::MinidumpException::~MinidumpException
FUNC 497a4 84 0 std::basic_filebuf<char, std::char_traits<char> >::pbackfail
FUNC 49828 12 0 google_breakpad::MinidumpThread::~MinidumpThread
FUNC 4983a 12 0 google_breakpad::MinidumpException::~MinidumpException
FUNC 4984c 18 0 google_breakpad::MinidumpContext::~MinidumpContext
FUNC 49864 12 0 google_breakpad::MinidumpContext::~MinidumpContext
FUNC 49876 18 0 google_breakpad::MinidumpModuleList::Copy
FUNC 49896 4 0 std::basic_filebuf<char, std::char_traits<char> >::underflow
FUNC 49896 4 0 std::basic_filebuf<char, std::char_traits<char> >::underflow()
FUNC 4989a 22 0 std::basic_filebuf<char, std::char_traits<char> >::sync
FUNC 498bc 4a 0 std::basic_filebuf<char, std::char_traits<char> >::showmanyc
FUNC 49906 54 0 std::basic_filebuf<char, std::char_traits<char> >::_M_unshift
FUNC 4995c 4c 0 std::basic_filebuf<char, std::char_traits<char> >::_M_setup_codecvt
FUNC 499a8 50 0 std::basic_filebuf<char, std::char_traits<char> >::imbue
FUNC 499f8 38 0 std::priv::_Rb_tree<unsigned int, std::less<unsigned int>, std::pair<unsigned int const, google_breakpad::Minidump::MinidumpStreamInfo>, std::priv::_Select1st<std::pair<unsigned int const, google_breakpad::Minidump::MinidumpStreamInfo> >, std::priv::_MapTraitsT<std::pair<unsigned int const, google_breakpad::Minidump::MinidumpStreamInfo> >, std::allocator<std::pair<unsigned int const, google_breakpad::Minidump::MinidumpStreamInfo> > >::_M_create_node
FUNC 49a30 38 0 std::priv::_Rb_tree<long long unsigned int, std::less<long long unsigned int>, std::pair<long long unsigned int const, google_breakpad::RangeMap<long long unsigned int, unsigned int>::Range>, std::priv::_Select1st<std::pair<long long unsigned int const, google_breakpad::RangeMap<long long unsigned int, unsigned int>::Range> >, std::priv::_MapTraitsT<std::pair<long long unsigned int const, google_breakpad::RangeMap<long long unsigned int, unsigned int>::Range> >, std::allocator<std::pair<long long unsigned int const, google_breakpad::RangeMap<long long unsigned int, unsigned int>::Range> > >::_M_create_node
FUNC 49a68 28 0 std::priv::_Rb_tree<unsigned int, std::less<unsigned int>, std::pair<unsigned int const, google_breakpad::MinidumpThread*>, std::priv::_Select1st<std::pair<unsigned int const, google_breakpad::MinidumpThread*> >, std::priv::_MapTraitsT<std::pair<unsigned int const, google_breakpad::MinidumpThread*> >, std::allocator<std::pair<unsigned int const, google_breakpad::MinidumpThread*> > >::_M_create_node
FUNC 49a90 12 0 google_breakpad::Minidump::MinidumpStreamInfo::~MinidumpStreamInfo
FUNC 49aa4 6c 0 google_breakpad::BasicCodeModule::BasicCodeModule
FUNC 49b10 18 0 google_breakpad::MinidumpModule::Copy
FUNC 49b30 16 0 google_breakpad::BasicCodeModule::Copy
FUNC 49b48 20 0 google_breakpad::MinidumpStream::MinidumpStream
FUNC 49b68 2c 0 google_breakpad::MinidumpMemoryRegion::MinidumpMemoryRegion
FUNC 49b94 22 0 google_breakpad::MinidumpMemoryRegion::SetDescriptor
FUNC 49bb8 30 0 google_breakpad::MinidumpThread::MinidumpThread
FUNC 49be8 48 0 google_breakpad::MinidumpThreadList::MinidumpThreadList
FUNC 49c30 4c 0 google_breakpad::MinidumpModule::MinidumpModule
FUNC 49c7c 2c 0 google_breakpad::MinidumpException::MinidumpException
FUNC 49ca8 2c 0 google_breakpad::MinidumpSystemInfo::MinidumpSystemInfo
FUNC 49cd4 34 0 std::priv::_Impl_vector<google_breakpad::MinidumpThread, std::allocator<google_breakpad::MinidumpThread> >::~_Impl_vector
FUNC 49d08 34 0 std::priv::_Impl_vector<google_breakpad::MinidumpModule, std::allocator<google_breakpad::MinidumpModule> >::~_Impl_vector
FUNC 49d3c 34 0 std::priv::_Impl_vector<google_breakpad::MinidumpMemoryRegion, std::allocator<google_breakpad::MinidumpMemoryRegion> >::~_Impl_vector
FUNC 49d70 18 0 google_breakpad::scoped_ptr<std::basic_string<char, std::char_traits<char>, std::allocator<char> > >::~scoped_ptr
FUNC 49d88 3c 0 google_breakpad::BasicCodeModule::~BasicCodeModule
FUNC 49dc4 12 0 google_breakpad::BasicCodeModule::~BasicCodeModule
FUNC 49dd8 34 0 google_breakpad::MinidumpSystemInfo::~MinidumpSystemInfo
FUNC 49e0c 12 0 google_breakpad::MinidumpSystemInfo::~MinidumpSystemInfo
FUNC 49e20 60 0 std::priv::_Impl_vector<short unsigned int, std::allocator<short unsigned int> >::_Impl_vector
FUNC 49e80 2c 0 google_breakpad::MinidumpMemoryRegion::~MinidumpMemoryRegion
FUNC 49eb4 12 0 google_breakpad::MinidumpMemoryRegion::~MinidumpMemoryRegion
FUNC 49ece 18 0 google_breakpad::scoped_ptr<std::vector<unsigned char, std::allocator<unsigned char> > >::~scoped_ptr
FUNC 49ee8 50 0 google_breakpad::MinidumpModule::~MinidumpModule
FUNC 49f40 12 0 google_breakpad::MinidumpModule::~MinidumpModule
FUNC 49f5a 4a 0 std::priv::_Impl_vector<unsigned char, std::allocator<unsigned char> >::_Impl_vector
FUNC 49fa4 34 0 google_breakpad::MinidumpModuleList::MinidumpModuleList
FUNC 49fd8 30 0 google_breakpad::MinidumpMemoryList::MinidumpMemoryList
FUNC 4a008 32 0 std::priv::_Rb_tree<unsigned int, std::less<unsigned int>, std::pair<unsigned int const, google_breakpad::Minidump::MinidumpStreamInfo>, std::priv::_Select1st<std::pair<unsigned int const, google_breakpad::Minidump::MinidumpStreamInfo> >, std::priv::_MapTraitsT<std::pair<unsigned int const, google_breakpad::Minidump::MinidumpStreamInfo> >, std::allocator<std::pair<unsigned int const, google_breakpad::Minidump::MinidumpStreamInfo> > >::find<unsigned int>
FUNC 4a03a 26 0 std::priv::_Rb_global<bool>::_M_increment
FUNC 4a060 e6 0 std::priv::__read_unbuffered<char, std::char_traits<char>, std::priv::_Constant_unary_fun<bool, int> >
FUNC 4a146 e 0 google_breakpad::BasicCodeModule::code_file
FUNC 4a154 e 0 google_breakpad::BasicCodeModule::code_identifier
FUNC 4a162 e 0 google_breakpad::BasicCodeModule::debug_file
FUNC 4a170 e 0 google_breakpad::BasicCodeModule::debug_identifier
FUNC 4a17e e 0 google_breakpad::BasicCodeModule::version
FUNC 4a18c e 0 google_breakpad::Minidump::path
FUNC 4a19c 48 0 google_breakpad::Minidump::Minidump
FUNC 4a1e4 50 0 google_breakpad::MinidumpModuleList::GetMainModule
FUNC 4a248 48 0 google_breakpad::MinidumpThread::GetMemory
FUNC 4a290 50 0 google_breakpad::MinidumpMemoryRegion::GetBase
FUNC 4a2e8 4c 0 google_breakpad::MinidumpMemoryRegion::GetSize
FUNC 4a33c 4c 0 google_breakpad::MinidumpThread::GetStartOfStackMemoryRange
FUNC 4a388 8c 0 google_breakpad::MinidumpThread::GetThreadID
FUNC 4a414 8c 0 google_breakpad::MinidumpException::GetThreadID
FUNC 4a4a0 60 0 google_breakpad::MinidumpModule::code_file
FUNC 4a508 b4 0 google_breakpad::RangeMap<long long unsigned int, unsigned int>::RetrieveRange
FUNC 4a5bc 19c 0 google_breakpad::MinidumpContext::CheckAgainstSystemInfo
FUNC 4a758 d8 0 google_breakpad::MinidumpModuleList::GetModuleForAddress
FUNC 4a844 b0 0 google_breakpad::MinidumpThreadList::GetThreadAtIndex
FUNC 4a8f4 b0 0 google_breakpad::MinidumpModuleList::GetModuleAtIndex
FUNC 4a9b8 b0 0 google_breakpad::MinidumpMemoryList::GetMemoryRegionAtIndex
FUNC 4aa68 d8 0 google_breakpad::MinidumpMemoryList::GetMemoryRegionForAddress
FUNC 4ab40 16c 0 google_breakpad::MinidumpModuleList::GetModuleAtSequence
FUNC 4acc0 29c 0 google_breakpad::UTF16ToUTF8
FUNC 4af5c 1dc 0 google_breakpad::MinidumpModule::code_identifier
FUNC 4b140 170 0 google_breakpad::MinidumpModule::debug_identifier
FUNC 4b2b8 11c 0 google_breakpad::MinidumpModule::version
FUNC 4b3dc 1b4 0 google_breakpad::MinidumpModule::debug_file
FUNC 4b598 20 0 std::priv::_Rb_tree<unsigned int, std::less<unsigned int>, std::pair<unsigned int const, google_breakpad::MinidumpThread*>, std::priv::_Select1st<std::pair<unsigned int const, google_breakpad::MinidumpThread*> >, std::priv::_MapTraitsT<std::pair<unsigned int const, google_breakpad::MinidumpThread*> >, std::allocator<std::pair<unsigned int const, google_breakpad::MinidumpThread*> > >::_M_erase
FUNC 4b5b8 34 0 google_breakpad::MinidumpThreadList::~MinidumpThreadList
FUNC 4b5ec 12 0 google_breakpad::MinidumpThreadList::~MinidumpThreadList
FUNC 4b5fe 20 0 std::priv::_Rb_tree<long long unsigned int, std::less<long long unsigned int>, std::pair<long long unsigned int const, google_breakpad::RangeMap<long long unsigned int, unsigned int>::Range>, std::priv::_Select1st<std::pair<long long unsigned int const, google_breakpad::RangeMap<long long unsigned int, unsigned int>::Range> >, std::priv::_MapTraitsT<std::pair<long long unsigned int const, google_breakpad::RangeMap<long long unsigned int, unsigned int>::Range> >, std::allocator<std::pair<long long unsigned int const, google_breakpad::RangeMap<long long unsigned int, unsigned int>::Range> > >::_M_erase
FUNC 4b61e 1a 0 std::priv::_Rb_tree<long long unsigned int, std::less<long long unsigned int>, std::pair<long long unsigned int const, google_breakpad::RangeMap<long long unsigned int, unsigned int>::Range>, std::priv::_Select1st<std::pair<long long unsigned int const, google_breakpad::RangeMap<long long unsigned int, unsigned int>::Range> >, std::priv::_MapTraitsT<std::pair<long long unsigned int const, google_breakpad::RangeMap<long long unsigned int, unsigned int>::Range> >, std::allocator<std::pair<long long unsigned int const, google_breakpad::RangeMap<long long unsigned int, unsigned int>::Range> > >::clear
FUNC 4b638 3c 0 google_breakpad::MinidumpModuleList::~MinidumpModuleList
FUNC 4b67c 12 0 google_breakpad::MinidumpModuleList::~MinidumpModuleList
FUNC 4b698 44 0 google_breakpad::MinidumpMemoryList::~MinidumpMemoryList
FUNC 4b6dc 12 0 google_breakpad::MinidumpMemoryList::~MinidumpMemoryList
FUNC 4b6ee 28 0 std::priv::_Rb_tree<unsigned int, std::less<unsigned int>, std::pair<unsigned int const, google_breakpad::Minidump::MinidumpStreamInfo>, std::priv::_Select1st<std::pair<unsigned int const, google_breakpad::Minidump::MinidumpStreamInfo> >, std::priv::_MapTraitsT<std::pair<unsigned int const, google_breakpad::Minidump::MinidumpStreamInfo> >, std::allocator<std::pair<unsigned int const, google_breakpad::Minidump::MinidumpStreamInfo> > >::_M_erase
FUNC 4b718 94 0 google_breakpad::Minidump::~Minidump
FUNC 4b7ac 12 0 google_breakpad::Minidump::~Minidump
FUNC 4b7be 40 0 std::_M_init_noskip<char, std::char_traits<char> >
FUNC 4b800 e4 0 google_breakpad::Minidump::SeekSet
FUNC 4b8e4 1e4 0 google_breakpad::Minidump::SeekToStreamType
FUNC 4bac8 1f4 0 google_breakpad::Minidump::GetStream<google_breakpad::MinidumpException>
FUNC 4bcbc e 0 google_breakpad::Minidump::GetException
FUNC 4bccc 1f4 0 google_breakpad::Minidump::GetStream<google_breakpad::MinidumpSystemInfo>
FUNC 4bec0 e 0 google_breakpad::Minidump::GetSystemInfo
FUNC 4bed0 1f4 0 google_breakpad::Minidump::GetStream<google_breakpad::MinidumpThreadList>
FUNC 4c0c4 e 0 google_breakpad::Minidump::GetThreadList
FUNC 4c0d4 1f4 0 google_breakpad::Minidump::GetStream<google_breakpad::MinidumpModuleList>
FUNC 4c2c8 e 0 google_breakpad::Minidump::GetModuleList
FUNC 4c2d8 1f4 0 google_breakpad::Minidump::GetStream<google_breakpad::MinidumpMemoryList>
FUNC 4c4cc e 0 google_breakpad::Minidump::GetMemoryList
FUNC 4c4dc 284 0 google_breakpad::Minidump::Open
FUNC 4c760 48 0 google_breakpad::Minidump::Tell
FUNC 4c7a8 bc 0 google_breakpad::Minidump::GetContextCPUFlagsFromSystemInfo
FUNC 4c864 116 0 std::basic_istream<char, std::char_traits<char> >::read
FUNC 4c97c 114 0 google_breakpad::Minidump::ReadBytes
FUNC 4ca90 11a8 0 google_breakpad::MinidumpContext::Read
FUNC 4dc38 10c 0 google_breakpad::MinidumpThread::GetContext
FUNC 4dd44 11c 0 google_breakpad::MinidumpException::GetContext
FUNC 4de60 1c4 0 google_breakpad::MinidumpThread::Read
FUNC 4e024 220 0 google_breakpad::MinidumpModule::Read
FUNC 4e244 11c 0 google_breakpad::MinidumpException::Read
FUNC 4e360 17c 0 google_breakpad::MinidumpSystemInfo::Read
FUNC 4e4dc 240 0 google_breakpad::Minidump::ReadString
FUNC 4e71c 1b0 0 google_breakpad::MinidumpMemoryRegion::GetMemory
FUNC 4e8cc 1d0 0 google_breakpad::MinidumpMemoryRegion::GetMemoryAtAddressInternal<unsigned char>
FUNC 4ea9c 4 0 google_breakpad::MinidumpMemoryRegion::GetMemoryAtAddress
FUNC 4eaa8 1f0 0 google_breakpad::MinidumpMemoryRegion::GetMemoryAtAddressInternal<short unsigned int>
FUNC 4ec98 4 0 google_breakpad::MinidumpMemoryRegion::GetMemoryAtAddress
FUNC 4eca4 1f0 0 google_breakpad::MinidumpMemoryRegion::GetMemoryAtAddressInternal<unsigned int>
FUNC 4ee94 4 0 google_breakpad::MinidumpMemoryRegion::GetMemoryAtAddress
FUNC 4eea0 1f8 0 google_breakpad::MinidumpMemoryRegion::GetMemoryAtAddressInternal<long long unsigned int>
FUNC 4f098 4 0 google_breakpad::MinidumpMemoryRegion::GetMemoryAtAddress
FUNC 4f0a4 90 0 google_breakpad::MinidumpMemoryRegion::Print
FUNC 4f13c 358 0 google_breakpad::MinidumpModule::GetCVRecord
FUNC 4f494 27c 0 google_breakpad::MinidumpModule::GetMiscRecord
FUNC 4f710 124 0 google_breakpad::MinidumpModule::ReadAuxiliaryData
FUNC 4f834 64 0 std::priv::_Rb_tree<unsigned int, std::less<unsigned int>, std::pair<unsigned int const, google_breakpad::MinidumpThread*>, std::priv::_Select1st<std::pair<unsigned int const, google_breakpad::MinidumpThread*> >, std::priv::_MapTraitsT<std::pair<unsigned int const, google_breakpad::MinidumpThread*> >, std::allocator<std::pair<unsigned int const, google_breakpad::MinidumpThread*> > >::_M_insert
FUNC 4f898 70 0 std::priv::_Rb_tree<unsigned int, std::less<unsigned int>, std::pair<unsigned int const, google_breakpad::MinidumpThread*>, std::priv::_Select1st<std::pair<unsigned int const, google_breakpad::MinidumpThread*> >, std::priv::_MapTraitsT<std::pair<unsigned int const, google_breakpad::MinidumpThread*> >, std::allocator<std::pair<unsigned int const, google_breakpad::MinidumpThread*> > >::insert_unique
FUNC 4f908 f4 0 std::priv::_Rb_tree<unsigned int, std::less<unsigned int>, std::pair<unsigned int const, google_breakpad::MinidumpThread*>, std::priv::_Select1st<std::pair<unsigned int const, google_breakpad::MinidumpThread*> >, std::priv::_MapTraitsT<std::pair<unsigned int const, google_breakpad::MinidumpThread*> >, std::allocator<std::pair<unsigned int const, google_breakpad::MinidumpThread*> > >::insert_unique
FUNC 4f9fc 4c 0 std::map<unsigned int, google_breakpad::MinidumpThread*, std::less<unsigned int>, std::allocator<std::pair<unsigned int const, google_breakpad::MinidumpThread*> > >::operator[]<unsigned int>
FUNC 4fa48 18 0 google_breakpad::MinidumpThreadList::GetThreadByID
FUNC 4fa60 50c 0 google_breakpad::MinidumpThreadList::Read
FUNC 4ff6c 80 0 std::priv::_Rb_tree<long long unsigned int, std::less<long long unsigned int>, std::pair<long long unsigned int const, google_breakpad::RangeMap<long long unsigned int, unsigned int>::Range>, std::priv::_Select1st<std::pair<long long unsigned int const, google_breakpad::RangeMap<long long unsigned int, unsigned int>::Range> >, std::priv::_MapTraitsT<std::pair<long long unsigned int const, google_breakpad::RangeMap<long long unsigned int, unsigned int>::Range> >, std::allocator<std::pair<long long unsigned int const, google_breakpad::RangeMap<long long unsigned int, unsigned int>::Range> > >::_M_insert
FUNC 4ffec 1e8 0 google_breakpad::RangeMap<long long unsigned int, unsigned int>::StoreRange
FUNC 501d4 630 0 google_breakpad::MinidumpModuleList::Read
FUNC 50804 61c 0 google_breakpad::MinidumpMemoryList::Read
FUNC 50e20 64 0 std::priv::_Rb_tree<unsigned int, std::less<unsigned int>, std::pair<unsigned int const, google_breakpad::Minidump::MinidumpStreamInfo>, std::priv::_Select1st<std::pair<unsigned int const, google_breakpad::Minidump::MinidumpStreamInfo> >, std::priv::_MapTraitsT<std::pair<unsigned int const, google_breakpad::Minidump::MinidumpStreamInfo> >, std::allocator<std::pair<unsigned int const, google_breakpad::Minidump::MinidumpStreamInfo> > >::_M_insert
FUNC 50e84 70 0 std::priv::_Rb_tree<unsigned int, std::less<unsigned int>, std::pair<unsigned int const, google_breakpad::Minidump::MinidumpStreamInfo>, std::priv::_Select1st<std::pair<unsigned int const, google_breakpad::Minidump::MinidumpStreamInfo> >, std::priv::_MapTraitsT<std::pair<unsigned int const, google_breakpad::Minidump::MinidumpStreamInfo> >, std::allocator<std::pair<unsigned int const, google_breakpad::Minidump::MinidumpStreamInfo> > >::insert_unique
FUNC 50ef4 f4 0 std::priv::_Rb_tree<unsigned int, std::less<unsigned int>, std::pair<unsigned int const, google_breakpad::Minidump::MinidumpStreamInfo>, std::priv::_Select1st<std::pair<unsigned int const, google_breakpad::Minidump::MinidumpStreamInfo> >, std::priv::_MapTraitsT<std::pair<unsigned int const, google_breakpad::Minidump::MinidumpStreamInfo> >, std::allocator<std::pair<unsigned int const, google_breakpad::Minidump::MinidumpStreamInfo> > >::insert_unique
FUNC 50fe8 5a8 0 google_breakpad::Minidump::Read
FUNC 51590 66 0 std::basic_filebuf<char, std::char_traits<char> >::_M_allocate_buffers
FUNC 515f6 26 0 std::basic_filebuf<char, std::char_traits<char> >::setbuf
FUNC 5161c 140 0 std::basic_filebuf<char, std::char_traits<char> >::overflow
FUNC 5175c c0 0 std::basic_filebuf<char, std::char_traits<char> >::~basic_filebuf
FUNC 5181c 12 0 std::basic_filebuf<char, std::char_traits<char> >::~basic_filebuf
FUNC 51830 6c 0 std::basic_ifstream<char, std::char_traits<char> >::~basic_ifstream
FUNC 5189c 8 0 std::basic_ifstream<char, std::char_traits<char> >::~basic_ifstream
FUNC 518b0 12 0 std::basic_ifstream<char, std::char_traits<char> >::~basic_ifstream
FUNC 518ce 70 0 std::basic_filebuf<char, std::char_traits<char> >::_M_seek_init
FUNC 5193e 4e 0 std::basic_filebuf<char, std::char_traits<char> >::_M_seek_return
FUNC 5198c 52 0 std::basic_filebuf<char, std::char_traits<char> >::seekpos
FUNC 519de 12c 0 std::basic_filebuf<char, std::char_traits<char> >::seekoff
FUNC 51b0a a0 0 std::basic_string<char, std::char_traits<char>, std::allocator<char> >::rfind
FUNC 51bac a8 0 google_breakpad::PathnameStripper::File
FUNC 51c54 6 0 google_breakpad::BasicCodeModules::module_count
FUNC 51c5a a 0 google_breakpad::BasicCodeModules::GetMainModule
FUNC 51c64 6 0 google_breakpad::BasicCodeModules::GetModuleAtIndex
FUNC 51c6a 24 0 google_breakpad::linked_ptr<const google_breakpad::CodeModule>::depart
FUNC 51c8e 28 0 std::priv::_Rb_tree<long long unsigned int, std::less<long long unsigned int>, std::pair<long long unsigned int const, google_breakpad::RangeMap<long long unsigned int, google_breakpad::linked_ptr<const google_breakpad::CodeModule> >::Range>, std::priv::_Select1st<std::pair<long long unsigned int const, google_breakpad::RangeMap<long long unsigned int, google_breakpad::linked_ptr<const google_breakpad::CodeModule> >::Range> >, std::priv::_MapTraitsT<std::pair<long long unsigned int const, google_breakpad::RangeMap<long long unsigned int, google_breakpad::linked_ptr<const google_breakpad::CodeModule> >::Range> >, std::allocator<std::pair<long long unsigned int const, google_breakpad::RangeMap<long long unsigned int, google_breakpad::linked_ptr<const google_breakpad::CodeModule> >::Range> > >::_M_erase
FUNC 51cb8 2c 0 google_breakpad::BasicCodeModules::~BasicCodeModules
FUNC 51ce4 12 0 google_breakpad::BasicCodeModules::~BasicCodeModules
FUNC 51cf6 24 0 google_breakpad::linked_ptr<const google_breakpad::CodeModule>::copy<const google_breakpad::CodeModule>
FUNC 51d1c e8 0 google_breakpad::BasicCodeModules::GetModuleForAddress
FUNC 51e04 3e 0 std::priv::_Rb_tree<long long unsigned int, std::less<long long unsigned int>, std::pair<long long unsigned int const, google_breakpad::RangeMap<long long unsigned int, google_breakpad::linked_ptr<const google_breakpad::CodeModule> >::Range>, std::priv::_Select1st<std::pair<long long unsigned int const, google_breakpad::RangeMap<long long unsigned int, google_breakpad::linked_ptr<const google_breakpad::CodeModule> >::Range> >, std::priv::_MapTraitsT<std::pair<long long unsigned int const, google_breakpad::RangeMap<long long unsigned int, google_breakpad::linked_ptr<const google_breakpad::CodeModule> >::Range> >, std::allocator<std::pair<long long unsigned int const, google_breakpad::RangeMap<long long unsigned int, google_breakpad::linked_ptr<const google_breakpad::CodeModule> >::Range> > >::_M_create_node
FUNC 51e44 194 0 google_breakpad::BasicCodeModules::GetModuleAtSequence
FUNC 51fd8 80 0 std::priv::_Rb_tree<long long unsigned int, std::less<long long unsigned int>, std::pair<long long unsigned int const, google_breakpad::RangeMap<long long unsigned int, google_breakpad::linked_ptr<const google_breakpad::CodeModule> >::Range>, std::priv::_Select1st<std::pair<long long unsigned int const, google_breakpad::RangeMap<long long unsigned int, google_breakpad::linked_ptr<const google_breakpad::CodeModule> >::Range> >, std::priv::_MapTraitsT<std::pair<long long unsigned int const, google_breakpad::RangeMap<long long unsigned int, google_breakpad::linked_ptr<const google_breakpad::CodeModule> >::Range> >, std::allocator<std::pair<long long unsigned int const, google_breakpad::RangeMap<long long unsigned int, google_breakpad::linked_ptr<const google_breakpad::CodeModule> >::Range> > >::_M_insert
FUNC 52058 218 0 google_breakpad::RangeMap<long long unsigned int, google_breakpad::linked_ptr<const google_breakpad::CodeModule> >::StoreRange
FUNC 52270 174 0 google_breakpad::BasicCodeModules::BasicCodeModules
FUNC 523e4 16 0 google_breakpad::BasicCodeModules::Copy
FUNC 523fc 2c 0 CxaThreadKey::freeObject
FUNC 52428 58 0 CxaThreadKey::~CxaThreadKey
FUNC 52480 18 0 __cxxabiv1::__shim_type_info::~__shim_type_info
FUNC 52498 12 0 __cxxabiv1::__shim_type_info::~__shim_type_info
FUNC 524ac 10 0 __cxxabiv1::__cxa_pure_virtual
FUNC 524bc f8 0 __cxxabiv1::__cxa_get_globals
FUNC 525b4 2c 0 throwException
FUNC 525e0 20 0 __cxxabiv1::__cxa_get_globals_fast
FUNC 52600 34 0 __cxxabiv1::__cxa_allocate_exception
FUNC 52634 40 0 __cxxabiv1::__cxa_free_exception
FUNC 52674 8 0 defaultExceptionCleanupFunc
FUNC 52680 34 0 __cxxabiv1::__cxa_throw
FUNC 526b8 44 0 __cxxabiv1::__cxa_rethrow
FUNC 52700 74 0 __cxxabiv1::__cxa_begin_catch
FUNC 52778 7c 0 __cxxabiv1::__cxa_end_catch
FUNC 527f8 8 0 operator delete(void*)
FUNC 52800 4 0 operator delete[](void*)
FUNC 52804 10 0 std::bad_exception::~bad_exception
FUNC 52804 10 0 std::exception::exception
FUNC 52804 10 0 std::exception::~exception
FUNC 52814 c 0 std::exception::what() const
FUNC 52820 c 0 std::bad_exception::what() const
FUNC 5282c 18 0 std::bad_exception::~bad_exception
FUNC 5282c 18 0 std::exception::~exception
FUNC 52844 10 0 std::bad_exception::bad_exception
FUNC 52854 10 0 std::uncaught_exception()
FUNC 52864 5c 0 __gabixx::__fatal_error(char const*)
FUNC 528c0 a 0 __cxxabiv1::call_terminate(_Unwind_Control_Block*)
FUNC 528cc a 0 __cxxabiv1::decodeRelocTarget2
FUNC 528d8 1a 0 __cxxabiv1::getTypePtr(unsigned long long, unsigned char const*, unsigned char, _Unwind_Control_Block*)
FUNC 528f4 3c 0 __cxxabiv1::canExceptionSpecCatch(long long, unsigned char const*, unsigned char, std::type_info const*, void*, _Unwind_Control_Block*)
FUNC 52930 2b4 0 __cxxabiv1::scanEHTable(__cxxabiv1::ScanResultInternal&, int, bool, _Unwind_Control_Block*, _Unwind_Context*)
FUNC 52be4 5c 0 __cxxabiv1::setRegisters(_Unwind_Control_Block*, _Unwind_Context*, __cxxabiv1::ScanResultInternal const&)
FUNC 52c40 10 0 __cxxabiv1::continueUnwinding(_Unwind_Control_Block*, _Unwind_Context*)
FUNC 52c50 2c 0 __cxxabiv1::saveDataToBarrierCache(_Unwind_Control_Block*, _Unwind_Context*, __cxxabiv1::ScanResultInternal const&)
FUNC 52c7c 16 0 __cxxabiv1::loadDataFromBarrierCache(_Unwind_Control_Block*, __cxxabiv1::ScanResultInternal&)
FUNC 52c94 4 0 __cxxabiv1::prepareBeginCleanup(_Unwind_Control_Block*)
FUNC 52c98 6e 0 __cxxabiv1::saveUnexpectedDataToBarrierCache(_Unwind_Control_Block*, _Unwind_Context*, __cxxabiv1::ScanResultInternal const&)
FUNC 52d08 c 0 std::bad_alloc::what() const
FUNC 52d14 18 0 std::bad_alloc::~bad_alloc
FUNC 52d2c 12 0 std::bad_alloc::~bad_alloc
FUNC 52d40 18 0 std::bad_alloc::bad_alloc
FUNC 52d58 2c 0 std::get_new_handler()
FUNC 52d84 48 0 operator new(unsigned int)
FUNC 52dcc 14 0 operator new[](unsigned int)
FUNC 52de0 168 0 __cxxabiv1::__gxx_personality_v0
FUNC 52f48 18 0 __cxxabiv1::__si_class_type_info::~__si_class_type_info
FUNC 52f60 12 0 __cxxabiv1::__si_class_type_info::~__si_class_type_info
FUNC 52f74 24 0 __cxxabiv1::__si_class_type_info::walk_to(__cxxabiv1::__class_type_info const*, void*&, __cxxabiv1::__UpcastInfo&) const
FUNC 52f98 12 0 __gabixx::__default_terminate()
FUNC 52fac 24 0 __gabixx::__terminate(void (*)())
FUNC 52fd0 2c 0 std::get_terminate()
FUNC 52ffc a 0 std::terminate()
FUNC 53008 6 0 __gabixx::__default_unexpected()
FUNC 53010 2c 0 std::get_unexpected()
FUNC 5303c e 0 std::unexpected()
FUNC 5304c 10 0 std::type_info::~type_info
FUNC 5305c c 0 std::bad_cast::what() const
FUNC 53068 18 0 std::type_info::~type_info
FUNC 53080 18 0 std::bad_cast::~bad_cast
FUNC 53098 12 0 std::bad_cast::~bad_cast
FUNC 530ac 14 0 std::type_info::operator==(std::type_info const&) const
FUNC 530c0 e 0 std::type_info::operator!=(std::type_info const&) const
FUNC 530d0 18 0 std::bad_cast::bad_cast
FUNC 530e8 6 0 std::__Named_exception::what() const
FUNC 530f0 2c 0 std::__Named_exception::~__Named_exception
FUNC 5311c 1c 0 std::logic_error::~logic_error
FUNC 53138 1c 0 std::out_of_range::~out_of_range
FUNC 53154 12 0 std::out_of_range::~out_of_range
FUNC 53168 1c 0 std::length_error::~length_error
FUNC 53184 12 0 std::length_error::~length_error
FUNC 53198 12 0 std::logic_error::~logic_error
FUNC 531ac 12 0 std::__Named_exception::~__Named_exception
FUNC 531c0 74 0 std::__Named_exception::__Named_exception
FUNC 53234 24 0 std::priv::_String_base<char, std::allocator<char> >::~_String_base
FUNC 53258 40 0 std::basic_string<char, std::char_traits<char>, std::allocator<char> >::basic_string
FUNC 53298 60 0 std::__stl_throw_out_of_range(char const*)
FUNC 532f8 60 0 std::__stl_throw_length_error(char const*)
FUNC 53358 10 0 std::_Filebuf_base::_Filebuf_base
FUNC 53368 18 0 std::_Filebuf_base::_S_initialize()
FUNC 53380 32 0 std::_Filebuf_base::_M_file_size()
FUNC 533b4 e0 0 std::_Filebuf_base::_M_open(char const*, int, long)
FUNC 53494 8 0 std::_Filebuf_base::_M_open(char const*, int)
FUNC 5349c 78 0 std::_Filebuf_base::_M_open(int, int)
FUNC 53514 28 0 std::_Filebuf_base::_M_close()
FUNC 5353c 6 0 std::_Filebuf_base::_M_read(char*, int)
FUNC 53544 34 0 std::_Filebuf_base::_M_write(char*, int)
FUNC 53578 42 0 std::_Filebuf_base::_M_seek(long, int)
FUNC 535bc 8 0 std::_Filebuf_base::_M_unmap(void*, long)
FUNC 535c4 48 0 std::_Filebuf_base::_M_mmap(long, long)
FUNC 5360c 128 0 std::basic_filebuf<char, std::char_traits<char> >::_M_underflow_aux()
FUNC 53734 5c 0 std::basic_filebuf<char, std::char_traits<char> >::_M_switch_to_input_mode()
FUNC 53790 ec 0 std::_Underflow<char, std::char_traits<char> >::_M_doit(std::basic_filebuf<char, std::char_traits<char> >*)
FUNC 5387c 1c 0 std::ios_base::failure::~failure
FUNC 53898 12 0 std::ios_base::failure::~failure
FUNC 538ac 1c 0 std::ios_base::failure::failure
FUNC 538c8 28 0 std::ios_base::_M_invoke_callbacks(std::ios_base::event)
FUNC 538f0 44 0 std::ios_base::~ios_base
FUNC 53934 12 0 std::ios_base::~ios_base
FUNC 53948 60 0 std::ios_base::imbue(std::locale const&)
FUNC 539a8 3c 0 std::ios_base::ios_base
FUNC 539e4 78 0 std::ios_base::_M_throw_failure()
FUNC 53a5c 2 0 _Locale_final
FUNC 53a5c 2 0 std::_Locale_impl::_S_uninitialize()
FUNC 53a5c 2 0 std::basic_streambuf<wchar_t, std::char_traits<wchar_t> >::imbue(std::locale const&)
FUNC 53a5c 2 0 std::basic_streambuf<wchar_t, std::char_traits<wchar_t> >::setbuf(wchar_t*, int)
FUNC 53a5c 2 0 std::messages<char>::do_close(int) const
FUNC 53a5c 2 0 std::messages<wchar_t>::do_close(int) const
FUNC 53a60 c 0 std::basic_streambuf<wchar_t, std::char_traits<wchar_t> >::seekoff(long, int, int)
FUNC 53a6c 16 0 std::basic_streambuf<wchar_t, std::char_traits<wchar_t> >::seekpos(std::fpos<mbstate_t>, int)
FUNC 53a84 6 0 std::basic_streambuf<wchar_t, std::char_traits<wchar_t> >::overflow(unsigned int)
FUNC 53a84 6 0 std::basic_streambuf<wchar_t, std::char_traits<wchar_t> >::pbackfail(unsigned int)
FUNC 53a84 6 0 std::basic_streambuf<wchar_t, std::char_traits<wchar_t> >::underflow()
FUNC 53a84 6 0 std::messages<char>::do_open(std::string const&, std::locale const&) const
FUNC 53a84 6 0 std::messages<wchar_t>::do_open(std::string const&, std::locale const&) const
FUNC 53a84 6 0 std::priv::stdio_ostreambuf::showmanyc()
FUNC 53a8c 5c 0 std::basic_streambuf<wchar_t, std::char_traits<wchar_t> >::_M_xsputnc(wchar_t, int)
FUNC 53ae8 62 0 std::basic_streambuf<wchar_t, std::char_traits<wchar_t> >::xsputn(wchar_t const*, int)
FUNC 53b4c 64 0 std::basic_streambuf<wchar_t, std::char_traits<wchar_t> >::xsgetn(wchar_t*, int)
FUNC 53bb0 18 0 std::basic_ios<wchar_t, std::char_traits<wchar_t> >::~basic_ios
FUNC 53bc8 1c 0 std::basic_streambuf<wchar_t, std::char_traits<wchar_t> >::~basic_streambuf
FUNC 53be4 12 0 std::basic_streambuf<wchar_t, std::char_traits<wchar_t> >::~basic_streambuf
FUNC 53bf8 1e 0 std::basic_filebuf<wchar_t, std::char_traits<wchar_t> >::sync()
FUNC 53c18 6a 0 std::basic_filebuf<wchar_t, std::char_traits<wchar_t> >::_M_unshift()
FUNC 53c84 58 0 std::basic_filebuf<wchar_t, std::char_traits<wchar_t> >::showmanyc()
FUNC 53cdc 18 0 std::basic_streambuf<wchar_t, std::char_traits<wchar_t> >::uflow()
FUNC 53cf4 8a 0 std::basic_filebuf<wchar_t, std::char_traits<wchar_t> >::pbackfail(unsigned int)
FUNC 53d8c 2c 0 std::basic_istream<wchar_t, std::char_traits<wchar_t> >::~basic_istream
FUNC 53dc4 28 0 std::basic_ostream<wchar_t, std::char_traits<wchar_t> >::~basic_ostream
FUNC 53df8 12 0 std::basic_ostream<wchar_t, std::char_traits<wchar_t> >::~basic_ostream
FUNC 53e0c 20 0 std::basic_ios<wchar_t, std::char_traits<wchar_t> >::~basic_ios
FUNC 53e38 28 0 std::basic_istream<wchar_t, std::char_traits<wchar_t> >::~basic_istream
FUNC 53e60 1e 0 std::auto_ptr<std::basic_filebuf<wchar_t, std::char_traits<wchar_t> > >::~auto_ptr
FUNC 53e60 1e 0 std::auto_ptr<std::basic_streambuf<char, std::char_traits<char> > >::~auto_ptr
FUNC 53e80 1e 0 std::basic_ios<char, std::char_traits<char> >::rdbuf(std::basic_streambuf<char, std::char_traits<char> >*)
FUNC 53ea0 1e 0 std::basic_ios<wchar_t, std::char_traits<wchar_t> >::rdbuf(std::basic_streambuf<wchar_t, std::char_traits<wchar_t> >*)
FUNC 53ec0 22c 0 std::ios_base::_S_uninitialize()
FUNC 540ec 28 0 std::ios_base::Init::~Init
FUNC 54114 90 0 std::basic_filebuf<wchar_t, std::char_traits<wchar_t> >::_M_setup_codecvt(std::locale const&, bool)
FUNC 541a4 12 0 std::basic_filebuf<wchar_t, std::char_traits<wchar_t> >::imbue(std::locale const&)
FUNC 541b8 ac 0 std::basic_filebuf<wchar_t, std::char_traits<wchar_t> >::basic_filebuf
FUNC 54264 56 0 std::_Stl_create_wfilebuf
FUNC 542bc 90 0 std::basic_filebuf<char, std::char_traits<char> >::_M_setup_codecvt(std::locale const&, bool)
FUNC 5434c ac 0 std::basic_filebuf<char, std::char_traits<char> >::basic_filebuf
FUNC 543f8 5a 0 std::_Stl_create_filebuf<__sFILE*>
FUNC 54454 40 0 std::basic_ostream<char, std::char_traits<char> >::basic_ostream
FUNC 54494 90 0 std::basic_ios<wchar_t, std::char_traits<wchar_t> >::imbue(std::locale const&)
FUNC 54524 5e 0 std::basic_ios<wchar_t, std::char_traits<wchar_t> >::init(std::basic_streambuf<wchar_t, std::char_traits<wchar_t> >*)
FUNC 54584 40 0 std::basic_ostream<wchar_t, std::char_traits<wchar_t> >::basic_ostream
FUNC 545c4 388 0 std::ios_base::_S_initialize()
FUNC 5494c 2c 0 std::ios_base::Init::Init
FUNC 54978 20 0 std::basic_filebuf<wchar_t, std::char_traits<wchar_t> >::_M_exit_input_mode()
FUNC 54998 9e 0 std::basic_filebuf<wchar_t, std::char_traits<wchar_t> >::close()
FUNC 54a38 48 0 std::basic_filebuf<wchar_t, std::char_traits<wchar_t> >::~basic_filebuf
FUNC 54a80 12 0 std::basic_filebuf<wchar_t, std::char_traits<wchar_t> >::~basic_filebuf
FUNC 54a94 74 0 std::basic_filebuf<wchar_t, std::char_traits<wchar_t> >::_M_allocate_buffers(wchar_t*, int)
FUNC 54b08 2c 0 std::basic_filebuf<wchar_t, std::char_traits<wchar_t> >::_M_allocate_buffers()
FUNC 54b34 52 0 std::basic_filebuf<wchar_t, std::char_traits<wchar_t> >::_M_switch_to_output_mode()
FUNC 54b88 11c 0 std::basic_filebuf<wchar_t, std::char_traits<wchar_t> >::overflow(unsigned int)
FUNC 54ca4 52 0 std::basic_filebuf<wchar_t, std::char_traits<wchar_t> >::setbuf(wchar_t*, int)
FUNC 54cf8 86 0 std::basic_filebuf<wchar_t, std::char_traits<wchar_t> >::_M_seek_init(bool)
FUNC 54d80 84 0 std::basic_filebuf<wchar_t, std::char_traits<wchar_t> >::seekpos(std::fpos<mbstate_t>, int)
FUNC 54e04 1b4 0 std::basic_filebuf<wchar_t, std::char_traits<wchar_t> >::seekoff(long, int, int)
FUNC 54fb8 112 0 std::basic_filebuf<wchar_t, std::char_traits<wchar_t> >::_M_underflow_aux()
FUNC 550cc 76 0 std::basic_filebuf<wchar_t, std::char_traits<wchar_t> >::underflow()
FUNC 55144 1c 0 std::locale::facet::~facet
FUNC 55160 12 0 std::locale::facet::~facet
FUNC 55174 20 0 std::locale::locale
FUNC 55194 1c 0 std::locale::locale
FUNC 551b0 10 0 std::locale::locale
FUNC 551c0 1c 0 std::locale::~locale
FUNC 551dc 2e 0 std::locale::operator=(std::locale const&)
FUNC 5520c 18 0 std::locale::_M_get_facet(std::locale::id const&) const
FUNC 55224 1e 0 std::locale::_M_use_facet(std::locale::id const&) const
FUNC 55244 10 0 std::locale::name() const
FUNC 55254 ce 0 std::locale::operator==(std::locale const&) const
FUNC 55324 e 0 std::locale::operator!=(std::locale const&) const
FUNC 55334 6 0 std::time_get<wchar_t, std::istreambuf_iterator<wchar_t, std::char_traits<wchar_t> > >::do_date_order() const
FUNC 5533c 6 0 std::time_get<char, std::istreambuf_iterator<char, std::char_traits<char> > >::do_date_order() const
FUNC 55344 18 0 std::num_put<char, std::ostreambuf_iterator<char, std::char_traits<char> > >::~num_put
FUNC 5535c 18 0 std::num_get<char, std::istreambuf_iterator<char, std::char_traits<char> > >::~num_get
FUNC 55374 18 0 std::num_get<wchar_t, std::istreambuf_iterator<wchar_t, std::char_traits<wchar_t> > >::~num_get
FUNC 5538c 18 0 std::num_put<wchar_t, std::ostreambuf_iterator<wchar_t, std::char_traits<wchar_t> > >::~num_put
FUNC 553a4 18 0 std::money_get<char, std::istreambuf_iterator<char, std::char_traits<char> > >::~money_get
FUNC 553bc 18 0 std::money_put<char, std::ostreambuf_iterator<char, std::char_traits<char> > >::~money_put
FUNC 553d4 18 0 std::money_get<wchar_t, std::istreambuf_iterator<wchar_t, std::char_traits<wchar_t> > >::~money_get
FUNC 553ec 18 0 std::money_put<wchar_t, std::ostreambuf_iterator<wchar_t, std::char_traits<wchar_t> > >::~money_put
FUNC 55404 e 0 std::_Refcount_Base::~_Refcount_Base
FUNC 55414 10a 0 std::priv::__write_integer_backward<long int>
FUNC 55520 de 0 std::priv::__write_integer_backward<long unsigned int>
FUNC 55600 10c 0 std::priv::__write_integer_backward<long long int>
FUNC 5570c ee 0 std::priv::__write_integer_backward<long long unsigned int>
FUNC 557fc 20 0 std::money_put<wchar_t, std::ostreambuf_iterator<wchar_t, std::char_traits<wchar_t> > >::~money_put
FUNC 5581c 20 0 std::money_get<wchar_t, std::istreambuf_iterator<wchar_t, std::char_traits<wchar_t> > >::~money_get
FUNC 5583c 20 0 std::money_put<char, std::ostreambuf_iterator<char, std::char_traits<char> > >::~money_put
FUNC 5585c 20 0 std::money_get<char, std::istreambuf_iterator<char, std::char_traits<char> > >::~money_get
FUNC 5587c 20 0 std::num_get<wchar_t, std::istreambuf_iterator<wchar_t, std::char_traits<wchar_t> > >::~num_get
FUNC 5589c 20 0 std::num_put<wchar_t, std::ostreambuf_iterator<wchar_t, std::char_traits<wchar_t> > >::~num_put
FUNC 558bc 20 0 std::num_put<char, std::ostreambuf_iterator<char, std::char_traits<char> > >::~num_put
FUNC 558dc 20 0 std::num_get<char, std::istreambuf_iterator<char, std::char_traits<char> > >::~num_get
FUNC 558fc 6a 0 std::istreambuf_iterator<wchar_t, std::char_traits<wchar_t> >::operator++(int)
FUNC 55968 66 0 std::istreambuf_iterator<char, std::char_traits<char> >::operator++(int)
FUNC 559d0 30 0 std::_release_facet
FUNC 55a00 74 0 std::_Locale_impl::Init::_M_count() const
FUNC 55a74 28 0 std::_Locale_impl::Init::~Init
FUNC 55a9c 28 0 std::_Locale_impl::_M_throw_bad_cast()
FUNC 55ac4 1c 0 std::_get_Locale_impl(std::_Locale_impl*)
FUNC 55ae0 c 0 std::priv::_GetFacetId(std::num_put<char, std::ostreambuf_iterator<char, std::char_traits<char> > > const*)
FUNC 55aec 24 0 std::vector<std::locale::facet*, std::allocator<std::locale::facet*> >::~vector
FUNC 55b10 c4 0 std::vector<std::locale::facet*, std::allocator<std::locale::facet*> >::reserve(unsigned int)
FUNC 55bd4 56 0 std::priv::_Time_Info_Base::~_Time_Info_Base
FUNC 55c2c 74 0 std::_Locale_impl::~_Locale_impl
FUNC 55ca0 4c 0 std::_release_Locale_impl(std::_Locale_impl*&)
FUNC 55cec f0 0 std::priv::time_init<char>::~time_init
FUNC 55ddc 2c 0 std::time_get<char, std::istreambuf_iterator<char, std::char_traits<char> > >::~time_get
FUNC 55e08 2c 0 std::time_put<char, std::ostreambuf_iterator<char, std::char_traits<char> > >::~time_put
FUNC 55e34 30 0 std::time_get<char, std::istreambuf_iterator<char, std::char_traits<char> > >::~time_get
FUNC 55e64 30 0 std::time_put<char, std::ostreambuf_iterator<char, std::char_traits<char> > >::~time_put
FUNC 55e94 20 0 std::priv::_String_base<wchar_t, std::allocator<wchar_t> >::_M_deallocate_block()
FUNC 55eb4 14a 0 std::priv::time_init<wchar_t>::~time_init
FUNC 56000 2c 0 std::time_get<wchar_t, std::istreambuf_iterator<wchar_t, std::char_traits<wchar_t> > >::~time_get
FUNC 5602c 2c 0 std::time_put<wchar_t, std::ostreambuf_iterator<wchar_t, std::char_traits<wchar_t> > >::~time_put
FUNC 56058 30 0 std::time_get<wchar_t, std::istreambuf_iterator<wchar_t, std::char_traits<wchar_t> > >::~time_get
FUNC 56088 30 0 std::time_put<wchar_t, std::ostreambuf_iterator<wchar_t, std::char_traits<wchar_t> > >::~time_put
FUNC 560b8 24 0 std::priv::_String_base<char, std::priv::__iostring_allocator<char> >::_M_deallocate_block()
FUNC 560dc 40 0 std::basic_string<char, std::char_traits<char>, std::allocator<char> >::basic_string
FUNC 5611c 68 0 std::_Locale_impl::_Locale_impl
FUNC 56184 59c 0 std::_Locale_impl::make_classic_locale()
FUNC 56720 b8 0 std::_Locale_impl::_S_initialize()
FUNC 567d8 2e 0 std::_Locale_impl::Init::Init
FUNC 56808 70 0 std::_Stl_get_global_locale()
FUNC 56878 48 0 std::priv::_String_base<wchar_t, std::allocator<wchar_t> >::_M_allocate_block(unsigned int)
FUNC 568c0 3c 0 std::priv::_String_base<char, std::priv::__iostring_allocator<char> >::_M_allocate_block(unsigned int)
FUNC 568fc 144 0 std::time_put<char, std::ostreambuf_iterator<char, std::char_traits<char> > >::do_put(std::ostreambuf_iterator<char, std::char_traits<char> >, std::ios_base&, char, tm const*, char, char) const
FUNC 56a40 32 0 std::priv::__basic_iostring<wchar_t>::~__basic_iostring
FUNC 56a74 8e 0 std::copy<wchar_t const*, std::ostreambuf_iterator<wchar_t, std::char_traits<wchar_t> > >
FUNC 56a74 8e 0 std::copy<wchar_t*, std::ostreambuf_iterator<wchar_t, std::char_traits<wchar_t> > >
FUNC 56b04 8e 0 std::copy<char const*, std::ostreambuf_iterator<char, std::char_traits<char> > >
FUNC 56b04 8e 0 std::copy<char*, std::ostreambuf_iterator<char, std::char_traits<char> > >
FUNC 56b94 28c 0 std::ostreambuf_iterator<wchar_t, std::char_traits<wchar_t> > std::priv::__do_put_bool<wchar_t, std::ostreambuf_iterator<wchar_t, std::char_traits<wchar_t> > >(std::ostreambuf_iterator<wchar_t, std::char_traits<wchar_t> >, std::ios_base&, wchar_t, bool)
FUNC 56e20 44 0 std::num_put<wchar_t, std::ostreambuf_iterator<wchar_t, std::char_traits<wchar_t> > >::do_put(std::ostreambuf_iterator<wchar_t, std::char_traits<wchar_t> >, std::ios_base&, wchar_t, bool) const
FUNC 56e64 2dc 0 std::ostreambuf_iterator<char, std::char_traits<char> > std::priv::__do_put_bool<char, std::ostreambuf_iterator<char, std::char_traits<char> > >(std::ostreambuf_iterator<char, std::char_traits<char> >, std::ios_base&, char, bool)
FUNC 57140 46 0 std::num_put<char, std::ostreambuf_iterator<char, std::char_traits<char> > >::do_put(std::ostreambuf_iterator<char, std::char_traits<char> >, std::ios_base&, char, bool) const
FUNC 57188 154 0 std::pair<std::istreambuf_iterator<wchar_t, std::char_traits<wchar_t> >, bool> std::priv::__get_string<std::istreambuf_iterator<wchar_t, std::char_traits<wchar_t> >, wchar_t*>(std::istreambuf_iterator<wchar_t, std::char_traits<wchar_t> >, std::istreambuf_iterator<wchar_t, std::char_traits<wchar_t> >, wchar_t*, wchar_t*)
FUNC 572e0 168 0 bool std::priv::__get_integer<wchar_t*, long double, wchar_t>(wchar_t*&, wchar_t*&, int, long double&, int, bool, wchar_t, std::string const&, std::__false_type const&)
FUNC 57448 134 0 std::basic_string<char, std::char_traits<char>, std::priv::__iostring_allocator<char> >& std::basic_string<char, std::char_traits<char>, std::priv::__iostring_allocator<char> >::assign<char const*>(char const*, char const*)
FUNC 5757c 8c4 0 std::ostreambuf_iterator<char, std::char_traits<char> > std::priv::__money_do_put<char, std::ostreambuf_iterator<char, std::char_traits<char> >, std::string, std::string>(std::ostreambuf_iterator<char, std::char_traits<char> >, bool, std::ios_base&, char, std::string const&, bool, std::string*)
FUNC 57e40 32 0 std::money_put<char, std::ostreambuf_iterator<char, std::char_traits<char> > >::do_put(std::ostreambuf_iterator<char, std::char_traits<char> >, bool, std::ios_base&, char, std::string const&) const
FUNC 57e74 8c4 0 std::ostreambuf_iterator<char, std::char_traits<char> > std::priv::__money_do_put<char, std::ostreambuf_iterator<char, std::char_traits<char> >, std::string, std::priv::__basic_iostring<char> >(std::ostreambuf_iterator<char, std::char_traits<char> >, bool, std::ios_base&, char, std::priv::__basic_iostring<char> const&, bool, std::string*)
FUNC 58738 9c 0 std::money_put<char, std::ostreambuf_iterator<char, std::char_traits<char> > >::do_put(std::ostreambuf_iterator<char, std::char_traits<char> >, bool, std::ios_base&, char, long double) const
FUNC 587d8 168 0 bool std::priv::__get_integer<char*, long double, char>(char*&, char*&, int, long double&, int, bool, char, std::string const&, std::__false_type const&)
FUNC 58940 1e8 0 unsigned int std::priv::__match<std::istreambuf_iterator<wchar_t, std::char_traits<wchar_t> >, std::basic_string<wchar_t, std::char_traits<wchar_t>, std::allocator<wchar_t> > const*>(std::istreambuf_iterator<wchar_t, std::char_traits<wchar_t> >&, std::istreambuf_iterator<wchar_t, std::char_traits<wchar_t> >&, std::basic_string<wchar_t, std::char_traits<wchar_t>, std::allocator<wchar_t> > const*, std::basic_string<wchar_t, std::char_traits<wchar_t>, std::allocator<wchar_t> > const*)
FUNC 58b28 84 0 std::istreambuf_iterator<wchar_t, std::char_traits<wchar_t> >::equal(std::istreambuf_iterator<wchar_t, std::char_traits<wchar_t> > const&) const
FUNC 58bac 78 0 std::time_get<wchar_t, std::istreambuf_iterator<wchar_t, std::char_traits<wchar_t> > >::do_get_monthname(std::istreambuf_iterator<wchar_t, std::char_traits<wchar_t> >, std::istreambuf_iterator<wchar_t, std::char_traits<wchar_t> >, std::ios_base&, int&, tm*) const
FUNC 58c24 76 0 std::time_get<wchar_t, std::istreambuf_iterator<wchar_t, std::char_traits<wchar_t> > >::do_get_weekday(std::istreambuf_iterator<wchar_t, std::char_traits<wchar_t> >, std::istreambuf_iterator<wchar_t, std::char_traits<wchar_t> >, std::ios_base&, int&, tm*) const
FUNC 58c9c 284 0 std::istreambuf_iterator<wchar_t, std::char_traits<wchar_t> > std::priv::__do_get_alphabool<std::istreambuf_iterator<wchar_t, std::char_traits<wchar_t> >, wchar_t>(std::istreambuf_iterator<wchar_t, std::char_traits<wchar_t> >&, std::istreambuf_iterator<wchar_t, std::char_traits<wchar_t> >&, std::ios_base&, int&, bool&, wchar_t*)
FUNC 58f20 1ce 0 bool std::priv::__get_integer<std::istreambuf_iterator<wchar_t, std::char_traits<wchar_t> >, int, wchar_t>(std::istreambuf_iterator<wchar_t, std::char_traits<wchar_t> >&, std::istreambuf_iterator<wchar_t, std::char_traits<wchar_t> >&, int, int&, int, bool, wchar_t, std::string const&, std::__false_type const&)
FUNC 590f0 4e 0 std::priv::__get_decimal_integer<std::istreambuf_iterator<wchar_t, std::char_traits<wchar_t> >, int, wchar_t>
FUNC 59140 350 0 char const* std::priv::__get_formatted_time<std::istreambuf_iterator<wchar_t, std::char_traits<wchar_t> >, wchar_t, std::priv::_WTime_Info>(std::istreambuf_iterator<wchar_t, std::char_traits<wchar_t> >, std::istreambuf_iterator<wchar_t, std::char_traits<wchar_t> >, char const*, char const*, wchar_t*, std::priv::_WTime_Info const&, std::ios_base const&, int&, tm*)
FUNC 59490 8a 0 std::time_get<wchar_t, std::istreambuf_iterator<wchar_t, std::char_traits<wchar_t> > >::do_get_date(std::istreambuf_iterator<wchar_t, std::char_traits<wchar_t> >, std::istreambuf_iterator<wchar_t, std::char_traits<wchar_t> >, std::ios_base&, int&, tm*) const
FUNC 5951c 78 0 std::time_get<wchar_t, std::istreambuf_iterator<wchar_t, std::char_traits<wchar_t> > >::do_get_time(std::istreambuf_iterator<wchar_t, std::char_traits<wchar_t> >, std::istreambuf_iterator<wchar_t, std::char_traits<wchar_t> >, std::ios_base&, int&, tm*) const
FUNC 59594 6e 0 std::time_get<wchar_t, std::istreambuf_iterator<wchar_t, std::char_traits<wchar_t> > >::do_get_year(std::istreambuf_iterator<wchar_t, std::char_traits<wchar_t> >, std::istreambuf_iterator<wchar_t, std::char_traits<wchar_t> >, std::ios_base&, int&, tm*) const
FUNC 59604 84 0 std::istreambuf_iterator<char, std::char_traits<char> >::equal(std::istreambuf_iterator<char, std::char_traits<char> > const&) const
FUNC 59688 178 0 unsigned int std::priv::__match<std::istreambuf_iterator<char, std::char_traits<char> >, std::string const*>(std::istreambuf_iterator<char, std::char_traits<char> >&, std::istreambuf_iterator<char, std::char_traits<char> >&, std::string const*, std::string const*)
FUNC 59800 6e 0 std::time_get<char, std::istreambuf_iterator<char, std::char_traits<char> > >::do_get_monthname(std::istreambuf_iterator<char, std::char_traits<char> >, std::istreambuf_iterator<char, std::char_traits<char> >, std::ios_base&, int&, tm*) const
FUNC 59870 70 0 std::time_get<char, std::istreambuf_iterator<char, std::char_traits<char> > >::do_get_weekday(std::istreambuf_iterator<char, std::char_traits<char> >, std::istreambuf_iterator<char, std::char_traits<char> >, std::ios_base&, int&, tm*) const
FUNC 598e0 c0 0 std::pair<std::istreambuf_iterator<char, std::char_traits<char> >, bool> std::priv::__get_string<std::istreambuf_iterator<char, std::char_traits<char> >, char*>(std::istreambuf_iterator<char, std::char_traits<char> >, std::istreambuf_iterator<char, std::char_traits<char> >, char*, char*)
FUNC 599a0 198 0 std::istreambuf_iterator<char, std::char_traits<char> > std::priv::__do_get_alphabool<std::istreambuf_iterator<char, std::char_traits<char> >, char>(std::istreambuf_iterator<char, std::char_traits<char> >&, std::istreambuf_iterator<char, std::char_traits<char> >&, std::ios_base&, int&, bool&, char*)
FUNC 59b38 158 0 std::priv::__copy_digits<std::istreambuf_iterator<char, std::char_traits<char> >, char>
FUNC 59c90 17a 0 bool std::priv::__get_integer<std::istreambuf_iterator<char, std::char_traits<char> >, int, char>(std::istreambuf_iterator<char, std::char_traits<char> >&, std::istreambuf_iterator<char, std::char_traits<char> >&, int, int&, int, bool, char, std::string const&, std::__false_type const&)
FUNC 59e0c 4e 0 std::priv::__get_decimal_integer<std::istreambuf_iterator<char, std::char_traits<char> >, int, char>
FUNC 59e5c 2d0 0 char const* std::priv::__get_formatted_time<std::istreambuf_iterator<char, std::char_traits<char> >, char, std::priv::_Time_Info>(std::istreambuf_iterator<char, std::char_traits<char> >, std::istreambuf_iterator<char, std::char_traits<char> >, char const*, char const*, char*, std::priv::_Time_Info const&, std::ios_base const&, int&, tm*)
FUNC 5a12c 7c 0 std::time_get<char, std::istreambuf_iterator<char, std::char_traits<char> > >::do_get_date(std::istreambuf_iterator<char, std::char_traits<char> >, std::istreambuf_iterator<char, std::char_traits<char> >, std::ios_base&, int&, tm*) const
FUNC 5a1a8 74 0 std::time_get<char, std::istreambuf_iterator<char, std::char_traits<char> > >::do_get_time(std::istreambuf_iterator<char, std::char_traits<char> >, std::istreambuf_iterator<char, std::char_traits<char> >, std::ios_base&, int&, tm*) const
FUNC 5a21c 68 0 std::time_get<char, std::istreambuf_iterator<char, std::char_traits<char> > >::do_get_year(std::istreambuf_iterator<char, std::char_traits<char> >, std::istreambuf_iterator<char, std::char_traits<char> >, std::ios_base&, int&, tm*) const
FUNC 5a284 2b2 0 int std::priv::__get_base_or_zero<std::istreambuf_iterator<wchar_t, std::char_traits<wchar_t> >, wchar_t>(std::istreambuf_iterator<wchar_t, std::char_traits<wchar_t> >&, std::istreambuf_iterator<wchar_t, std::char_traits<wchar_t> >&, int, std::ctype<wchar_t> const&)
FUNC 5a538 1e8 0 bool std::priv::__get_integer<std::istreambuf_iterator<wchar_t, std::char_traits<wchar_t> >, long, wchar_t>(std::istreambuf_iterator<wchar_t, std::char_traits<wchar_t> >&, std::istreambuf_iterator<wchar_t, std::char_traits<wchar_t> >&, int, long&, int, bool, wchar_t, std::string const&, std::__true_type const&)
FUNC 5a720 f8 0 std::istreambuf_iterator<wchar_t, std::char_traits<wchar_t> > std::priv::__do_get_integer<std::istreambuf_iterator<wchar_t, std::char_traits<wchar_t> >, long, wchar_t>(std::istreambuf_iterator<wchar_t, std::char_traits<wchar_t> >&, std::istreambuf_iterator<wchar_t, std::char_traits<wchar_t> >&, std::ios_base&, int&, long&, wchar_t*)
FUNC 5a818 2e 0 std::num_get<wchar_t, std::istreambuf_iterator<wchar_t, std::char_traits<wchar_t> > >::do_get(std::istreambuf_iterator<wchar_t, std::char_traits<wchar_t> >, std::istreambuf_iterator<wchar_t, std::char_traits<wchar_t> >, std::ios_base&, int&, long&) const
FUNC 5a848 80 0 std::num_get<wchar_t, std::istreambuf_iterator<wchar_t, std::char_traits<wchar_t> > >::do_get(std::istreambuf_iterator<wchar_t, std::char_traits<wchar_t> >, std::istreambuf_iterator<wchar_t, std::char_traits<wchar_t> >, std::ios_base&, int&, bool&) const
FUNC 5a8c8 1d4 0 bool std::priv::__get_integer<std::istreambuf_iterator<wchar_t, std::char_traits<wchar_t> >, unsigned short, wchar_t>(std::istreambuf_iterator<wchar_t, std::char_traits<wchar_t> >&, std::istreambuf_iterator<wchar_t, std::char_traits<wchar_t> >&, int, unsigned short&, int, bool, wchar_t, std::string const&, std::__false_type const&)
FUNC 5aa9c f8 0 std::istreambuf_iterator<wchar_t, std::char_traits<wchar_t> > std::priv::__do_get_integer<std::istreambuf_iterator<wchar_t, std::char_traits<wchar_t> >, unsigned short, wchar_t>(std::istreambuf_iterator<wchar_t, std::char_traits<wchar_t> >&, std::istreambuf_iterator<wchar_t, std::char_traits<wchar_t> >&, std::ios_base&, int&, unsigned short&, wchar_t*)
FUNC 5ab94 2e 0 std::num_get<wchar_t, std::istreambuf_iterator<wchar_t, std::char_traits<wchar_t> > >::do_get(std::istreambuf_iterator<wchar_t, std::char_traits<wchar_t> >, std::istreambuf_iterator<wchar_t, std::char_traits<wchar_t> >, std::ios_base&, int&, unsigned short&) const
FUNC 5abc4 1ce 0 bool std::priv::__get_integer<std::istreambuf_iterator<wchar_t, std::char_traits<wchar_t> >, unsigned int, wchar_t>(std::istreambuf_iterator<wchar_t, std::char_traits<wchar_t> >&, std::istreambuf_iterator<wchar_t, std::char_traits<wchar_t> >&, int, unsigned int&, int, bool, wchar_t, std::string const&, std::__false_type const&)
FUNC 5abc4 1ce 0 bool std::priv::__get_integer<std::istreambuf_iterator<wchar_t, std::char_traits<wchar_t> >, unsigned long, wchar_t>(std::istreambuf_iterator<wchar_t, std::char_traits<wchar_t> >&, std::istreambuf_iterator<wchar_t, std::char_traits<wchar_t> >&, int, unsigned long&, int, bool, wchar_t, std::string const&, std::__false_type const&)
FUNC 5ad94 f8 0 std::istreambuf_iterator<wchar_t, std::char_traits<wchar_t> > std::priv::__do_get_integer<std::istreambuf_iterator<wchar_t, std::char_traits<wchar_t> >, unsigned int, wchar_t>(std::istreambuf_iterator<wchar_t, std::char_traits<wchar_t> >&, std::istreambuf_iterator<wchar_t, std::char_traits<wchar_t> >&, std::ios_base&, int&, unsigned int&, wchar_t*)
FUNC 5ad94 f8 0 std::istreambuf_iterator<wchar_t, std::char_traits<wchar_t> > std::priv::__do_get_integer<std::istreambuf_iterator<wchar_t, std::char_traits<wchar_t> >, unsigned long, wchar_t>(std::istreambuf_iterator<wchar_t, std::char_traits<wchar_t> >&, std::istreambuf_iterator<wchar_t, std::char_traits<wchar_t> >&, std::ios_base&, int&, unsigned long&, wchar_t*)
FUNC 5ae8c 2e 0 std::num_get<wchar_t, std::istreambuf_iterator<wchar_t, std::char_traits<wchar_t> > >::do_get(std::istreambuf_iterator<wchar_t, std::char_traits<wchar_t> >, std::istreambuf_iterator<wchar_t, std::char_traits<wchar_t> >, std::ios_base&, int&, unsigned int&) const
FUNC 5ae8c 2e 0 std::num_get<wchar_t, std::istreambuf_iterator<wchar_t, std::char_traits<wchar_t> > >::do_get(std::istreambuf_iterator<wchar_t, std::char_traits<wchar_t> >, std::istreambuf_iterator<wchar_t, std::char_traits<wchar_t> >, std::ios_base&, int&, unsigned long&) const
FUNC 5aebc 246 0 bool std::priv::__get_integer<std::istreambuf_iterator<wchar_t, std::char_traits<wchar_t> >, unsigned long long, wchar_t>(std::istreambuf_iterator<wchar_t, std::char_traits<wchar_t> >&, std::istreambuf_iterator<wchar_t, std::char_traits<wchar_t> >&, int, unsigned long long&, int, bool, wchar_t, std::string const&, std::__false_type const&)
FUNC 5b104 fc 0 std::istreambuf_iterator<wchar_t, std::char_traits<wchar_t> > std::priv::__do_get_integer<std::istreambuf_iterator<wchar_t, std::char_traits<wchar_t> >, unsigned long long, wchar_t>(std::istreambuf_iterator<wchar_t, std::char_traits<wchar_t> >&, std::istreambuf_iterator<wchar_t, std::char_traits<wchar_t> >&, std::ios_base&, int&, unsigned long long&, wchar_t*)
FUNC 5b200 2e 0 std::num_get<wchar_t, std::istreambuf_iterator<wchar_t, std::char_traits<wchar_t> > >::do_get(std::istreambuf_iterator<wchar_t, std::char_traits<wchar_t> >, std::istreambuf_iterator<wchar_t, std::char_traits<wchar_t> >, std::ios_base&, int&, unsigned long long&) const
FUNC 5b230 3a 0 std::num_get<wchar_t, std::istreambuf_iterator<wchar_t, std::char_traits<wchar_t> > >::do_get(std::istreambuf_iterator<wchar_t, std::char_traits<wchar_t> >, std::istreambuf_iterator<wchar_t, std::char_traits<wchar_t> >, std::ios_base&, int&, void*&) const
FUNC 5b26c 202 0 bool std::priv::__get_integer<std::istreambuf_iterator<wchar_t, std::char_traits<wchar_t> >, long long, wchar_t>(std::istreambuf_iterator<wchar_t, std::char_traits<wchar_t> >&, std::istreambuf_iterator<wchar_t, std::char_traits<wchar_t> >&, int, long long&, int, bool, wchar_t, std::string const&, std::__true_type const&)
FUNC 5b470 fc 0 std::istreambuf_iterator<wchar_t, std::char_traits<wchar_t> > std::priv::__do_get_integer<std::istreambuf_iterator<wchar_t, std::char_traits<wchar_t> >, long long, wchar_t>(std::istreambuf_iterator<wchar_t, std::char_traits<wchar_t> >&, std::istreambuf_iterator<wchar_t, std::char_traits<wchar_t> >&, std::ios_base&, int&, long long&, wchar_t*)
FUNC 5b56c 2e 0 std::num_get<wchar_t, std::istreambuf_iterator<wchar_t, std::char_traits<wchar_t> > >::do_get(std::istreambuf_iterator<wchar_t, std::char_traits<wchar_t> >, std::istreambuf_iterator<wchar_t, std::char_traits<wchar_t> >, std::ios_base&, int&, long long&) const
FUNC 5b59c 2d2 0 int std::priv::__get_base_or_zero<std::istreambuf_iterator<char, std::char_traits<char> >, char>(std::istreambuf_iterator<char, std::char_traits<char> >&, std::istreambuf_iterator<char, std::char_traits<char> >&, int, std::ctype<char> const&)
FUNC 5b870 192 0 bool std::priv::__get_integer<std::istreambuf_iterator<char, std::char_traits<char> >, long, char>(std::istreambuf_iterator<char, std::char_traits<char> >&, std::istreambuf_iterator<char, std::char_traits<char> >&, int, long&, int, bool, char, std::string const&, std::__true_type const&)
FUNC 5ba04 f8 0 std::istreambuf_iterator<char, std::char_traits<char> > std::priv::__do_get_integer<std::istreambuf_iterator<char, std::char_traits<char> >, long, char>(std::istreambuf_iterator<char, std::char_traits<char> >&, std::istreambuf_iterator<char, std::char_traits<char> >&, std::ios_base&, int&, long&, char*)
FUNC 5bafc 26 0 std::num_get<char, std::istreambuf_iterator<char, std::char_traits<char> > >::do_get(std::istreambuf_iterator<char, std::char_traits<char> >, std::istreambuf_iterator<char, std::char_traits<char> >, std::ios_base&, int&, long&) const
FUNC 5bb24 76 0 std::num_get<char, std::istreambuf_iterator<char, std::char_traits<char> > >::do_get(std::istreambuf_iterator<char, std::char_traits<char> >, std::istreambuf_iterator<char, std::char_traits<char> >, std::ios_base&, int&, bool&) const
FUNC 5bb9c 17e 0 bool std::priv::__get_integer<std::istreambuf_iterator<char, std::char_traits<char> >, unsigned short, char>(std::istreambuf_iterator<char, std::char_traits<char> >&, std::istreambuf_iterator<char, std::char_traits<char> >&, int, unsigned short&, int, bool, char, std::string const&, std::__false_type const&)
FUNC 5bd1c f8 0 std::istreambuf_iterator<char, std::char_traits<char> > std::priv::__do_get_integer<std::istreambuf_iterator<char, std::char_traits<char> >, unsigned short, char>(std::istreambuf_iterator<char, std::char_traits<char> >&, std::istreambuf_iterator<char, std::char_traits<char> >&, std::ios_base&, int&, unsigned short&, char*)
FUNC 5be14 26 0 std::num_get<char, std::istreambuf_iterator<char, std::char_traits<char> > >::do_get(std::istreambuf_iterator<char, std::char_traits<char> >, std::istreambuf_iterator<char, std::char_traits<char> >, std::ios_base&, int&, unsigned short&) const
FUNC 5be3c 17a 0 bool std::priv::__get_integer<std::istreambuf_iterator<char, std::char_traits<char> >, unsigned int, char>(std::istreambuf_iterator<char, std::char_traits<char> >&, std::istreambuf_iterator<char, std::char_traits<char> >&, int, unsigned int&, int, bool, char, std::string const&, std::__false_type const&)
FUNC 5bfb8 f8 0 std::istreambuf_iterator<char, std::char_traits<char> > std::priv::__do_get_integer<std::istreambuf_iterator<char, std::char_traits<char> >, unsigned int, char>(std::istreambuf_iterator<char, std::char_traits<char> >&, std::istreambuf_iterator<char, std::char_traits<char> >&, std::ios_base&, int&, unsigned int&, char*)
FUNC 5c0b0 26 0 std::num_get<char, std::istreambuf_iterator<char, std::char_traits<char> > >::do_get(std::istreambuf_iterator<char, std::char_traits<char> >, std::istreambuf_iterator<char, std::char_traits<char> >, std::ios_base&, int&, unsigned int&) const
FUNC 5c0d8 178 0 bool std::priv::__get_integer<std::istreambuf_iterator<char, std::char_traits<char> >, unsigned long, char>(std::istreambuf_iterator<char, std::char_traits<char> >&, std::istreambuf_iterator<char, std::char_traits<char> >&, int, unsigned long&, int, bool, char, std::string const&, std::__false_type const&)
FUNC 5c250 f8 0 std::istreambuf_iterator<char, std::char_traits<char> > std::priv::__do_get_integer<std::istreambuf_iterator<char, std::char_traits<char> >, unsigned long, char>(std::istreambuf_iterator<char, std::char_traits<char> >&, std::istreambuf_iterator<char, std::char_traits<char> >&, std::ios_base&, int&, unsigned long&, char*)
FUNC 5c348 26 0 std::num_get<char, std::istreambuf_iterator<char, std::char_traits<char> > >::do_get(std::istreambuf_iterator<char, std::char_traits<char> >, std::istreambuf_iterator<char, std::char_traits<char> >, std::ios_base&, int&, unsigned long&) const
FUNC 5c370 1f4 0 bool std::priv::__get_integer<std::istreambuf_iterator<char, std::char_traits<char> >, unsigned long long, char>(std::istreambuf_iterator<char, std::char_traits<char> >&, std::istreambuf_iterator<char, std::char_traits<char> >&, int, unsigned long long&, int, bool, char, std::string const&, std::__false_type const&)
FUNC 5c564 fc 0 std::istreambuf_iterator<char, std::char_traits<char> > std::priv::__do_get_integer<std::istreambuf_iterator<char, std::char_traits<char> >, unsigned long long, char>(std::istreambuf_iterator<char, std::char_traits<char> >&, std::istreambuf_iterator<char, std::char_traits<char> >&, std::ios_base&, int&, unsigned long long&, char*)
FUNC 5c660 26 0 std::num_get<char, std::istreambuf_iterator<char, std::char_traits<char> > >::do_get(std::istreambuf_iterator<char, std::char_traits<char> >, std::istreambuf_iterator<char, std::char_traits<char> >, std::ios_base&, int&, unsigned long long&) const
FUNC 5c688 32 0 std::num_get<char, std::istreambuf_iterator<char, std::char_traits<char> > >::do_get(std::istreambuf_iterator<char, std::char_traits<char> >, std::istreambuf_iterator<char, std::char_traits<char> >, std::ios_base&, int&, void*&) const
FUNC 5c6bc 210 0 bool std::priv::__get_integer<std::istreambuf_iterator<char, std::char_traits<char> >, long long, char>(std::istreambuf_iterator<char, std::char_traits<char> >&, std::istreambuf_iterator<char, std::char_traits<char> >&, int, long long&, int, bool, char, std::string const&, std::__true_type const&)
FUNC 5c8cc fc 0 std::istreambuf_iterator<char, std::char_traits<char> > std::priv::__do_get_integer<std::istreambuf_iterator<char, std::char_traits<char> >, long long, char>(std::istreambuf_iterator<char, std::char_traits<char> >&, std::istreambuf_iterator<char, std::char_traits<char> >&, std::ios_base&, int&, long long&, char*)
FUNC 5c9c8 26 0 std::num_get<char, std::istreambuf_iterator<char, std::char_traits<char> > >::do_get(std::istreambuf_iterator<char, std::char_traits<char> >, std::istreambuf_iterator<char, std::char_traits<char> >, std::ios_base&, int&, long long&) const
FUNC 5c9f0 3b4 0 std::ostreambuf_iterator<wchar_t, std::char_traits<wchar_t> > std::priv::__copy_integer_and_fill<wchar_t, std::ostreambuf_iterator<wchar_t, std::char_traits<wchar_t> > >(wchar_t const*, int, std::ostreambuf_iterator<wchar_t, std::char_traits<wchar_t> >, int, int, wchar_t, wchar_t, wchar_t)
FUNC 5cda4 114 0 std::ostreambuf_iterator<wchar_t, std::char_traits<wchar_t> > std::priv::__put_integer<std::ostreambuf_iterator<wchar_t, std::char_traits<wchar_t> > >(char*, char*, std::ostreambuf_iterator<wchar_t, std::char_traits<wchar_t> >, std::ios_base&, int, wchar_t)
FUNC 5ceb8 70 0 std::ostreambuf_iterator<wchar_t, std::char_traits<wchar_t> > std::priv::__do_put_integer<wchar_t, std::ostreambuf_iterator<wchar_t, std::char_traits<wchar_t> >, unsigned long>(std::ostreambuf_iterator<wchar_t, std::char_traits<wchar_t> >, std::ios_base&, wchar_t, unsigned long)
FUNC 5cf28 13c 0 std::num_put<wchar_t, std::ostreambuf_iterator<wchar_t, std::char_traits<wchar_t> > >::do_put(std::ostreambuf_iterator<wchar_t, std::char_traits<wchar_t> >, std::ios_base&, wchar_t, void const*) const
FUNC 5d064 22 0 std::num_put<wchar_t, std::ostreambuf_iterator<wchar_t, std::char_traits<wchar_t> > >::do_put(std::ostreambuf_iterator<wchar_t, std::char_traits<wchar_t> >, std::ios_base&, wchar_t, unsigned long) const
FUNC 5d088 76 0 std::num_put<wchar_t, std::ostreambuf_iterator<wchar_t, std::char_traits<wchar_t> > >::do_put(std::ostreambuf_iterator<wchar_t, std::char_traits<wchar_t> >, std::ios_base&, wchar_t, unsigned long long) const
FUNC 5d100 76 0 std::num_put<wchar_t, std::ostreambuf_iterator<wchar_t, std::char_traits<wchar_t> > >::do_put(std::ostreambuf_iterator<wchar_t, std::char_traits<wchar_t> >, std::ios_base&, wchar_t, long long) const
FUNC 5d178 72 0 std::num_put<wchar_t, std::ostreambuf_iterator<wchar_t, std::char_traits<wchar_t> > >::do_put(std::ostreambuf_iterator<wchar_t, std::char_traits<wchar_t> >, std::ios_base&, wchar_t, long) const
FUNC 5d1ec 29a 0 std::ostreambuf_iterator<wchar_t, std::char_traits<wchar_t> > std::priv::__copy_float_and_fill<wchar_t, std::ostreambuf_iterator<wchar_t, std::char_traits<wchar_t> > >(wchar_t const*, wchar_t const*, std::ostreambuf_iterator<wchar_t, std::char_traits<wchar_t> >, int, int, wchar_t, wchar_t, wchar_t)
FUNC 5d488 1dc 0 bool std::priv::__copy_grouped_digits<std::istreambuf_iterator<wchar_t, std::char_traits<wchar_t> >, wchar_t>(std::istreambuf_iterator<wchar_t, std::char_traits<wchar_t> >&, std::istreambuf_iterator<wchar_t, std::char_traits<wchar_t> >, std::priv::__basic_iostring<char>&, wchar_t const*, wchar_t, std::string const&, bool&)
FUNC 5d664 164 0 bool std::priv::__copy_digits<std::istreambuf_iterator<wchar_t, std::char_traits<wchar_t> >, wchar_t>(std::istreambuf_iterator<wchar_t, std::char_traits<wchar_t> >&, std::istreambuf_iterator<wchar_t, std::char_traits<wchar_t> >, std::priv::__basic_iostring<char>&, wchar_t const*)
FUNC 5d7c8 c8 0 std::basic_string<char, std::char_traits<char>, std::priv::__iostring_allocator<char> >::push_back(char)
FUNC 5d890 8e 0 std::istreambuf_iterator<wchar_t, std::char_traits<wchar_t> > std::priv::__copy_sign<std::istreambuf_iterator<wchar_t, std::char_traits<wchar_t> >, wchar_t>(std::istreambuf_iterator<wchar_t, std::char_traits<wchar_t> >, std::istreambuf_iterator<wchar_t, std::char_traits<wchar_t> >, std::priv::__basic_iostring<char>&, wchar_t, wchar_t)
FUNC 5d920 a0 0 std::istreambuf_iterator<char, std::char_traits<char> > std::priv::__copy_sign<std::istreambuf_iterator<char, std::char_traits<char> >, char>(std::istreambuf_iterator<char, std::char_traits<char> >, std::istreambuf_iterator<char, std::char_traits<char> >, std::priv::__basic_iostring<char>&, char, char)
FUNC 5d9c0 1b4 0 bool std::priv::__copy_grouped_digits<std::istreambuf_iterator<char, std::char_traits<char> >, char>(std::istreambuf_iterator<char, std::char_traits<char> >&, std::istreambuf_iterator<char, std::char_traits<char> >, std::priv::__basic_iostring<char>&, char const*, char, std::string const&, bool&)
FUNC 5db74 3a2 0 std::ostreambuf_iterator<char, std::char_traits<char> > std::priv::__copy_integer_and_fill<char, std::ostreambuf_iterator<char, std::char_traits<char> > >(char const*, int, std::ostreambuf_iterator<char, std::char_traits<char> >, int, int, char, char, char)
FUNC 5df18 f8 0 std::ostreambuf_iterator<char, std::char_traits<char> > std::priv::__put_integer<std::ostreambuf_iterator<char, std::char_traits<char> > >(char*, char*, std::ostreambuf_iterator<char, std::char_traits<char> >, std::ios_base&, int, char)
FUNC 5e010 72 0 std::ostreambuf_iterator<char, std::char_traits<char> > std::priv::__do_put_integer<char, std::ostreambuf_iterator<char, std::char_traits<char> >, unsigned long>(std::ostreambuf_iterator<char, std::char_traits<char> >, std::ios_base&, char, unsigned long)
FUNC 5e084 134 0 std::num_put<char, std::ostreambuf_iterator<char, std::char_traits<char> > >::do_put(std::ostreambuf_iterator<char, std::char_traits<char> >, std::ios_base&, char, void const*) const
FUNC 5e1b8 24 0 std::num_put<char, std::ostreambuf_iterator<char, std::char_traits<char> > >::do_put(std::ostreambuf_iterator<char, std::char_traits<char> >, std::ios_base&, char, unsigned long) const
FUNC 5e1dc 78 0 std::num_put<char, std::ostreambuf_iterator<char, std::char_traits<char> > >::do_put(std::ostreambuf_iterator<char, std::char_traits<char> >, std::ios_base&, char, unsigned long long) const
FUNC 5e254 78 0 std::num_put<char, std::ostreambuf_iterator<char, std::char_traits<char> > >::do_put(std::ostreambuf_iterator<char, std::char_traits<char> >, std::ios_base&, char, long long) const
FUNC 5e2cc 74 0 std::num_put<char, std::ostreambuf_iterator<char, std::char_traits<char> > >::do_put(std::ostreambuf_iterator<char, std::char_traits<char> >, std::ios_base&, char, long) const
FUNC 5e340 294 0 std::ostreambuf_iterator<char, std::char_traits<char> > std::priv::__copy_float_and_fill<char, std::ostreambuf_iterator<char, std::char_traits<char> > >(char const*, char const*, std::ostreambuf_iterator<char, std::char_traits<char> >, int, int, char, char, char)
FUNC 5e5d4 7c 0 std::ostreambuf_iterator<char, std::char_traits<char> > std::priv::__put_float<std::ostreambuf_iterator<char, std::char_traits<char> > >(std::priv::__basic_iostring<char>&, std::ostreambuf_iterator<char, std::char_traits<char> >, std::ios_base&, char, char, char, unsigned int, std::string const&)
FUNC 5e650 10c 0 std::ostreambuf_iterator<char, std::char_traits<char> > std::priv::__do_put_float<char, std::ostreambuf_iterator<char, std::char_traits<char> >, long double>(std::ostreambuf_iterator<char, std::char_traits<char> >, std::ios_base&, char, long double)
FUNC 5e75c 28 0 std::num_put<char, std::ostreambuf_iterator<char, std::char_traits<char> > >::do_put(std::ostreambuf_iterator<char, std::char_traits<char> >, std::ios_base&, char, long double) const
FUNC 5e784 10c 0 std::ostreambuf_iterator<char, std::char_traits<char> > std::priv::__do_put_float<char, std::ostreambuf_iterator<char, std::char_traits<char> >, double>(std::ostreambuf_iterator<char, std::char_traits<char> >, std::ios_base&, char, double)
FUNC 5e890 28 0 std::num_put<char, std::ostreambuf_iterator<char, std::char_traits<char> > >::do_put(std::ostreambuf_iterator<char, std::char_traits<char> >, std::ios_base&, char, double) const
FUNC 5e8b8 40 0 std::priv::_String_base<wchar_t, std::priv::__iostring_allocator<wchar_t> >::_M_allocate_block(unsigned int)
FUNC 5e8f8 164 0 std::ostreambuf_iterator<wchar_t, std::char_traits<wchar_t> > std::priv::__put_float<std::ostreambuf_iterator<wchar_t, std::char_traits<wchar_t> > >(std::priv::__basic_iostring<char>&, std::ostreambuf_iterator<wchar_t, std::char_traits<wchar_t> >, std::ios_base&, wchar_t, wchar_t, wchar_t, unsigned int, std::string const&)
FUNC 5ea5c 10c 0 std::ostreambuf_iterator<wchar_t, std::char_traits<wchar_t> > std::priv::__do_put_float<wchar_t, std::ostreambuf_iterator<wchar_t, std::char_traits<wchar_t> >, long double>(std::ostreambuf_iterator<wchar_t, std::char_traits<wchar_t> >, std::ios_base&, wchar_t, long double)
FUNC 5eb68 26 0 std::num_put<wchar_t, std::ostreambuf_iterator<wchar_t, std::char_traits<wchar_t> > >::do_put(std::ostreambuf_iterator<wchar_t, std::char_traits<wchar_t> >, std::ios_base&, wchar_t, long double) const
FUNC 5eb90 10c 0 std::ostreambuf_iterator<wchar_t, std::char_traits<wchar_t> > std::priv::__do_put_float<wchar_t, std::ostreambuf_iterator<wchar_t, std::char_traits<wchar_t> >, double>(std::ostreambuf_iterator<wchar_t, std::char_traits<wchar_t> >, std::ios_base&, wchar_t, double)
FUNC 5ec9c 26 0 std::num_put<wchar_t, std::ostreambuf_iterator<wchar_t, std::char_traits<wchar_t> > >::do_put(std::ostreambuf_iterator<wchar_t, std::char_traits<wchar_t> >, std::ios_base&, wchar_t, double) const
FUNC 5ecc4 15c 0 std::time_put<wchar_t, std::ostreambuf_iterator<wchar_t, std::char_traits<wchar_t> > >::do_put(std::ostreambuf_iterator<wchar_t, std::char_traits<wchar_t> >, std::ios_base&, wchar_t, tm const*, char, char) const
FUNC 5ee20 11c 0 std::basic_string<wchar_t, std::char_traits<wchar_t>, std::priv::__iostring_allocator<wchar_t> >& std::basic_string<wchar_t, std::char_traits<wchar_t>, std::priv::__iostring_allocator<wchar_t> >::_M_appendT<wchar_t const*>(wchar_t const*, wchar_t const*, std::forward_iterator_tag const&)
FUNC 5ef3c 950 0 std::ostreambuf_iterator<wchar_t, std::char_traits<wchar_t> > std::priv::__money_do_put<wchar_t, std::ostreambuf_iterator<wchar_t, std::char_traits<wchar_t> >, std::basic_string<wchar_t, std::char_traits<wchar_t>, std::allocator<wchar_t> >, std::priv::__basic_iostring<wchar_t> >(std::ostreambuf_iterator<wchar_t, std::char_traits<wchar_t> >, bool, std::ios_base&, wchar_t, std::priv::__basic_iostring<wchar_t> const&, bool, std::basic_string<wchar_t, std::char_traits<wchar_t>, std::allocator<wchar_t> >*)
FUNC 5f88c 154 0 std::money_put<wchar_t, std::ostreambuf_iterator<wchar_t, std::char_traits<wchar_t> > >::do_put(std::ostreambuf_iterator<wchar_t, std::char_traits<wchar_t> >, bool, std::ios_base&, wchar_t, long double) const
FUNC 5f9e0 948 0 std::ostreambuf_iterator<wchar_t, std::char_traits<wchar_t> > std::priv::__money_do_put<wchar_t, std::ostreambuf_iterator<wchar_t, std::char_traits<wchar_t> >, std::basic_string<wchar_t, std::char_traits<wchar_t>, std::allocator<wchar_t> >, std::basic_string<wchar_t, std::char_traits<wchar_t>, std::allocator<wchar_t> > >(std::ostreambuf_iterator<wchar_t, std::char_traits<wchar_t> >, bool, std::ios_base&, wchar_t, std::basic_string<wchar_t, std::char_traits<wchar_t>, std::allocator<wchar_t> > const&, bool, std::basic_string<wchar_t, std::char_traits<wchar_t>, std::allocator<wchar_t> >*)
FUNC 60328 30 0 std::money_put<wchar_t, std::ostreambuf_iterator<wchar_t, std::char_traits<wchar_t> > >::do_put(std::ostreambuf_iterator<wchar_t, std::char_traits<wchar_t> >, bool, std::ios_base&, wchar_t, std::basic_string<wchar_t, std::char_traits<wchar_t>, std::allocator<wchar_t> > const&) const
FUNC 60358 14c 0 std::basic_string<wchar_t, std::char_traits<wchar_t>, std::allocator<wchar_t> >::_M_append(wchar_t const*, wchar_t const*)
FUNC 604a4 60 0 std::basic_string<wchar_t, std::char_traits<wchar_t>, std::allocator<wchar_t> >::_M_assign(wchar_t const*, wchar_t const*)
FUNC 60504 44 0 std::basic_string<char, std::char_traits<char>, std::priv::__iostring_allocator<char> >::_M_compute_next_size(unsigned int)
FUNC 60548 360 0 bool std::priv::__read_float<std::istreambuf_iterator<char, std::char_traits<char> >, char>(std::priv::__basic_iostring<char>&, std::istreambuf_iterator<char, std::char_traits<char> >&, std::istreambuf_iterator<char, std::char_traits<char> >&, std::ctype<char> const&, std::numpunct<char> const&)
FUNC 608a8 100 0 std::istreambuf_iterator<char, std::char_traits<char> > std::priv::__do_get_float<std::istreambuf_iterator<char, std::char_traits<char> >, long double, char>(std::istreambuf_iterator<char, std::char_traits<char> >&, std::istreambuf_iterator<char, std::char_traits<char> >&, std::ios_base&, int&, long double&, char*)
FUNC 609a8 26 0 std::num_get<char, std::istreambuf_iterator<char, std::char_traits<char> > >::do_get(std::istreambuf_iterator<char, std::char_traits<char> >, std::istreambuf_iterator<char, std::char_traits<char> >, std::ios_base&, int&, long double&) const
FUNC 609d0 100 0 std::istreambuf_iterator<char, std::char_traits<char> > std::priv::__do_get_float<std::istreambuf_iterator<char, std::char_traits<char> >, double, char>(std::istreambuf_iterator<char, std::char_traits<char> >&, std::istreambuf_iterator<char, std::char_traits<char> >&, std::ios_base&, int&, double&, char*)
FUNC 60ad0 26 0 std::num_get<char, std::istreambuf_iterator<char, std::char_traits<char> > >::do_get(std::istreambuf_iterator<char, std::char_traits<char> >, std::istreambuf_iterator<char, std::char_traits<char> >, std::ios_base&, int&, double&) const
FUNC 60af8 100 0 std::istreambuf_iterator<char, std::char_traits<char> > std::priv::__do_get_float<std::istreambuf_iterator<char, std::char_traits<char> >, float, char>(std::istreambuf_iterator<char, std::char_traits<char> >&, std::istreambuf_iterator<char, std::char_traits<char> >&, std::ios_base&, int&, float&, char*)
FUNC 60bf8 26 0 std::num_get<char, std::istreambuf_iterator<char, std::char_traits<char> > >::do_get(std::istreambuf_iterator<char, std::char_traits<char> >, std::istreambuf_iterator<char, std::char_traits<char> >, std::ios_base&, int&, float&) const
FUNC 60c20 398 0 bool std::priv::__read_float<std::istreambuf_iterator<wchar_t, std::char_traits<wchar_t> >, wchar_t>(std::priv::__basic_iostring<char>&, std::istreambuf_iterator<wchar_t, std::char_traits<wchar_t> >&, std::istreambuf_iterator<wchar_t, std::char_traits<wchar_t> >&, std::ctype<wchar_t> const&, std::numpunct<wchar_t> const&)
FUNC 60fb8 100 0 std::istreambuf_iterator<wchar_t, std::char_traits<wchar_t> > std::priv::__do_get_float<std::istreambuf_iterator<wchar_t, std::char_traits<wchar_t> >, long double, wchar_t>(std::istreambuf_iterator<wchar_t, std::char_traits<wchar_t> >&, std::istreambuf_iterator<wchar_t, std::char_traits<wchar_t> >&, std::ios_base&, int&, long double&, wchar_t*)
FUNC 610b8 2e 0 std::num_get<wchar_t, std::istreambuf_iterator<wchar_t, std::char_traits<wchar_t> > >::do_get(std::istreambuf_iterator<wchar_t, std::char_traits<wchar_t> >, std::istreambuf_iterator<wchar_t, std::char_traits<wchar_t> >, std::ios_base&, int&, long double&) const
FUNC 610e8 100 0 std::istreambuf_iterator<wchar_t, std::char_traits<wchar_t> > std::priv::__do_get_float<std::istreambuf_iterator<wchar_t, std::char_traits<wchar_t> >, double, wchar_t>(std::istreambuf_iterator<wchar_t, std::char_traits<wchar_t> >&, std::istreambuf_iterator<wchar_t, std::char_traits<wchar_t> >&, std::ios_base&, int&, double&, wchar_t*)
FUNC 611e8 2e 0 std::num_get<wchar_t, std::istreambuf_iterator<wchar_t, std::char_traits<wchar_t> > >::do_get(std::istreambuf_iterator<wchar_t, std::char_traits<wchar_t> >, std::istreambuf_iterator<wchar_t, std::char_traits<wchar_t> >, std::ios_base&, int&, double&) const
FUNC 61218 100 0 std::istreambuf_iterator<wchar_t, std::char_traits<wchar_t> > std::priv::__do_get_float<std::istreambuf_iterator<wchar_t, std::char_traits<wchar_t> >, float, wchar_t>(std::istreambuf_iterator<wchar_t, std::char_traits<wchar_t> >&, std::istreambuf_iterator<wchar_t, std::char_traits<wchar_t> >&, std::ios_base&, int&, float&, wchar_t*)
FUNC 61318 2e 0 std::num_get<wchar_t, std::istreambuf_iterator<wchar_t, std::char_traits<wchar_t> > >::do_get(std::istreambuf_iterator<wchar_t, std::char_traits<wchar_t> >, std::istreambuf_iterator<wchar_t, std::char_traits<wchar_t> >, std::ios_base&, int&, float&) const
FUNC 61348 8c 0 std::basic_string<wchar_t, std::char_traits<wchar_t>, std::allocator<wchar_t> >::_M_reserve(unsigned int)
FUNC 613d4 9c 0 std::basic_string<wchar_t, std::char_traits<wchar_t>, std::allocator<wchar_t> >::append(unsigned int, wchar_t)
FUNC 61470 1d6 0 std::basic_string<wchar_t, std::char_traits<wchar_t>, std::allocator<wchar_t> >::assign(unsigned int, wchar_t)
FUNC 61648 486 0 bool std::priv::__get_monetary_value<std::istreambuf_iterator<wchar_t, std::char_traits<wchar_t> >, std::back_insert_iterator<std::basic_string<wchar_t, std::char_traits<wchar_t>, std::allocator<wchar_t> > >, wchar_t>(std::istreambuf_iterator<wchar_t, std::char_traits<wchar_t> >&, std::istreambuf_iterator<wchar_t, std::char_traits<wchar_t> >, std::back_insert_iterator<std::basic_string<wchar_t, std::char_traits<wchar_t>, std::allocator<wchar_t> > >, std::ctype<wchar_t> const&, wchar_t, int, wchar_t, std::string const&, bool&)
FUNC 61ad0 6bc 0 std::istreambuf_iterator<wchar_t, std::char_traits<wchar_t> > std::priv::__money_do_get<wchar_t, std::istreambuf_iterator<wchar_t, std::char_traits<wchar_t> >, std::basic_string<wchar_t, std::char_traits<wchar_t>, std::allocator<wchar_t> > >(std::istreambuf_iterator<wchar_t, std::char_traits<wchar_t> >, std::istreambuf_iterator<wchar_t, std::char_traits<wchar_t> >, bool, std::ios_base&, int&, std::basic_string<wchar_t, std::char_traits<wchar_t>, std::allocator<wchar_t> >&, bool&, wchar_t*)
FUNC 6218c 4e 0 std::money_get<wchar_t, std::istreambuf_iterator<wchar_t, std::char_traits<wchar_t> > >::do_get(std::istreambuf_iterator<wchar_t, std::char_traits<wchar_t> >, std::istreambuf_iterator<wchar_t, std::char_traits<wchar_t> >, bool, std::ios_base&, int&, std::basic_string<wchar_t, std::char_traits<wchar_t>, std::allocator<wchar_t> >&) const
FUNC 621dc 12a 0 std::money_get<wchar_t, std::istreambuf_iterator<wchar_t, std::char_traits<wchar_t> > >::do_get(std::istreambuf_iterator<wchar_t, std::char_traits<wchar_t> >, std::istreambuf_iterator<wchar_t, std::char_traits<wchar_t> >, bool, std::ios_base&, int&, long double&) const
FUNC 62308 144 0 std::string::assign(unsigned int, char)
FUNC 6244c 408 0 bool std::priv::__get_monetary_value<std::istreambuf_iterator<char, std::char_traits<char> >, std::back_insert_iterator<std::string>, char>(std::istreambuf_iterator<char, std::char_traits<char> >&, std::istreambuf_iterator<char, std::char_traits<char> >, std::back_insert_iterator<std::string>, std::ctype<char> const&, char, int, char, std::string const&, bool&)
FUNC 62854 670 0 std::istreambuf_iterator<char, std::char_traits<char> > std::priv::__money_do_get<char, std::istreambuf_iterator<char, std::char_traits<char> >, std::string>(std::istreambuf_iterator<char, std::char_traits<char> >, std::istreambuf_iterator<char, std::char_traits<char> >, bool, std::ios_base&, int&, std::string&, bool&, char*)
FUNC 62ec4 40 0 std::money_get<char, std::istreambuf_iterator<char, std::char_traits<char> > >::do_get(std::istreambuf_iterator<char, std::char_traits<char> >, std::istreambuf_iterator<char, std::char_traits<char> >, bool, std::ios_base&, int&, std::string&) const
FUNC 62f04 104 0 std::money_get<char, std::istreambuf_iterator<char, std::char_traits<char> > >::do_get(std::istreambuf_iterator<char, std::char_traits<char> >, std::istreambuf_iterator<char, std::char_traits<char> >, bool, std::ios_base&, int&, long double&) const
FUNC 63008 28 0 std::priv::_String_base<wchar_t, std::allocator<wchar_t> >::~_String_base
FUNC 63030 c 0 std::_STLP_mutex::~_STLP_mutex
FUNC 6303c 34 0 std::__node_alloc_impl::_M_deallocate(void*, unsigned int)
FUNC 63070 18c 0 std::__node_alloc_impl::_S_chunk_alloc(unsigned int, int&)
FUNC 631fc 48 0 std::__node_alloc_impl::_S_refill(unsigned int)
FUNC 63244 5c 0 std::__node_alloc_impl::_M_allocate(unsigned int&)
FUNC 632a0 4 0 std::__node_alloc::_M_allocate(unsigned int&)
FUNC 632a4 4 0 std::__node_alloc::_M_deallocate(void*, unsigned int)
FUNC 632a8 114 0 _Locale_init
FUNC 633cc 74 0 __cxxabiv1::__cxa_type_match
FUNC 63440 50 0 __cxxabiv1::__cxa_begin_cleanup
FUNC 63490 50 0 __cxxabiv1::helper_end_cleanup
FUNC 634e0 104 0 __cxxabiv1::__cxa_call_unexpected
FUNC 635e8 18 0 __cxxabiv1::__class_type_info::~__class_type_info
FUNC 63600 12 0 __cxxabiv1::__class_type_info::~__class_type_info
FUNC 63614 1e 0 __cxxabiv1::__class_type_info::self_class_type_match(__cxxabiv1::__class_type_info const*, void*&, __cxxabiv1::__UpcastInfo&) const
FUNC 63634 4 0 __cxxabiv1::__class_type_info::walk_to(__cxxabiv1::__class_type_info const*, void*&, __cxxabiv1::__UpcastInfo&) const
FUNC 63638 38 0 __cxxabiv1::__UpcastInfo::__UpcastInfo
FUNC 63670 68 0 __cxxabiv1::__class_type_info::can_catch(__cxxabiv1::__shim_type_info const*, void*&) const
FUNC 636d8 24 0 __cxxabiv1::readULEB128
FUNC 636fc 3e 0 __cxxabiv1::readSLEB128(unsigned char const**)
FUNC 6373c 19a 0 __cxxabiv1::readEncodedPointer(unsigned char const**, unsigned char)
FUNC 638d8 dc 0 walk_object
FUNC 639b4 dc 0 base_to_derived_cast
FUNC 63a90 96 0 __cxxabiv1::__dynamic_cast
FUNC 63b28 64 0 __cxa_guard_acquire
FUNC 63b8c 38 0 __cxa_guard_release
FUNC 63bc4 38 0 __cxa_guard_abort
FUNC 63bfc 4 0 __cxxabiv1::__vmi_class_type_info::code() const
FUNC 63c00 18 0 __cxxabiv1::__vmi_class_type_info::~__vmi_class_type_info
FUNC 63c18 12 0 __cxxabiv1::__vmi_class_type_info::~__vmi_class_type_info
FUNC 63c2c 1a8 0 __cxxabiv1::__vmi_class_type_info::walk_to(__cxxabiv1::__class_type_info const*, void*&, __cxxabiv1::__UpcastInfo&) const
FUNC 63dd4 12 0 std::priv::stdio_streambuf_base::sync()
FUNC 63de8 2c 0 std::priv::stdio_streambuf_base::~stdio_streambuf_base
FUNC 63e14 18 0 std::priv::stdio_ostreambuf::~stdio_ostreambuf
FUNC 63e2c 12 0 std::priv::stdio_ostreambuf::~stdio_ostreambuf
FUNC 63e40 18 0 std::priv::stdio_istreambuf::~stdio_istreambuf
FUNC 63e58 12 0 std::priv::stdio_istreambuf::~stdio_istreambuf
FUNC 63e6c 12 0 std::priv::stdio_streambuf_base::~stdio_streambuf_base
FUNC 63e80 6 0 std::priv::stdio_istreambuf::uflow()
FUNC 63e88 1a 0 std::priv::stdio_istreambuf::underflow()
FUNC 63ea4 36 0 std::priv::stdio_streambuf_base::seekpos(std::fpos<mbstate_t>, int)
FUNC 63edc 1c 0 std::priv::stdio_streambuf_base::setbuf(char*, int)
FUNC 63ef8 4c 0 std::priv::stdio_streambuf_base::seekoff(long, int, int)
FUNC 63f44 40 0 std::priv::stdio_ostreambuf::overflow(int)
FUNC 63f84 24 0 std::priv::stdio_istreambuf::pbackfail(int)
FUNC 63fa8 3c 0 std::priv::stdio_streambuf_base::stdio_streambuf_base
FUNC 63fe4 e 0 std::codecvt<char, char, mbstate_t>::do_length(mbstate_t&, char const*, char const*, unsigned int) const
FUNC 63fe4 e 0 std::codecvt<wchar_t, char, mbstate_t>::do_length(mbstate_t&, char const*, char const*, unsigned int) const
FUNC 63ff4 8 0 std::codecvt<char, char, mbstate_t>::do_unshift(mbstate_t&, char*, char*, char*&) const
FUNC 63ff4 8 0 std::codecvt<wchar_t, char, mbstate_t>::do_unshift(mbstate_t&, char*, char*, char*&) const
FUNC 63ffc e 0 std::codecvt<char, char, mbstate_t>::do_in(mbstate_t&, char const*, char const*, char const*&, char*, char*, char*&) const
FUNC 63ffc e 0 std::codecvt<char, char, mbstate_t>::do_out(mbstate_t&, char const*, char const*, char const*&, char*, char*, char*&) const
FUNC 6400c 3e 0 std::codecvt<wchar_t, char, mbstate_t>::do_out(mbstate_t&, wchar_t const*, wchar_t const*, wchar_t const*&, char*, char*, char*&) const
FUNC 6404c 3c 0 std::codecvt<wchar_t, char, mbstate_t>::do_in(mbstate_t&, char const*, char const*, char const*&, wchar_t*, wchar_t*, wchar_t*&) const
FUNC 64088 1c 0 std::codecvt<wchar_t, char, mbstate_t>::~codecvt
FUNC 640a4 12 0 std::codecvt<wchar_t, char, mbstate_t>::~codecvt
FUNC 640b8 1c 0 std::codecvt<char, char, mbstate_t>::~codecvt
FUNC 640d4 12 0 std::codecvt<char, char, mbstate_t>::~codecvt
FUNC 640e8 18 0 std::collate<char>::do_hash(char const*, char const*) const
FUNC 64100 66 0 std::collate<wchar_t>::do_compare(wchar_t const*, wchar_t const*, wchar_t const*, wchar_t const*) const
FUNC 64168 18 0 std::collate<wchar_t>::do_hash(wchar_t const*, wchar_t const*) const
FUNC 64180 1c 0 std::collate<wchar_t>::~collate
FUNC 6419c 12 0 std::collate<wchar_t>::~collate
FUNC 641b0 1c 0 std::collate<char>::~collate
FUNC 641cc 12 0 std::collate<char>::~collate
FUNC 641e0 2a 0 std::collate<char>::do_compare(char const*, char const*, char const*, char const*) const
FUNC 6420c 4c 0 std::collate<char>::do_transform(char const*, char const*) const
FUNC 64258 52 0 std::collate<wchar_t>::do_transform(wchar_t const*, wchar_t const*) const
FUNC 642ac c 0 std::ctype<char>::do_toupper(char) const
FUNC 642b8 c 0 std::ctype<char>::do_tolower(char) const
FUNC 642c4 1c 0 std::ctype<char>::do_toupper(char*, char const*) const
FUNC 642e0 1c 0 std::ctype<char>::do_tolower(char*, char const*) const
FUNC 642fc 4 0 std::ctype<char>::do_narrow(char, char) const
FUNC 642fc 4 0 std::ctype<char>::do_widen(char) const
FUNC 642fc 4 0 std::ctype<wchar_t>::do_widen(char) const
FUNC 64300 14 0 std::ctype<wchar_t>::do_toupper(wchar_t) const
FUNC 64314 24 0 std::ctype<wchar_t>::do_toupper(wchar_t*, wchar_t const*) const
FUNC 64338 14 0 std::ctype<wchar_t>::do_tolower(wchar_t) const
FUNC 6434c 24 0 std::ctype<wchar_t>::do_tolower(wchar_t*, wchar_t const*) const
FUNC 64370 12 0 std::ctype<wchar_t>::do_widen(char const*, char const*, wchar_t*) const
FUNC 64384 c 0 std::ctype<wchar_t>::do_narrow(wchar_t, char) const
FUNC 64390 24 0 std::ctype<wchar_t>::do_narrow(wchar_t const*, wchar_t const*, char, char*) const
FUNC 643b4 1c 0 std::ctype<wchar_t>::~ctype
FUNC 643d0 12 0 std::ctype<wchar_t>::~ctype
FUNC 643e4 12 0 std::ctype<char>::do_narrow(char const*, char const*, char, char*) const
FUNC 643f8 12 0 std::ctype<char>::do_widen(char const*, char const*, char*) const
FUNC 6440c 28 0 std::ctype<char>::~ctype
FUNC 64434 12 0 std::ctype<char>::~ctype
FUNC 64448 c 0 std::ctype<char>::classic_table()
FUNC 64454 2a 0 std::ctype<wchar_t>::do_is(wchar_t const*, wchar_t const*, std::ctype_base::mask*) const
FUNC 64480 20 0 std::ctype<wchar_t>::do_is(std::ctype_base::mask, wchar_t) const
FUNC 644a0 44 0 std::ctype<char>::ctype
FUNC 644e4 aa 0 wchar_t const* std::find_if<wchar_t const*, std::_Ctype_w_is_mask>(wchar_t const*, wchar_t const*, std::_Ctype_w_is_mask)
FUNC 64590 22 0 std::ctype<wchar_t>::do_scan_is(std::ctype_base::mask, wchar_t const*, wchar_t const*) const
FUNC 645b4 ce 0 wchar_t const* std::find_if<wchar_t const*, std::unary_negate<std::_Ctype_w_is_mask> >(wchar_t const*, wchar_t const*, std::unary_negate<std::_Ctype_w_is_mask>)
FUNC 64684 22 0 std::ctype<wchar_t>::do_scan_not(std::ctype_base::mask, wchar_t const*, wchar_t const*) const
FUNC 646a8 4 0 std::moneypunct<char, false>::do_decimal_point() const
FUNC 646a8 4 0 std::moneypunct<char, false>::do_thousands_sep() const
FUNC 646a8 4 0 std::moneypunct<char, true>::do_decimal_point() const
FUNC 646a8 4 0 std::moneypunct<char, true>::do_thousands_sep() const
FUNC 646a8 4 0 std::moneypunct<wchar_t, false>::do_decimal_point() const
FUNC 646a8 4 0 std::moneypunct<wchar_t, false>::do_thousands_sep() const
FUNC 646a8 4 0 std::moneypunct<wchar_t, true>::do_decimal_point() const
FUNC 646a8 4 0 std::moneypunct<wchar_t, true>::do_thousands_sep() const
FUNC 646ac 2c 0 std::moneypunct<char, false>::do_pos_format() const
FUNC 646ac 2c 0 std::moneypunct<char, true>::do_pos_format() const
FUNC 646ac 2c 0 std::moneypunct<wchar_t, false>::do_pos_format() const
FUNC 646ac 2c 0 std::moneypunct<wchar_t, true>::do_pos_format() const
FUNC 646d8 2c 0 std::moneypunct<char, false>::do_neg_format() const
FUNC 646d8 2c 0 std::moneypunct<char, true>::do_neg_format() const
FUNC 646d8 2c 0 std::moneypunct<wchar_t, false>::do_neg_format() const
FUNC 646d8 2c 0 std::moneypunct<wchar_t, true>::do_neg_format() const
FUNC 64704 1c 0 std::moneypunct<wchar_t, false>::~moneypunct
FUNC 64720 12 0 std::moneypunct<wchar_t, false>::~moneypunct
FUNC 64734 1c 0 std::moneypunct<wchar_t, true>::~moneypunct
FUNC 64750 12 0 std::moneypunct<wchar_t, true>::~moneypunct
FUNC 64764 1c 0 std::moneypunct<char, false>::~moneypunct
FUNC 64780 12 0 std::moneypunct<char, false>::~moneypunct
FUNC 64794 1c 0 std::moneypunct<char, true>::~moneypunct
FUNC 647b0 12 0 std::moneypunct<char, true>::~moneypunct
FUNC 647c4 44 0 std::moneypunct<char, true>::moneypunct
FUNC 64808 44 0 std::moneypunct<char, false>::moneypunct
FUNC 6484c 44 0 std::moneypunct<wchar_t, true>::moneypunct
FUNC 64890 44 0 std::moneypunct<wchar_t, false>::moneypunct
FUNC 648d4 1c 0 std::moneypunct<char, false>::do_curr_symbol() const
FUNC 648d4 1c 0 std::moneypunct<char, false>::do_grouping() const
FUNC 648d4 1c 0 std::moneypunct<char, false>::do_negative_sign() const
FUNC 648d4 1c 0 std::moneypunct<char, false>::do_positive_sign() const
FUNC 648d4 1c 0 std::moneypunct<char, true>::do_curr_symbol() const
FUNC 648d4 1c 0 std::moneypunct<char, true>::do_grouping() const
FUNC 648d4 1c 0 std::moneypunct<char, true>::do_negative_sign() const
FUNC 648d4 1c 0 std::moneypunct<char, true>::do_positive_sign() const
FUNC 648d4 1c 0 std::moneypunct<wchar_t, false>::do_grouping() const
FUNC 648d4 1c 0 std::moneypunct<wchar_t, true>::do_grouping() const
FUNC 648f0 5c 0 std::basic_string<wchar_t, std::char_traits<wchar_t>, std::allocator<wchar_t> >::basic_string
FUNC 6494c 1c 0 std::moneypunct<wchar_t, false>::do_curr_symbol() const
FUNC 6494c 1c 0 std::moneypunct<wchar_t, false>::do_negative_sign() const
FUNC 6494c 1c 0 std::moneypunct<wchar_t, false>::do_positive_sign() const
FUNC 6494c 1c 0 std::moneypunct<wchar_t, true>::do_curr_symbol() const
FUNC 6494c 1c 0 std::moneypunct<wchar_t, true>::do_negative_sign() const
FUNC 6494c 1c 0 std::moneypunct<wchar_t, true>::do_positive_sign() const
FUNC 64968 64 0 std::priv::__valid_grouping(char const*, char const*, char const*, char const*)
FUNC 649cc c 0 std::priv::__digit_val_table(unsigned int)
FUNC 649d8 c 0 std::priv::__narrow_atoms()
FUNC 649e4 9c 0 wchar_t const* std::find<wchar_t const*, wchar_t>(wchar_t const*, wchar_t const*, wchar_t const&)
FUNC 64a80 2a 0 std::priv::__get_fdigit(wchar_t&, wchar_t const*)
FUNC 64aac 14 0 std::priv::__get_fdigit_or_sep(wchar_t&, wchar_t, wchar_t const*)
FUNC 64ac0 c 0 std::priv::__hex_char_table_lo()
FUNC 64acc c 0 std::priv::__hex_char_table_hi()
FUNC 64ad8 9a 0 std::priv::__insert_grouping(char*, char*, std::string const&, char, char, char, int)
FUNC 64b74 b4 0 std::priv::__insert_grouping(wchar_t*, wchar_t*, std::string const&, wchar_t, wchar_t, wchar_t, int)
FUNC 64c28 126 0 char* std::priv::__write_integer_backward<long>(char*, int, long)
FUNC 64d50 24 0 std::priv::__write_integer(char*, int, long)
FUNC 64d74 10c 0 std::basic_string<char, std::char_traits<char>, std::priv::__iostring_allocator<char> >::_M_insert_aux(char*, char)
FUNC 64e80 12a 0 std::basic_string<wchar_t, std::char_traits<wchar_t>, std::priv::__iostring_allocator<wchar_t> >::_M_insert_aux(wchar_t*, wchar_t)
FUNC 64fac 78 0 std::basic_string<char, std::char_traits<char>, std::priv::__iostring_allocator<char> >::_M_reserve(unsigned int)
FUNC 65024 e4 0 std::priv::__insert_grouping(std::priv::__basic_iostring<char>&, unsigned int, std::string const&, char, char, char, int)
FUNC 65108 b4 0 std::basic_string<wchar_t, std::char_traits<wchar_t>, std::priv::__iostring_allocator<wchar_t> >::_M_reserve(unsigned int)
FUNC 651bc 10c 0 std::priv::__insert_grouping(std::priv::__basic_iostring<wchar_t>&, unsigned int, std::string const&, wchar_t, wchar_t, wchar_t, int)
FUNC 652c8 400 0 std::priv::_Stl_tenscale
FUNC 656c8 4a8 0 std::priv::_Stl_string_to_double
FUNC 65b70 78 0 std::priv::_Initialize_get_float(std::ctype<wchar_t> const&, wchar_t&, wchar_t&, wchar_t&, wchar_t&, wchar_t*)
FUNC 65be8 16 0 std::priv::__string_to_float(std::priv::__basic_iostring<char> const&, float&)
FUNC 65c00 12 0 std::priv::__string_to_float(std::priv::__basic_iostring<char> const&, double&)
FUNC 65c14 348 0 long double std::priv::_Stl_atodT<long double, ieee854_long_double, 16, 16383>(char*, int, int)
FUNC 65f5c 11c 0 long double std::priv::_Stl_string_to_doubleT<long double, ieee854_long_double, 16, 16383>(char const*)
FUNC 66078 12 0 std::priv::__string_to_float(std::priv::__basic_iostring<char> const&, long double&)
FUNC 6608c 88 0 std::priv::__fill_fmtbuf
FUNC 66114 16a 0 char* std::find_if<char*, std::priv::GroupPos>(char*, char*, std::priv::GroupPos)
FUNC 66280 11c 0 std::basic_string<char, std::char_traits<char>, std::priv::__iostring_allocator<char> >::_M_append(char const*, char const*)
FUNC 6639c 138 0 std::priv::__get_floor_digits(std::priv::__basic_iostring<char>&, long double)
FUNC 664d4 220 0 std::priv::__convert_float_buffer(std::priv::__basic_iostring<char> const&, std::priv::__basic_iostring<wchar_t>&, std::ctype<wchar_t> const&, wchar_t, bool)
FUNC 666f4 6a 0 std::basic_string<char, std::char_traits<char>, std::priv::__iostring_allocator<char> >::_M_assign(char const*, char const*)
FUNC 66760 54 0 std::priv::__write_floatT<long double>
FUNC 667b4 8 0 std::priv::__write_float(std::priv::__basic_iostring<char>&, int, int, long double)
FUNC 667bc 54 0 std::priv::__write_floatT<double>
FUNC 66810 8 0 std::priv::__write_float(std::priv::__basic_iostring<char>&, int, int, double)
FUNC 66818 4 0 std::numpunct<char>::do_decimal_point() const
FUNC 66818 4 0 std::numpunct<wchar_t>::do_decimal_point() const
FUNC 6681c 4 0 std::numpunct<char>::do_thousands_sep() const
FUNC 6681c 4 0 std::numpunct<wchar_t>::do_thousands_sep() const
FUNC 66820 1c 0 std::numpunct<wchar_t>::~numpunct
FUNC 6683c 12 0 std::numpunct<wchar_t>::~numpunct
FUNC 66850 1c 0 std::numpunct<char>::~numpunct
FUNC 6686c 12 0 std::numpunct<char>::~numpunct
FUNC 66880 18 0 std::numpunct<char>::do_grouping() const
FUNC 66880 18 0 std::numpunct<wchar_t>::do_grouping() const
FUNC 66898 1c 0 std::numpunct<char>::do_falsename() const
FUNC 668b4 1c 0 std::numpunct<char>::do_truename() const
FUNC 668d0 1c 0 std::numpunct<wchar_t>::do_falsename() const
FUNC 668ec 1c 0 std::numpunct<wchar_t>::do_truename() const
FUNC 66908 c8 0 std::basic_string<char, std::char_traits<char>, std::priv::__iostring_allocator<char> >::append(unsigned int, char)
FUNC 669d0 f0 0 std::basic_string<wchar_t, std::char_traits<wchar_t>, std::priv::__iostring_allocator<wchar_t> >::append(unsigned int, wchar_t)
FUNC 66ac0 f4 0 std::priv::__append
FUNC 66bb4 f4 0 std::priv::__append
FUNC 66ca8 12c 0 std::priv::__append
FUNC 66dd4 120 0 std::priv::__append
FUNC 66ef4 1c2 0 std::priv::_Time_Info::~_Time_Info
FUNC 670b8 1ce 0 std::priv::_WTime_Info::~_WTime_Info
FUNC 67288 6f4 0 void std::priv::__write_formatted_timeT<wchar_t, std::priv::_WTime_Info>(std::priv::__basic_iostring<wchar_t>&, std::ctype<wchar_t> const&, char, char, std::priv::_WTime_Info const&, tm const*)
FUNC 6797c a 0 std::priv::__write_formatted_time(std::priv::__basic_iostring<wchar_t>&, std::ctype<wchar_t> const&, char, char, std::priv::_WTime_Info const&, tm const*)
FUNC 67988 52 0 void std::priv::__subformat<wchar_t, std::priv::_WTime_Info>(std::priv::__basic_iostring<wchar_t>&, std::ctype<wchar_t> const&, std::string const&, std::priv::_WTime_Info const&, tm const*)
FUNC 679dc 6e0 0 void std::priv::__write_formatted_timeT<char, std::priv::_Time_Info>(std::priv::__basic_iostring<char>&, std::ctype<char> const&, char, char, std::priv::_Time_Info const&, tm const*)
FUNC 680bc a 0 std::priv::__write_formatted_time(std::priv::__basic_iostring<char>&, std::ctype<char> const&, char, char, std::priv::_Time_Info const&, tm const*)
FUNC 680c8 52 0 void std::priv::__subformat<char, std::priv::_Time_Info>(std::priv::__basic_iostring<char>&, std::ctype<char> const&, std::string const&, std::priv::_Time_Info const&, tm const*)
FUNC 6811c 284 0 std::priv::time_init<char>::time_init
FUNC 683a0 2b0 0 std::priv::time_init<wchar_t>::time_init
FUNC 68650 1c 0 std::messages<wchar_t>::~messages
FUNC 6866c 1c 0 std::messages<char>::~messages
FUNC 68688 20 0 std::messages<wchar_t>::~messages
FUNC 686a8 20 0 std::messages<char>::~messages
FUNC 686c8 2c 0 std::messages<char>::messages
FUNC 686f4 2c 0 std::messages<wchar_t>::messages
FUNC 68720 e 0 std::messages<char>::do_get(int, int, int, std::string const&) const
FUNC 68730 3a 0 std::basic_string<wchar_t, std::char_traits<wchar_t>, std::allocator<wchar_t> >::basic_string
FUNC 6876c e 0 std::messages<wchar_t>::do_get(int, int, int, std::basic_string<wchar_t, std::char_traits<wchar_t>, std::allocator<wchar_t> > const&) const
FUNC 68d20 34 0 __popcountsi2
FUNC 68d54 34 0 __gnu_ldivmod_helper
FUNC 68d88 30 0 __gnu_uldivmod_helper
FUNC 68db8 16 0 selfrel_offset31
FUNC 68dce 6e 0 search_EIT_table
FUNC 68e3c 30 0 __gnu_unwind_get_pr_addr
FUNC 68e6c a4 0 get_eit_entry
FUNC 68f10 4a 0 restore_non_core_regs
FUNC 68f5a e 0 _Unwind_decode_typeinfo_ptr
FUNC 68f68 4 0 __gnu_unwind_24bit
FUNC 68f6c 2 0 _Unwind_DebugHook
FUNC 68f6e 3a 0 unwind_phase2
FUNC 68fa8 bc 0 unwind_phase2_forced
FUNC 69064 4 0 _Unwind_GetCFA
FUNC 69068 4e 0 __gnu_Unwind_RaiseException
FUNC 690b6 14 0 __gnu_Unwind_ForcedUnwind
FUNC 690ca 44 0 __gnu_Unwind_Resume
FUNC 6910e 1a 0 __gnu_Unwind_Resume_or_Rethrow
FUNC 69128 2 0 _Unwind_Complete
FUNC 6912a 10 0 _Unwind_DeleteException
FUNC 6913a 34 0 _Unwind_VRS_Get
FUNC 6916e 16 0 _Unwind_GetGR
FUNC 69184 34 0 _Unwind_VRS_Set
FUNC 691b8 18 0 _Unwind_SetGR
FUNC 691d0 70 0 __gnu_Unwind_Backtrace
FUNC 69240 280 0 __gnu_unwind_pr_common
FUNC 694c0 a 0 __aeabi_unwind_cpp_pr0
FUNC 694ca a 0 __aeabi_unwind_cpp_pr1
FUNC 694d4 a 0 __aeabi_unwind_cpp_pr2
FUNC 694de 24c 0 _Unwind_VRS_Pop
FUNC 698fc 30 0 next_unwind_byte
FUNC 6992c 16 0 _Unwind_GetGR
FUNC 69942 8 0 unwind_UCB_from_context
FUNC 6994a 286 0 __gnu_unwind_execute
FUNC 69bd0 26 0 __gnu_unwind_frame
FUNC 69bf6 a 0 _Unwind_GetRegionStart
FUNC 69c00 12 0 _Unwind_GetLanguageSpecificData
FUNC 69c12 6 0 _Unwind_GetDataRelBase
FUNC 69c18 6 0 _Unwind_GetTextRelBase
FUNC 69c34 4c 0 __muldi3
FUNC 69c80 12a 0 __divdi3
FUNC 69daa f0 0 __udivdi3
PUBLIC 172dd 0 _ZN7testing8internal11CmpHelperEQISsSsEENS_15AssertionResultEPKcS4_RKT_RKT0_
PUBLIC 17f2d 0 _ZN38ExceptionHandlerTest_SimpleWithFD_Test8TestBodyEv
PUBLIC 17fb5 0 _ZN40ExceptionHandlerTest_SimpleWithPath_Test8TestBodyEv
PUBLIC 181d9 0 _ZN7testing13PrintToStringIiEESsRKT_
PUBLIC 18221 0 _ZN7testing8internal18CmpHelperOpFailureIiiEENS_15AssertionResultEPKcS4_RKT_RKT0_S4_
PUBLIC 182f5 0 _ZN7testing8internal11CmpHelperNEIiiEENS_15AssertionResultEPKcS4_RKT_RKT0_
PUBLIC 18321 0 _ZN7testing8internal11CmpHelperEQIiiEENS_15AssertionResultEPKcS4_RKT_RKT0_
PUBLIC 187b9 0 _ZN7testing8internal18CmpHelperOpFailureIliEENS_15AssertionResultEPKcS4_RKT_RKT0_S4_
PUBLIC 188a1 0 _ZN53ExceptionHandlerTest_GenerateMultipleDumpsWithFD_Test8TestBodyEv
PUBLIC 18ae5 0 _ZN7testing13PrintToStringIPvEESsRKT_
PUBLIC 18b51 0 _ZN7testing8internal18CmpHelperOpFailureIPvS2_EENS_15AssertionResultEPKcS5_RKT_RKT0_S5_
PUBLIC 18c25 0 _ZN7testing13PrintToStringIjEESsRKT_
PUBLIC 18cfd 0 _ZN7testing8internal11CmpHelperLTIjjEENS_15AssertionResultEPKcS4_RKT_RKT0_
PUBLIC 18de5 0 _ZN7testing8internal11CmpHelperEQIjjEENS_15AssertionResultEPKcS4_RKT_RKT0_
PUBLIC 18e59 0 _ZN7testing8internal11CmpHelperEQIjyEENS_15AssertionResultEPKcS4_RKT_RKT0_
PUBLIC 1900d 0 _ZN7testing8internal11CmpHelperGTIxiEENS_15AssertionResultEPKcS4_RKT_RKT0_
PUBLIC 1911d 0 _ZN7testing8internal11CmpHelperEQI20MDExceptionCodeLinuxjEENS_15AssertionResultEPKcS5_RKT_RKT0_
PUBLIC 19419 0 _Z10ChildCrashb
PUBLIC 1970d 0 _ZN44ExceptionHandlerTest_ChildCrashWithPath_Test8TestBodyEv
PUBLIC 19779 0 _ZN42ExceptionHandlerTest_ChildCrashWithFD_Test8TestBodyEv
PUBLIC 197e9 0 _ZN57ExceptionHandlerTest_RedeliveryOnFilterCallbackFalse_Test8TestBodyEv
PUBLIC 19931 0 _ZN55ExceptionHandlerTest_RedeliveryOnDoneCallbackFalse_Test8TestBodyEv
PUBLIC 19a79 0 _ZN56ExceptionHandlerTest_NoRedeliveryOnDoneCallbackTrue_Test8TestBodyEv
PUBLIC 19bc1 0 _ZN58ExceptionHandlerTest_NoRedeliveryOnFilterCallbackTrue_Test8TestBodyEv
PUBLIC 19d09 0 _ZN52ExceptionHandlerTest_RedeliveryToDefaultHandler_Test8TestBodyEv
PUBLIC 19dcd 0 _ZN58ExceptionHandlerTest_RedeliveryOnBadSignalHandlerFlag_Test8TestBodyEv
PUBLIC 1a03d 0 _ZN55ExceptionHandlerTest_StackedHandlersDeliveredToTop_Test8TestBodyEv
PUBLIC 1a135 0 _ZN61ExceptionHandlerTest_StackedHandlersNotDeliveredToBottom_Test8TestBodyEv
PUBLIC 1a22d 0 _ZN57ExceptionHandlerTest_StackedHandlersFilteredToBottom_Test8TestBodyEv
PUBLIC 1a329 0 _ZN58ExceptionHandlerTest_StackedHandlersUnhandledToBottom_Test8TestBodyEv
PUBLIC 1a425 0 _ZN40ExceptionHandlerTest_ExternalDumper_Test8TestBodyEv
PUBLIC 1ab6d 0 _ZN50ExceptionHandlerTest_InstructionPointerMemory_Test8TestBodyEv
PUBLIC 1b3f1 0 _ZN58ExceptionHandlerTest_InstructionPointerMemoryMinBound_Test8TestBodyEv
PUBLIC 1bbe9 0 _ZN58ExceptionHandlerTest_InstructionPointerMemoryMaxBound_Test8TestBodyEv
PUBLIC 1c3e1 0 _ZN61ExceptionHandlerTest_InstructionPointerMemoryNullPointer_Test8TestBodyEv
PUBLIC 1c839 0 _ZN36ExceptionHandlerTest_ModuleInfo_Test8TestBodyEv
PUBLIC 1cec9 0 _ZN54ExceptionHandlerTest_WriteMinidumpExceptionStream_Test8TestBodyEv
PUBLIC 1d1a5 0 _ZN55ExceptionHandlerTest_GenerateMultipleDumpsWithPath_Test8TestBodyEv
PUBLIC 1d60d 0 _ZN42ExceptionHandlerTest_AdditionalMemory_Test8TestBodyEv
PUBLIC 1d97d 0 _ZN48ExceptionHandlerTest_AdditionalMemoryRemove_Test8TestBodyEv
PUBLIC 1dba9 0 _ZN47ExceptionHandlerTest_WriteMinidumpForChild_Test8TestBodyEv
PUBLIC 1e021 0 _ZN7testing13PrintToStringIPKvEESsRKT_
PUBLIC 1e08d 0 _ZN7testing8internal11CmpHelperNEIPcS2_EENS_15AssertionResultEPKcS5_RKT_RKT0_
PUBLIC 1ed81 0 _ZN7testing8internal18CmpHelperEQFailureIiiEENS_15AssertionResultEPKcS4_RKT_RKT0_
PUBLIC 1ee5d 0 _ZN26CpuSetTest_EmptyCount_Test8TestBodyEv
PUBLIC 1eedd 0 _ZN22CpuSetTest_OneCpu_Test8TestBodyEv
PUBLIC 1f089 0 _ZN32CpuSetTest_OneCpuTerminated_Test8TestBodyEv
PUBLIC 1f235 0 _ZN32CpuSetTest_TwoCpusWithComma_Test8TestBodyEv
PUBLIC 1f3e5 0 _ZN32CpuSetTest_TwoCpusWithRange_Test8TestBodyEv
PUBLIC 1f595 0 _ZN32CpuSetTest_TenCpusWithRange_Test8TestBodyEv
PUBLIC 1f741 0 _ZN26CpuSetTest_MultiItems_Test8TestBodyEv
PUBLIC 1f8ed 0 _ZN29CpuSetTest_IntersectWith_Test8TestBodyEv
PUBLIC 1fcd5 0 _ZN32CpuSetTest_SelfIntersection_Test8TestBodyEv
PUBLIC 1fed1 0 _ZN33CpuSetTest_EmptyIntersection_Test8TestBodyEv
PUBLIC 203c9 0 _ZNSt4priv8_Rb_treeISsSt4lessISsESsNS_9_IdentityISsEENS_11_SetTraitsTISsEESaISsEE8_M_eraseEPNS_18_Rb_tree_node_baseE
PUBLIC 2051b 0 _ZNSt4priv8_Rb_treeISsSt4lessISsESsNS_9_IdentityISsEENS_11_SetTraitsTISsEESaISsEE9_M_insertEPNS_18_Rb_tree_node_baseERKSsSA_SA_
PUBLIC 20589 0 _ZN39DirectoryReaderTest_CompareResults_Test8TestBodyEv
PUBLIC 20fc9 0 _ZN29LineReaderTest_EmptyFile_Test8TestBodyEv
PUBLIC 21111 0 _ZN27LineReaderTest_TooLong_Test8TestBodyEv
PUBLIC 2127d 0 _ZN7testing8internal18CmpHelperEQFailureIjjEENS_15AssertionResultEPKcS4_RKT_RKT0_
PUBLIC 2131d 0 _ZN7testing8internal18CmpHelperEQFailureIccEENS_15AssertionResultEPKcS4_RKT_RKT0_
PUBLIC 213bd 0 _ZN7testing8internal11CmpHelperEQIccEENS_15AssertionResultEPKcS4_RKT_RKT0_
PUBLIC 213dd 0 _ZN37LineReaderTest_OneLineTerminated_Test8TestBodyEv
PUBLIC 21665 0 _ZN27LineReaderTest_OneLine_Test8TestBodyEv
PUBLIC 218ed 0 _ZN38LineReaderTest_TwoLinesTerminated_Test8TestBodyEv
PUBLIC 21cb1 0 _ZN28LineReaderTest_TwoLines_Test8TestBodyEv
PUBLIC 22075 0 _ZN29LineReaderTest_MaxLength_Test8TestBodyEv
PUBLIC 22399 0 _ZN38LinuxCoreDumperTest_BuildProcPath_Test8TestBodyEv
PUBLIC 22751 0 _ZN54LinuxCoreDumperTest_VerifyDumpWithMultipleThreads_Test8TestBodyEv
PUBLIC 23179 0 _ZN29LinuxPtraceDumperMappingsTest5SetUpEv
PUBLIC 2344d 0 _ZN37LinuxPtraceDumperChildTest_Setup_Test12RealTestBodyEv
PUBLIC 23469 0 _ZN44LinuxPtraceDumperChildTest_FindMappings_Test12RealTestBodyEv
PUBLIC 23639 0 _ZN45LinuxPtraceDumperChildTest_BuildProcPath_Test12RealTestBodyEv
PUBLIC 23a39 0 _ZN44LinuxPtraceDumperChildTest_FileIDsMatch_Test12RealTestBodyEv
PUBLIC 23ea5 0 _ZN42LinuxPtraceDumperChildTest_ThreadList_Test12RealTestBodyEv
PUBLIC 24155 0 _ZN49LinuxPtraceDumperMappingsTest_MergedMappings_Test12RealTestBodyEv
PUBLIC 243fd 0 _ZN61LinuxPtraceDumperTest_VerifyStackReadWithMultipleThreads_Test8TestBodyEv
PUBLIC 25071 0 _ZN7testing8internal18CmpHelperEQFailureIPKcSsEENS_15AssertionResultES3_S3_RKT_RKT0_
PUBLIC 25131 0 _ZN7testing8internal11CmpHelperEQIPKcSsEENS_15AssertionResultES3_S3_RKT_RKT0_
PUBLIC 2517d 0 _ZN7testing8internal18CmpHelperEQFailureISsSsEENS_15AssertionResultEPKcS4_RKT_RKT0_
PUBLIC 28ae5 0 _ZN15google_breakpad15GetHelperBinaryEv
PUBLIC 291f1 0 _ZN36ProcCpuInfoReaderTest_EmptyFile_Test8TestBodyEv
PUBLIC 29341 0 _ZN44ProcCpuInfoReaderTest_OneLineTerminated_Test8TestBodyEv
PUBLIC 29571 0 _ZN45ProcCpuInfoReaderTest_TwoLinesTerminated_Test8TestBodyEv
PUBLIC 2987d 0 _ZN44ProcCpuInfoReaderTest_SkipMalformedLine_Test8TestBodyEv
PUBLIC 29aad 0 _ZN43ProcCpuInfoReaderTest_SkipOneEmptyLine_Test8TestBodyEv
PUBLIC 29cdd 0 _ZN41ProcCpuInfoReaderTest_SkipEmptyField_Test8TestBodyEv
PUBLIC 29f0d 0 _ZN44ProcCpuInfoReaderTest_SkipTwoEmptyLines_Test8TestBodyEv
PUBLIC 2a20d 0 _ZN42ProcCpuInfoReaderTest_FieldWithSpaces_Test8TestBodyEv
PUBLIC 2a43d 0 _ZN37ProcCpuInfoReaderTest_EmptyValue_Test8TestBodyEv
PUBLIC 2a6d1 0 _ZN34ProcCpuInfoReaderTest_OneLine_Test8TestBodyEv
PUBLIC 2ab19 0 _ZN7testing8internal18CmpHelperEQFailureIPK6elfhdrS4_EENS_15AssertionResultEPKcS7_RKT_RKT0_
PUBLIC 2abb9 0 _ZN39ElfCoreDumpTest_DefaultConstructor_Test8TestBodyEv
PUBLIC 2aeb5 0 _ZNSt4priv8_Rb_treeIiSt4lessIiEiNS_9_IdentityIiEENS_11_SetTraitsTIiEESaIiEE8_M_eraseEPNS_18_Rb_tree_node_baseE
PUBLIC 2aef1 0 _ZN34ElfCoreDumpTest_TestElfHeader_Test8TestBodyEv
PUBLIC 2be4d 0 _ZNSt4priv8_Rb_treeIiSt4lessIiEiNS_9_IdentityIiEENS_11_SetTraitsTIiEESaIiEE9_M_insertEPNS_18_Rb_tree_node_baseERKiSA_SA_
PUBLIC 2bee5 0 _ZNSt4priv8_Rb_treeIiSt4lessIiEiNS_9_IdentityIiEENS_11_SetTraitsTIiEESaIiEE13insert_uniqueERKi
PUBLIC 2bf75 0 _ZN34ElfCoreDumpTest_ValidCoreFile_Test8TestBodyEv
PUBLIC 2cbfb 0 _ZNSt4priv8_Rb_treeISsSt4lessISsESt4pairIKSsN15google_breakpad14test_assembler5LabelEENS_10_Select1stIS8_EENS_11_MapTraitsTIS8_EESaIS8_EE8_M_eraseEPNS_18_Rb_tree_node_baseE
PUBLIC 2da29 0 _ZN7testing8internal18CmpHelperOpFailureIjjEENS_15AssertionResultEPKcS4_RKT_RKT0_S4_
PUBLIC 2dd21 0 _ZN24FileIDTest_ElfClass_TestIN15google_breakpad10ElfClass32EE8TestBodyEv
PUBLIC 2dee5 0 _ZN23FileIDTest_BuildID_TestIN15google_breakpad10ElfClass32EE8TestBodyEv
PUBLIC 2e159 0 _ZN25FileIDTest_BuildIDPH_TestIN15google_breakpad10ElfClass32EE8TestBodyEv
PUBLIC 2e401 0 _ZN28FileIDTest_UniqueHashes_TestIN15google_breakpad10ElfClass32EE8TestBodyEv
PUBLIC 2e791 0 _ZN24FileIDTest_ElfClass_TestIN15google_breakpad10ElfClass64EE8TestBodyEv
PUBLIC 2e955 0 _ZN23FileIDTest_BuildID_TestIN15google_breakpad10ElfClass64EE8TestBodyEv
PUBLIC 2ebc9 0 _ZN25FileIDTest_BuildIDPH_TestIN15google_breakpad10ElfClass64EE8TestBodyEv
PUBLIC 2ee71 0 _ZN28FileIDTest_UniqueHashes_TestIN15google_breakpad10ElfClass64EE8TestBodyEv
PUBLIC 2f4f9 0 _ZN32LinuxLibcSupportTest_strlen_Test8TestBodyEv
PUBLIC 2f59d 0 _ZN34LinuxLibcSupportTest_uint_len_Test8TestBodyEv
PUBLIC 2f8c5 0 _ZN32LinuxLibcSupportTest_strcmp_Test8TestBodyEv
PUBLIC 2f989 0 _ZN33LinuxLibcSupportTest_strtoui_Test8TestBodyEv
PUBLIC 2fee1 0 _ZN31LinuxLibcSupportTest_uitos_Test8TestBodyEv
PUBLIC 30161 0 _ZN7testing8internal11CmpHelperEQIPKcS3_EENS_15AssertionResultES3_S3_RKT_RKT0_
PUBLIC 301dd 0 _ZN33LinuxLibcSupportTest_strrchr_Test8TestBodyEv
PUBLIC 30515 0 _ZN32LinuxLibcSupportTest_strchr_Test8TestBodyEv
PUBLIC 30895 0 _ZN7testing8internal18CmpHelperEQFailureIPvS2_EENS_15AssertionResultEPKcS5_RKT_RKT0_
PUBLIC 308f9 0 _ZN7testing8internal11CmpHelperEQIA10_cPvEENS_15AssertionResultEPKcS6_RKT_RKT0_
PUBLIC 3096d 0 _ZN7testing8internal11CmpHelperEQIPKcPvEENS_15AssertionResultES3_S3_RKT_RKT0_
PUBLIC 309e5 0 _ZN32LinuxLibcSupportTest_memchr_Test8TestBodyEv
PUBLIC 30c75 0 _ZN7testing13PrintToStringIcEESsRKT_
PUBLIC 30cbd 0 _ZN7testing8internal11CmpHelperEQIciEENS_15AssertionResultEPKcS4_RKT_RKT0_
PUBLIC 30d31 0 _ZN38LinuxLibcSupportTest_read_hex_ptr_Test8TestBodyEv
PUBLIC 3103d 0 _ZN42LinuxLibcSupportTest_read_decimal_ptr_Test8TestBodyEv
PUBLIC 312d7 0 _ZN15google_breakpad9synth_elf3ELF13AppendSectionERNS1_10ElfSectionE
PUBLIC 31315 0 _ZN15google_breakpad9synth_elf3ELF10AddSegmentEiijj
PUBLIC 31453 0 _ZN15google_breakpad9synth_elf5Notes7AddNoteEiRKSsPKhj
PUBLIC 315a1 0 _ZN15google_breakpad9synth_elf11SymbolTableC2ENS_14test_assembler10EndiannessEjRNS0_11StringTableE
PUBLIC 3162d 0 _ZNSt4priv12_Impl_vectorIN15google_breakpad9synth_elf3ELF10ElfSectionESaIS4_EE22_M_insert_overflow_auxEPS4_RKS4_RKSt12__false_typejb
PUBLIC 317cb 0 _ZNSt4priv8_Rb_treeISsSt4lessISsESt4pairIKSsN15google_breakpad14test_assembler5LabelEENS_10_Select1stIS8_EENS_11_MapTraitsTIS8_EESaIS8_EE9_M_insertEPNS_18_Rb_tree_node_baseERKS8_SG_SG_
PUBLIC 31839 0 _ZNSt4priv8_Rb_treeISsSt4lessISsESt4pairIKSsN15google_breakpad14test_assembler5LabelEENS_10_Select1stIS8_EENS_11_MapTraitsTIS8_EESaIS8_EE13insert_uniqueERKS8_
PUBLIC 318b1 0 _ZNSt4priv8_Rb_treeISsSt4lessISsESt4pairIKSsN15google_breakpad14test_assembler5LabelEENS_10_Select1stIS8_EENS_11_MapTraitsTIS8_EESaIS8_EE13insert_uniqueENS_17_Rb_tree_iteratorIS8_SC_EERKS8_
PUBLIC 31b75 0 _ZN15google_breakpad9synth_elf11SymbolTable9AddSymbolERKSsjjjt
PUBLIC 31bcd 0 _ZN15google_breakpad9synth_elf11SymbolTable9AddSymbolERKSsyyjt
PUBLIC 31c29 0 _ZN15google_breakpad9synth_elf3ELF10AddSectionERKSsRKNS_14test_assembler7SectionEjjyjyy
PUBLIC 31db5 0 _ZN15google_breakpad9synth_elf3ELF6FinishEv
PUBLIC 31e91 0 _ZN15google_breakpad9synth_elf3ELFC1EthNS_14test_assembler10EndiannessE
PUBLIC 32219 0 _ZNK15google_breakpad14CrashGenerator21HasDefaultCorePatternEv
PUBLIC 32275 0 _ZNK15google_breakpad14CrashGenerator11GetThreadIdEj
PUBLIC 3227d 0 _ZN15google_breakpad14CrashGenerator18GetThreadIdPointerEj
PUBLIC 32285 0 _ZN15google_breakpad14CrashGenerator17UnmapSharedMemoryEv
PUBLIC 322b1 0 _ZN15google_breakpad14CrashGenerator15MapSharedMemoryEj
PUBLIC 32305 0 _ZNK15google_breakpad14CrashGenerator20SetCoreFileSizeLimitEm
PUBLIC 32331 0 _ZNK15google_breakpad14CrashGenerator13CopyProcFilesEiPKc
PUBLIC 323e5 0 _ZN15google_breakpad14CrashGenerator27CreateThreadsInChildProcessEj
PUBLIC 3251b 0 _ZN15google_breakpad14CrashGeneratorC1Ev
PUBLIC 3252d 0 _ZN15google_breakpad14CrashGeneratorD1Ev
PUBLIC 32549 0 _ZNK15google_breakpad14CrashGenerator15GetCoreFilePathEv
PUBLIC 3255d 0 _ZNK15google_breakpad14CrashGenerator27GetDirectoryOfProcFilesCopyEv
PUBLIC 32571 0 _ZN15google_breakpad14CrashGenerator16CreateChildCrashEjjiPi
PUBLIC 329d1 0 _ZN28PageAllocatorTest_Setup_Test8TestBodyEv
PUBLIC 329f5 0 _ZN35PageAllocatorTest_SmallObjects_Test8TestBodyEv
PUBLIC 32add 0 _ZN34PageAllocatorTest_LargeObject_Test8TestBodyEv
PUBLIC 32cb9 0 _ZN29WastefulVectorTest_Setup_Test8TestBodyEv
PUBLIC 32d65 0 _ZNSt4priv12_Impl_vectorIjN15google_breakpad16PageStdAllocatorIjEEE7reserveEj
PUBLIC 32dc1 0 _ZN30WastefulVectorTest_Simple_Test8TestBodyEv
PUBLIC 330ed 0 _ZN41WastefulVectorTest_UsesPageAllocator_Test8TestBodyEv
PUBLIC 33749 0 _ZN15google_breakpad31NonAllocatingMapTest_Entry_Test8TestBodyEv
PUBLIC 33be5 0 _ZN15google_breakpad39NonAllocatingMapTest_CopyAndAssign_Test8TestBodyEv
PUBLIC 34385 0 _ZN15google_breakpad35NonAllocatingMapTest_AddRemove_Test8TestBodyEv
PUBLIC 348c9 0 _ZN15google_breakpad35NonAllocatingMapTest_Serialize_Test8TestBodyEv
PUBLIC 34d61 0 _ZN15google_breakpad36NonAllocatingMapTest_OutOfSpace_Test8TestBodyEv
PUBLIC 34f05 0 _ZN7testing8internal11CmpHelperNEIPKcA7_cEENS_15AssertionResultES3_S3_RKT_RKT0_
PUBLIC 35009 0 _ZN15google_breakpad48NonAllocatingMapTest_SimpleStringDictionary_Test8TestBodyEv
PUBLIC 35481 0 _ZN15google_breakpad34NonAllocatingMapTest_Iterator_Test8TestBodyEv
PUBLIC 35929 0 _ZN15google_breakpad14test_assembler5LabelC1Ev
PUBLIC 35949 0 _ZN15google_breakpad14test_assembler5LabelC2Ey
PUBLIC 35969 0 _ZN15google_breakpad14test_assembler5LabelC1ERKS1_
PUBLIC 35975 0 _ZN15google_breakpad14test_assembler5Label7BindingC2Ev
PUBLIC 35989 0 _ZN15google_breakpad14test_assembler5Label7BindingC2Ey
PUBLIC 35999 0 _ZN15google_breakpad14test_assembler5Label7BindingD2Ev
PUBLIC 359c1 0 _ZN15google_breakpad14test_assembler5LabelD1Ev
PUBLIC 359e3 0 _ZN15google_breakpad14test_assembler5Label7Binding3GetEPPS2_Py
PUBLIC 35a49 0 _ZNK15google_breakpad14test_assembler5Label15IsKnownConstantEPy
PUBLIC 35a71 0 _ZNK15google_breakpad14test_assembler5Label5ValueEv
PUBLIC 35a8b 0 _ZNK15google_breakpad14test_assembler5Label17IsKnownOffsetFromERKS1_Py
PUBLIC 35acf 0 _ZNK15google_breakpad14test_assembler5LabelmiERKS1_
PUBLIC 35ae1 0 _ZN15google_breakpad14test_assembler5Label7Binding3SetEPS2_y
PUBLIC 35b61 0 _ZN15google_breakpad14test_assembler5LabelaSEy
PUBLIC 35b71 0 _ZN15google_breakpad14test_assembler5LabelaSERKS1_
PUBLIC 35b85 0 _ZNK15google_breakpad14test_assembler5LabelplEy
PUBLIC 35ba3 0 _ZNK15google_breakpad14test_assembler5LabelmiEy
PUBLIC 35bc3 0 _ZN15google_breakpad14test_assembler7Section5AlignEjh
PUBLIC 35be3 0 _ZN15google_breakpad14test_assembler7Section6LEB128Ex
PUBLIC 35c27 0 _ZN15google_breakpad14test_assembler7Section7ULEB128Ey
PUBLIC 35cbb 0 _ZN15google_breakpad14test_assembler7Section6AppendENS0_10EndiannessEjy
PUBLIC 35cd7 0 _ZN15google_breakpad14test_assembler7Section3L16Et
PUBLIC 35cf1 0 _ZN15google_breakpad14test_assembler7Section3L32Ej
PUBLIC 35d0d 0 _ZN15google_breakpad14test_assembler7Section3L64Ey
PUBLIC 35d25 0 _ZN15google_breakpad14test_assembler7Section3B16Et
PUBLIC 35d3f 0 _ZN15google_breakpad14test_assembler7Section3B32Ej
PUBLIC 35d5b 0 _ZN15google_breakpad14test_assembler7Section3B64Ey
PUBLIC 35d73 0 _ZN15google_breakpad14test_assembler7Section3D16Et
PUBLIC 35d8d 0 _ZN15google_breakpad14test_assembler7Section3D32Ej
PUBLIC 35da9 0 _ZN15google_breakpad14test_assembler7Section3D64Ey
PUBLIC 35de1 0 _ZN15google_breakpad14test_assembler7Section5ClearEv
PUBLIC 35eb1 0 _ZN15google_breakpad14test_assembler7Section11GetContentsEPSs
PUBLIC 35f9d 0 _ZNSt4priv12_Impl_vectorIN15google_breakpad14test_assembler7Section9ReferenceESaIS4_EE22_M_insert_overflow_auxEPS4_RKS4_RKSt12__false_typejb
PUBLIC 3619b 0 _ZN15google_breakpad14test_assembler7Section6AppendENS0_10EndiannessEjRKNS0_5LabelE
PUBLIC 36205 0 _ZN15google_breakpad14test_assembler7Section2L8ERKNS0_5LabelE
PUBLIC 3620f 0 _ZN15google_breakpad14test_assembler7Section2B8ERKNS0_5LabelE
PUBLIC 36219 0 _ZN15google_breakpad14test_assembler7Section3L16ERKNS0_5LabelE
PUBLIC 36223 0 _ZN15google_breakpad14test_assembler7Section3L32ERKNS0_5LabelE
PUBLIC 3622d 0 _ZN15google_breakpad14test_assembler7Section3L64ERKNS0_5LabelE
PUBLIC 36237 0 _ZN15google_breakpad14test_assembler7Section3B16ERKNS0_5LabelE
PUBLIC 36241 0 _ZN15google_breakpad14test_assembler7Section3B32ERKNS0_5LabelE
PUBLIC 3624b 0 _ZN15google_breakpad14test_assembler7Section3B64ERKNS0_5LabelE
PUBLIC 36255 0 _ZN15google_breakpad14test_assembler7Section2D8ERKNS0_5LabelE
PUBLIC 3625f 0 _ZN15google_breakpad14test_assembler7Section3D16ERKNS0_5LabelE
PUBLIC 36269 0 _ZN15google_breakpad14test_assembler7Section3D32ERKNS0_5LabelE
PUBLIC 36273 0 _ZN15google_breakpad14test_assembler7Section3D64ERKNS0_5LabelE
PUBLIC 3627d 0 _ZN15google_breakpad14test_assembler7Section6AppendERKS1_
PUBLIC 363ad 0 _ZN15google_breakpad8CopyFileEPKcS1_
PUBLIC 36505 0 _ZN15google_breakpad8ReadFileEPKcPvPi
PUBLIC 365a1 0 _ZN15google_breakpad9WriteFileEPKcPKvj
PUBLIC 36b95 0 _ZN7testing8internal18CmpHelperEQFailureIPKiS3_EENS_15AssertionResultEPKcS6_RKT_RKT0_
PUBLIC 36c5d 0 _ZN7testing8internal11CmpHelperEQIA1_cSsEENS_15AssertionResultEPKcS5_RKT_RKT0_
PUBLIC 36cf5 0 _ZN45MinidumpMemoryRangeTest_GetAsciiMDString_Test8TestBodyEv
PUBLIC 36ffd 0 _ZN7testing13PrintToStringIPKhEESsRKT_
PUBLIC 37045 0 _ZN7testing8internal11CmpHelperEQIPKhS3_EENS_15AssertionResultEPKcS6_RKT_RKT0_
PUBLIC 370b9 0 _ZN57MinidumpMemoryRangeTest_ConstructorWithDataAndLength_Test8TestBodyEv
PUBLIC 37199 0 _ZN47MinidumpMemoryRangeTest_DefaultConstructor_Test8TestBodyEv
PUBLIC 3726d 0 _ZN55MinidumpMemoryRangeTest_SubrangeOfEmptyMemoryRange_Test8TestBodyEv
PUBLIC 37355 0 _ZN32MinidumpMemoryRangeTest_Set_Test8TestBodyEv
PUBLIC 374f5 0 _ZN34MinidumpMemoryRangeTest_Reset_Test8TestBodyEv
PUBLIC 37759 0 _ZN7testing8internal11CmpHelperEQIPKhPKvEENS_15AssertionResultEPKcS8_RKT_RKT0_
PUBLIC 377cd 0 _ZN7testing8internal11CmpHelperEQIPKvS3_EENS_15AssertionResultEPKcS6_RKT_RKT0_
PUBLIC 37841 0 _ZN44MinidumpMemoryRangeTest_GetArrayElement_Test8TestBodyEv
PUBLIC 37989 0 _ZN61MinidumpMemoryRangeTest_SubrangeWithMDLocationDescriptor_Test8TestBodyEv
PUBLIC 37e19 0 _ZN47MinidumpMemoryRangeTest_SubrangeAndGetData_Test8TestBodyEv
PUBLIC 382a9 0 _ZN7testing8internal18CmpHelperEQFailureIPKcS3_EENS_15AssertionResultES3_S3_RKT_RKT0_
PUBLIC 38315 0 _ZN59MinidumpMemoryRangeTest_GetArrayElmentWithTemplateType_Test8TestBodyEv
PUBLIC 38439 0 _ZN52MinidumpMemoryRangeTest_GetDataWithTemplateType_Test8TestBodyEv
PUBLIC 385f5 0 _ZN32AndroidUContext_GRegsOffset_Test8TestBodyEv
PUBLIC 38655 0 _ZN33AndroidUContext_SigmakOffset_Test8TestBodyEv
STACK CFI INIT 15dc4 2 .cfa: sp 0 + .ra: lr
STACK CFI INIT 15dc6 2 .cfa: sp 0 + .ra: lr
STACK CFI INIT 15dc8 4 .cfa: sp 0 + .ra: lr
STACK CFI INIT 15dcc 4 .cfa: sp 0 + .ra: lr
STACK CFI INIT 15dd0 4 .cfa: sp 0 + .ra: lr
STACK CFI INIT 15dd4 4 .cfa: sp 0 + .ra: lr
STACK CFI INIT 15dd8 4 .cfa: sp 0 + .ra: lr
STACK CFI INIT 15ddc 6 .cfa: sp 0 + .ra: lr
STACK CFI INIT 15de2 2 .cfa: sp 0 + .ra: lr
STACK CFI INIT 15dc8 4 .cfa: sp 0 + .ra: lr
STACK CFI INIT 15de2 2 .cfa: sp 0 + .ra: lr
STACK CFI INIT 15de2 2 .cfa: sp 0 + .ra: lr
STACK CFI INIT 15de2 2 .cfa: sp 0 + .ra: lr
STACK CFI INIT 15de2 2 .cfa: sp 0 + .ra: lr
STACK CFI INIT 15de2 2 .cfa: sp 0 + .ra: lr
STACK CFI INIT 15de2 2 .cfa: sp 0 + .ra: lr
STACK CFI INIT 15de2 2 .cfa: sp 0 + .ra: lr
STACK CFI INIT 15de2 2 .cfa: sp 0 + .ra: lr
STACK CFI INIT 15de2 2 .cfa: sp 0 + .ra: lr
STACK CFI INIT 15de2 2 .cfa: sp 0 + .ra: lr
STACK CFI INIT 15de2 2 .cfa: sp 0 + .ra: lr
STACK CFI INIT 15de2 2 .cfa: sp 0 + .ra: lr
STACK CFI INIT 15de2 2 .cfa: sp 0 + .ra: lr
STACK CFI INIT 15de2 2 .cfa: sp 0 + .ra: lr
STACK CFI INIT 15de2 2 .cfa: sp 0 + .ra: lr
STACK CFI INIT 15de2 2 .cfa: sp 0 + .ra: lr
STACK CFI INIT 15de2 2 .cfa: sp 0 + .ra: lr
STACK CFI INIT 15de2 2 .cfa: sp 0 + .ra: lr
STACK CFI INIT 15de2 2 .cfa: sp 0 + .ra: lr
STACK CFI INIT 15de2 2 .cfa: sp 0 + .ra: lr
STACK CFI INIT 15de2 2 .cfa: sp 0 + .ra: lr
STACK CFI INIT 15de2 2 .cfa: sp 0 + .ra: lr
STACK CFI INIT 15de2 2 .cfa: sp 0 + .ra: lr
STACK CFI INIT 15de2 2 .cfa: sp 0 + .ra: lr
STACK CFI INIT 15de2 2 .cfa: sp 0 + .ra: lr
STACK CFI INIT 15de2 2 .cfa: sp 0 + .ra: lr
STACK CFI INIT 15de4 ac .cfa: sp 0 + .ra: lr
STACK CFI 15de6 .cfa: sp 16 + .ra: .cfa -4 + ^ r4: .cfa -16 + ^ r5: .cfa -12 + ^ r6: .cfa -8 + ^
STACK CFI INIT 15e90 9e .cfa: sp 0 + .ra: lr
STACK CFI 15e92 .cfa: sp 20 + .ra: .cfa -4 + ^ r4: .cfa -20 + ^ r5: .cfa -16 + ^ r6: .cfa -12 + ^ r7: .cfa -8 + ^
STACK CFI 15e94 .cfa: sp 40 +
STACK CFI 15f2c .cfa: sp 20 +
STACK CFI INIT 15dc8 4 .cfa: sp 0 + .ra: lr
STACK CFI INIT 15f2e 10 .cfa: sp 0 + .ra: lr
STACK CFI INIT 15f3e 16 .cfa: sp 0 + .ra: lr
STACK CFI INIT 15f54 3e .cfa: sp 0 + .ra: lr
STACK CFI 15f56 .cfa: sp 8 + .ra: .cfa -4 + ^ r4: .cfa -8 + ^
STACK CFI INIT 15de2 2 .cfa: sp 0 + .ra: lr
STACK CFI INIT 15f92 c .cfa: sp 0 + .ra: lr
STACK CFI INIT 15f9e 1a .cfa: sp 0 + .ra: lr
STACK CFI 15fa0 .cfa: sp 16 + .ra: .cfa -4 + ^
STACK CFI 15fb4 .cfa: sp 4 +
STACK CFI INIT 15ddc 6 .cfa: sp 0 + .ra: lr
STACK CFI INIT 15fb8 18 .cfa: sp 0 + .ra: lr
STACK CFI 15fba .cfa: sp 8 + .ra: .cfa -4 + ^ r4: .cfa -8 + ^
STACK CFI INIT 15ddc 6 .cfa: sp 0 + .ra: lr
STACK CFI INIT 15fd0 c .cfa: sp 0 + .ra: lr
STACK CFI 15fd2 .cfa: sp 8 + .ra: .cfa -4 + ^ r4: .cfa -8 + ^
STACK CFI INIT 15fd0 c .cfa: sp 0 + .ra: lr
STACK CFI 15fd2 .cfa: sp 8 + .ra: .cfa -4 + ^ r4: .cfa -8 + ^
STACK CFI INIT 15fd0 c .cfa: sp 0 + .ra: lr
STACK CFI 15fd2 .cfa: sp 8 + .ra: .cfa -4 + ^ r4: .cfa -8 + ^
STACK CFI INIT 15fd0 c .cfa: sp 0 + .ra: lr
STACK CFI 15fd2 .cfa: sp 8 + .ra: .cfa -4 + ^ r4: .cfa -8 + ^
STACK CFI INIT 15fd0 c .cfa: sp 0 + .ra: lr
STACK CFI 15fd2 .cfa: sp 8 + .ra: .cfa -4 + ^ r4: .cfa -8 + ^
STACK CFI INIT 15fd0 c .cfa: sp 0 + .ra: lr
STACK CFI 15fd2 .cfa: sp 8 + .ra: .cfa -4 + ^ r4: .cfa -8 + ^
STACK CFI INIT 15fd0 c .cfa: sp 0 + .ra: lr
STACK CFI 15fd2 .cfa: sp 8 + .ra: .cfa -4 + ^ r4: .cfa -8 + ^
STACK CFI INIT 15fd0 c .cfa: sp 0 + .ra: lr
STACK CFI 15fd2 .cfa: sp 8 + .ra: .cfa -4 + ^ r4: .cfa -8 + ^
STACK CFI INIT 15fd0 c .cfa: sp 0 + .ra: lr
STACK CFI 15fd2 .cfa: sp 8 + .ra: .cfa -4 + ^ r4: .cfa -8 + ^
STACK CFI INIT 15fd0 c .cfa: sp 0 + .ra: lr
STACK CFI 15fd2 .cfa: sp 8 + .ra: .cfa -4 + ^ r4: .cfa -8 + ^
STACK CFI INIT 15fd0 c .cfa: sp 0 + .ra: lr
STACK CFI 15fd2 .cfa: sp 8 + .ra: .cfa -4 + ^ r4: .cfa -8 + ^
STACK CFI INIT 15fd0 c .cfa: sp 0 + .ra: lr
STACK CFI 15fd2 .cfa: sp 8 + .ra: .cfa -4 + ^ r4: .cfa -8 + ^
STACK CFI INIT 15fd0 c .cfa: sp 0 + .ra: lr
STACK CFI 15fd2 .cfa: sp 8 + .ra: .cfa -4 + ^ r4: .cfa -8 + ^
STACK CFI INIT 15fd0 c .cfa: sp 0 + .ra: lr
STACK CFI 15fd2 .cfa: sp 8 + .ra: .cfa -4 + ^ r4: .cfa -8 + ^
STACK CFI INIT 15fd0 c .cfa: sp 0 + .ra: lr
STACK CFI 15fd2 .cfa: sp 8 + .ra: .cfa -4 + ^ r4: .cfa -8 + ^
STACK CFI INIT 15fd0 c .cfa: sp 0 + .ra: lr
STACK CFI 15fd2 .cfa: sp 8 + .ra: .cfa -4 + ^ r4: .cfa -8 + ^
STACK CFI INIT 15fd0 c .cfa: sp 0 + .ra: lr
STACK CFI 15fd2 .cfa: sp 8 + .ra: .cfa -4 + ^ r4: .cfa -8 + ^
STACK CFI INIT 15fd0 c .cfa: sp 0 + .ra: lr
STACK CFI 15fd2 .cfa: sp 8 + .ra: .cfa -4 + ^ r4: .cfa -8 + ^
STACK CFI INIT 15fd0 c .cfa: sp 0 + .ra: lr
STACK CFI 15fd2 .cfa: sp 8 + .ra: .cfa -4 + ^ r4: .cfa -8 + ^
STACK CFI INIT 15fd0 c .cfa: sp 0 + .ra: lr
STACK CFI 15fd2 .cfa: sp 8 + .ra: .cfa -4 + ^ r4: .cfa -8 + ^
STACK CFI INIT 15fd0 c .cfa: sp 0 + .ra: lr
STACK CFI 15fd2 .cfa: sp 8 + .ra: .cfa -4 + ^ r4: .cfa -8 + ^
STACK CFI INIT 15fd0 c .cfa: sp 0 + .ra: lr
STACK CFI 15fd2 .cfa: sp 8 + .ra: .cfa -4 + ^ r4: .cfa -8 + ^
STACK CFI INIT 15fd0 c .cfa: sp 0 + .ra: lr
STACK CFI 15fd2 .cfa: sp 8 + .ra: .cfa -4 + ^ r4: .cfa -8 + ^
STACK CFI INIT 15fd0 c .cfa: sp 0 + .ra: lr
STACK CFI 15fd2 .cfa: sp 8 + .ra: .cfa -4 + ^ r4: .cfa -8 + ^
STACK CFI INIT 15fd0 c .cfa: sp 0 + .ra: lr
STACK CFI 15fd2 .cfa: sp 8 + .ra: .cfa -4 + ^ r4: .cfa -8 + ^
STACK CFI INIT 15fd0 c .cfa: sp 0 + .ra: lr
STACK CFI 15fd2 .cfa: sp 8 + .ra: .cfa -4 + ^ r4: .cfa -8 + ^
STACK CFI INIT 15fdc 54 .cfa: sp 0 + .ra: lr
STACK CFI 15fe0 .cfa: sp 24 + .ra: .cfa -4 + ^ r4: .cfa -24 + ^ r5: .cfa -20 + ^ r6: .cfa -16 + ^ r7: .cfa -12 + ^ r8: .cfa -8 + ^
STACK CFI INIT 16030 4c .cfa: sp 0 + .ra: lr
STACK CFI 16034 .cfa: sp 24 + .ra: .cfa -4 + ^ r4: .cfa -24 + ^ r5: .cfa -20 + ^ r6: .cfa -16 + ^ r7: .cfa -12 + ^ r8: .cfa -8 + ^
STACK CFI INIT 1607c 1c .cfa: sp 0 + .ra: lr
STACK CFI 16080 .cfa: sp 8 + .ra: .cfa -4 + ^ r4: .cfa -8 + ^
STACK CFI INIT 16098 12 .cfa: sp 0 + .ra: lr
STACK CFI 1609a .cfa: sp 8 + .ra: .cfa -4 + ^ r4: .cfa -8 + ^
STACK CFI INIT 160ac 1c .cfa: sp 0 + .ra: lr
STACK CFI 160b0 .cfa: sp 8 + .ra: .cfa -4 + ^ r4: .cfa -8 + ^
STACK CFI INIT 160c8 12 .cfa: sp 0 + .ra: lr
STACK CFI 160ca .cfa: sp 8 + .ra: .cfa -4 + ^ r4: .cfa -8 + ^
STACK CFI INIT 160dc 2c .cfa: sp 0 + .ra: lr
STACK CFI 160de .cfa: sp 24 + .ra: .cfa -4 + ^ r4: .cfa -8 + ^
STACK CFI 16100 .cfa: sp 8 +
STACK CFI INIT 16108 6 .cfa: sp 0 + .ra: lr
STACK CFI INIT 1610e c .cfa: sp 0 + .ra: lr
STACK CFI 16110 .cfa: sp 8 + .ra: .cfa -4 + ^ r3: .cfa -8 + ^
STACK CFI INIT 1611c 18 .cfa: sp 0 + .ra: lr
STACK CFI 1611e .cfa: sp 8 + .ra: .cfa -4 + ^ r4: .cfa -8 + ^
STACK CFI INIT 16134 12 .cfa: sp 0 + .ra: lr
STACK CFI 16136 .cfa: sp 8 + .ra: .cfa -4 + ^ r4: .cfa -8 + ^
STACK CFI INIT 16148 18 .cfa: sp 0 + .ra: lr
STACK CFI 1614a .cfa: sp 8 + .ra: .cfa -4 + ^ r4: .cfa -8 + ^
STACK CFI INIT 16160 12 .cfa: sp 0 + .ra: lr
STACK CFI 16162 .cfa: sp 8 + .ra: .cfa -4 + ^ r4: .cfa -8 + ^
STACK CFI INIT 16174 18 .cfa: sp 0 + .ra: lr
STACK CFI 16176 .cfa: sp 8 + .ra: .cfa -4 + ^ r4: .cfa -8 + ^
STACK CFI INIT 1618c 12 .cfa: sp 0 + .ra: lr
STACK CFI 1618e .cfa: sp 8 + .ra: .cfa -4 + ^ r4: .cfa -8 + ^
STACK CFI INIT 161a0 18 .cfa: sp 0 + .ra: lr
STACK CFI 161a2 .cfa: sp 8 + .ra: .cfa -4 + ^ r4: .cfa -8 + ^
STACK CFI INIT 161b8 12 .cfa: sp 0 + .ra: lr
STACK CFI 161ba .cfa: sp 8 + .ra: .cfa -4 + ^ r4: .cfa -8 + ^
STACK CFI INIT 161cc 18 .cfa: sp 0 + .ra: lr
STACK CFI 161ce .cfa: sp 8 + .ra: .cfa -4 + ^ r4: .cfa -8 + ^
STACK CFI INIT 161e4 12 .cfa: sp 0 + .ra: lr
STACK CFI 161e6 .cfa: sp 8 + .ra: .cfa -4 + ^ r4: .cfa -8 + ^
STACK CFI INIT 161f8 18 .cfa: sp 0 + .ra: lr
STACK CFI 161fa .cfa: sp 8 + .ra: .cfa -4 + ^ r4: .cfa -8 + ^
STACK CFI INIT 16210 12 .cfa: sp 0 + .ra: lr
STACK CFI 16212 .cfa: sp 8 + .ra: .cfa -4 + ^ r4: .cfa -8 + ^
STACK CFI INIT 16224 18 .cfa: sp 0 + .ra: lr
STACK CFI 16226 .cfa: sp 8 + .ra: .cfa -4 + ^ r4: .cfa -8 + ^
STACK CFI INIT 1623c 12 .cfa: sp 0 + .ra: lr
STACK CFI 1623e .cfa: sp 8 + .ra: .cfa -4 + ^ r4: .cfa -8 + ^
STACK CFI INIT 16250 18 .cfa: sp 0 + .ra: lr
STACK CFI 16252 .cfa: sp 8 + .ra: .cfa -4 + ^ r4: .cfa -8 + ^
STACK CFI INIT 16268 12 .cfa: sp 0 + .ra: lr
STACK CFI 1626a .cfa: sp 8 + .ra: .cfa -4 + ^ r4: .cfa -8 + ^
STACK CFI INIT 1627c 18 .cfa: sp 0 + .ra: lr
STACK CFI 1627e .cfa: sp 8 + .ra: .cfa -4 + ^ r4: .cfa -8 + ^
STACK CFI INIT 16294 12 .cfa: sp 0 + .ra: lr
STACK CFI 16296 .cfa: sp 8 + .ra: .cfa -4 + ^ r4: .cfa -8 + ^
STACK CFI INIT 162a8 18 .cfa: sp 0 + .ra: lr
STACK CFI 162aa .cfa: sp 8 + .ra: .cfa -4 + ^ r4: .cfa -8 + ^
STACK CFI INIT 162c0 12 .cfa: sp 0 + .ra: lr
STACK CFI 162c2 .cfa: sp 8 + .ra: .cfa -4 + ^ r4: .cfa -8 + ^
STACK CFI INIT 162d4 18 .cfa: sp 0 + .ra: lr
STACK CFI 162d6 .cfa: sp 8 + .ra: .cfa -4 + ^ r4: .cfa -8 + ^
STACK CFI INIT 162ec 12 .cfa: sp 0 + .ra: lr
STACK CFI 162ee .cfa: sp 8 + .ra: .cfa -4 + ^ r4: .cfa -8 + ^
STACK CFI INIT 16300 18 .cfa: sp 0 + .ra: lr
STACK CFI 16302 .cfa: sp 8 + .ra: .cfa -4 + ^ r4: .cfa -8 + ^
STACK CFI INIT 16318 12 .cfa: sp 0 + .ra: lr
STACK CFI 1631a .cfa: sp 8 + .ra: .cfa -4 + ^ r4: .cfa -8 + ^
STACK CFI INIT 1632c 18 .cfa: sp 0 + .ra: lr
STACK CFI 1632e .cfa: sp 8 + .ra: .cfa -4 + ^ r4: .cfa -8 + ^
STACK CFI INIT 16344 12 .cfa: sp 0 + .ra: lr
STACK CFI 16346 .cfa: sp 8 + .ra: .cfa -4 + ^ r4: .cfa -8 + ^
STACK CFI INIT 16358 18 .cfa: sp 0 + .ra: lr
STACK CFI 1635a .cfa: sp 8 + .ra: .cfa -4 + ^ r4: .cfa -8 + ^
STACK CFI INIT 16370 12 .cfa: sp 0 + .ra: lr
STACK CFI 16372 .cfa: sp 8 + .ra: .cfa -4 + ^ r4: .cfa -8 + ^
STACK CFI INIT 16384 18 .cfa: sp 0 + .ra: lr
STACK CFI 16386 .cfa: sp 8 + .ra: .cfa -4 + ^ r4: .cfa -8 + ^
STACK CFI INIT 1639c 12 .cfa: sp 0 + .ra: lr
STACK CFI 1639e .cfa: sp 8 + .ra: .cfa -4 + ^ r4: .cfa -8 + ^
STACK CFI INIT 163b0 18 .cfa: sp 0 + .ra: lr
STACK CFI 163b2 .cfa: sp 8 + .ra: .cfa -4 + ^ r4: .cfa -8 + ^
STACK CFI INIT 163c8 12 .cfa: sp 0 + .ra: lr
STACK CFI 163ca .cfa: sp 8 + .ra: .cfa -4 + ^ r4: .cfa -8 + ^
STACK CFI INIT 163dc 18 .cfa: sp 0 + .ra: lr
STACK CFI 163de .cfa: sp 8 + .ra: .cfa -4 + ^ r4: .cfa -8 + ^
STACK CFI INIT 163f4 12 .cfa: sp 0 + .ra: lr
STACK CFI 163f6 .cfa: sp 8 + .ra: .cfa -4 + ^ r4: .cfa -8 + ^
STACK CFI INIT 16408 18 .cfa: sp 0 + .ra: lr
STACK CFI 1640a .cfa: sp 8 + .ra: .cfa -4 + ^ r4: .cfa -8 + ^
STACK CFI INIT 16420 12 .cfa: sp 0 + .ra: lr
STACK CFI 16422 .cfa: sp 8 + .ra: .cfa -4 + ^ r4: .cfa -8 + ^
STACK CFI INIT 16434 18 .cfa: sp 0 + .ra: lr
STACK CFI 16436 .cfa: sp 8 + .ra: .cfa -4 + ^ r4: .cfa -8 + ^
STACK CFI INIT 1644c 12 .cfa: sp 0 + .ra: lr
STACK CFI 1644e .cfa: sp 8 + .ra: .cfa -4 + ^ r4: .cfa -8 + ^
STACK CFI INIT 16460 18 .cfa: sp 0 + .ra: lr
STACK CFI 16462 .cfa: sp 8 + .ra: .cfa -4 + ^ r4: .cfa -8 + ^
STACK CFI INIT 16478 12 .cfa: sp 0 + .ra: lr
STACK CFI 1647a .cfa: sp 8 + .ra: .cfa -4 + ^ r4: .cfa -8 + ^
STACK CFI INIT 1648c 18 .cfa: sp 0 + .ra: lr
STACK CFI 1648e .cfa: sp 8 + .ra: .cfa -4 + ^ r4: .cfa -8 + ^
STACK CFI INIT 164a4 12 .cfa: sp 0 + .ra: lr
STACK CFI 164a6 .cfa: sp 8 + .ra: .cfa -4 + ^ r4: .cfa -8 + ^
STACK CFI INIT 164b8 18 .cfa: sp 0 + .ra: lr
STACK CFI 164ba .cfa: sp 8 + .ra: .cfa -4 + ^ r4: .cfa -8 + ^
STACK CFI INIT 164d0 12 .cfa: sp 0 + .ra: lr
STACK CFI 164d2 .cfa: sp 8 + .ra: .cfa -4 + ^ r4: .cfa -8 + ^
STACK CFI INIT 164e4 18 .cfa: sp 0 + .ra: lr
STACK CFI 164e6 .cfa: sp 8 + .ra: .cfa -4 + ^ r4: .cfa -8 + ^
STACK CFI INIT 164fc 12 .cfa: sp 0 + .ra: lr
STACK CFI 164fe .cfa: sp 8 + .ra: .cfa -4 + ^ r4: .cfa -8 + ^
STACK CFI INIT 16510 18 .cfa: sp 0 + .ra: lr
STACK CFI 16512 .cfa: sp 8 + .ra: .cfa -4 + ^ r4: .cfa -8 + ^
STACK CFI INIT 16528 12 .cfa: sp 0 + .ra: lr
STACK CFI 1652a .cfa: sp 8 + .ra: .cfa -4 + ^ r4: .cfa -8 + ^
STACK CFI INIT 1653c 18 .cfa: sp 0 + .ra: lr
STACK CFI 1653e .cfa: sp 8 + .ra: .cfa -4 + ^ r4: .cfa -8 + ^
STACK CFI INIT 16554 12 .cfa: sp 0 + .ra: lr
STACK CFI 16556 .cfa: sp 8 + .ra: .cfa -4 + ^ r4: .cfa -8 + ^
STACK CFI INIT 16568 18 .cfa: sp 0 + .ra: lr
STACK CFI 1656a .cfa: sp 8 + .ra: .cfa -4 + ^ r4: .cfa -8 + ^
STACK CFI INIT 16580 12 .cfa: sp 0 + .ra: lr
STACK CFI 16582 .cfa: sp 8 + .ra: .cfa -4 + ^ r4: .cfa -8 + ^
STACK CFI INIT 16592 80 .cfa: sp 0 + .ra: lr
STACK CFI 16594 .cfa: sp 32 + .ra: .cfa -4 + ^ r4: .cfa -20 + ^ r5: .cfa -16 + ^ r6: .cfa -12 + ^ r7: .cfa -8 + ^
STACK CFI 16610 .cfa: sp 20 +
STACK CFI INIT 16614 20 .cfa: sp 0 + .ra: lr
STACK CFI 16616 .cfa: sp 8 + .ra: .cfa -4 + ^ r4: .cfa -8 + ^
STACK CFI INIT 16634 20 .cfa: sp 0 + .ra: lr
STACK CFI 16636 .cfa: sp 8 + .ra: .cfa -4 + ^ r4: .cfa -8 + ^
STACK CFI INIT 16654 20 .cfa: sp 0 + .ra: lr
STACK CFI 16656 .cfa: sp 8 + .ra: .cfa -4 + ^ r4: .cfa -8 + ^
STACK CFI INIT 16674 20 .cfa: sp 0 + .ra: lr
STACK CFI 16676 .cfa: sp 8 + .ra: .cfa -4 + ^ r4: .cfa -8 + ^
STACK CFI INIT 16694 20 .cfa: sp 0 + .ra: lr
STACK CFI 16696 .cfa: sp 8 + .ra: .cfa -4 + ^ r4: .cfa -8 + ^
STACK CFI INIT 166b4 20 .cfa: sp 0 + .ra: lr
STACK CFI 166b6 .cfa: sp 8 + .ra: .cfa -4 + ^ r4: .cfa -8 + ^
STACK CFI INIT 166d4 20 .cfa: sp 0 + .ra: lr
STACK CFI 166d6 .cfa: sp 8 + .ra: .cfa -4 + ^ r4: .cfa -8 + ^
STACK CFI INIT 166f4 20 .cfa: sp 0 + .ra: lr
STACK CFI 166f6 .cfa: sp 8 + .ra: .cfa -4 + ^ r4: .cfa -8 + ^
STACK CFI INIT 16714 20 .cfa: sp 0 + .ra: lr
STACK CFI 16716 .cfa: sp 8 + .ra: .cfa -4 + ^ r4: .cfa -8 + ^
STACK CFI INIT 16734 20 .cfa: sp 0 + .ra: lr
STACK CFI 16736 .cfa: sp 8 + .ra: .cfa -4 + ^ r4: .cfa -8 + ^
STACK CFI INIT 16754 20 .cfa: sp 0 + .ra: lr
STACK CFI 16756 .cfa: sp 8 + .ra: .cfa -4 + ^ r4: .cfa -8 + ^
STACK CFI INIT 16774 20 .cfa: sp 0 + .ra: lr
STACK CFI 16776 .cfa: sp 8 + .ra: .cfa -4 + ^ r4: .cfa -8 + ^
STACK CFI INIT 16794 20 .cfa: sp 0 + .ra: lr
STACK CFI 16796 .cfa: sp 8 + .ra: .cfa -4 + ^ r4: .cfa -8 + ^
STACK CFI INIT 167b4 20 .cfa: sp 0 + .ra: lr
STACK CFI 167b6 .cfa: sp 8 + .ra: .cfa -4 + ^ r4: .cfa -8 + ^
STACK CFI INIT 167d4 20 .cfa: sp 0 + .ra: lr
STACK CFI 167d6 .cfa: sp 8 + .ra: .cfa -4 + ^ r4: .cfa -8 + ^
STACK CFI INIT 167f4 20 .cfa: sp 0 + .ra: lr
STACK CFI 167f6 .cfa: sp 8 + .ra: .cfa -4 + ^ r4: .cfa -8 + ^
STACK CFI INIT 16814 20 .cfa: sp 0 + .ra: lr
STACK CFI 16816 .cfa: sp 8 + .ra: .cfa -4 + ^ r4: .cfa -8 + ^
STACK CFI INIT 16834 20 .cfa: sp 0 + .ra: lr
STACK CFI 16836 .cfa: sp 8 + .ra: .cfa -4 + ^ r4: .cfa -8 + ^
STACK CFI INIT 16854 20 .cfa: sp 0 + .ra: lr
STACK CFI 16856 .cfa: sp 8 + .ra: .cfa -4 + ^ r4: .cfa -8 + ^
STACK CFI INIT 16874 20 .cfa: sp 0 + .ra: lr
STACK CFI 16876 .cfa: sp 8 + .ra: .cfa -4 + ^ r4: .cfa -8 + ^
STACK CFI INIT 16894 20 .cfa: sp 0 + .ra: lr
STACK CFI 16896 .cfa: sp 8 + .ra: .cfa -4 + ^ r4: .cfa -8 + ^
STACK CFI INIT 168b4 20 .cfa: sp 0 + .ra: lr
STACK CFI 168b6 .cfa: sp 8 + .ra: .cfa -4 + ^ r4: .cfa -8 + ^
STACK CFI INIT 168d4 20 .cfa: sp 0 + .ra: lr
STACK CFI 168d6 .cfa: sp 8 + .ra: .cfa -4 + ^ r4: .cfa -8 + ^
STACK CFI INIT 168f4 20 .cfa: sp 0 + .ra: lr
STACK CFI 168f6 .cfa: sp 8 + .ra: .cfa -4 + ^ r4: .cfa -8 + ^
STACK CFI INIT 16914 20 .cfa: sp 0 + .ra: lr
STACK CFI 16916 .cfa: sp 8 + .ra: .cfa -4 + ^ r4: .cfa -8 + ^
STACK CFI INIT 16934 20 .cfa: sp 0 + .ra: lr
STACK CFI 16936 .cfa: sp 8 + .ra: .cfa -4 + ^ r4: .cfa -8 + ^
STACK CFI INIT 16954 118 .cfa: sp 0 + .ra: lr
STACK CFI 16958 .cfa: sp 28 + .ra: .cfa -4 + ^ r4: .cfa -28 + ^ r5: .cfa -24 + ^ r6: .cfa -20 + ^ r7: .cfa -16 + ^ r8: .cfa -12 + ^ r9: .cfa -8 + ^
STACK CFI 1695c .cfa: sp 128 +
STACK CFI 16a62 .cfa: sp 28 +
STACK CFI INIT 16a6c 54 .cfa: sp 0 + .ra: lr
STACK CFI 16a70 .cfa: sp 24 + .ra: .cfa -4 + ^ r4: .cfa -24 + ^ r5: .cfa -20 + ^ r6: .cfa -16 + ^ r7: .cfa -12 + ^ r8: .cfa -8 + ^
STACK CFI INIT 16ac0 18 .cfa: sp 0 + .ra: lr
STACK CFI 16ac6 .cfa: sp 8 + .ra: .cfa -4 + ^ r4: .cfa -8 + ^
STACK CFI INIT 16ad8 14 .cfa: sp 0 + .ra: lr
STACK CFI INIT 16aec 1e .cfa: sp 0 + .ra: lr
STACK CFI 16aee .cfa: sp 8 + .ra: .cfa -4 + ^ r4: .cfa -8 + ^
STACK CFI INIT 16b0a 1e .cfa: sp 0 + .ra: lr
STACK CFI INIT 16b28 16 .cfa: sp 0 + .ra: lr
STACK CFI 16b2a .cfa: sp 8 + .ra: .cfa -4 + ^ r4: .cfa -8 + ^
STACK CFI INIT 16b40 24 .cfa: sp 0 + .ra: lr
STACK CFI 16b44 .cfa: sp 8 + .ra: .cfa -4 + ^ r4: .cfa -8 + ^
STACK CFI INIT 16b64 12 .cfa: sp 0 + .ra: lr
STACK CFI 16b66 .cfa: sp 8 + .ra: .cfa -4 + ^ r4: .cfa -8 + ^
STACK CFI INIT 16b76 28 .cfa: sp 0 + .ra: lr
STACK CFI 16b78 .cfa: sp 16 + .ra: .cfa -4 + ^ r4: .cfa -16 + ^ r5: .cfa -12 + ^ r6: .cfa -8 + ^
STACK CFI INIT 16b9e e .cfa: sp 0 + .ra: lr
STACK CFI 16ba0 .cfa: sp 8 + .ra: .cfa -4 + ^ r4: .cfa -8 + ^
STACK CFI INIT 16bac 9c .cfa: sp 0 + .ra: lr
STACK CFI 16bb0 .cfa: sp 28 + .ra: .cfa -4 + ^ r4: .cfa -28 + ^ r5: .cfa -24 + ^ r6: .cfa -20 + ^ r7: .cfa -16 + ^ r8: .cfa -12 + ^ r9: .cfa -8 + ^
STACK CFI 16bbc .cfa: sp 48 +
STACK CFI 16c3e .cfa: sp 28 +
STACK CFI INIT 16c48 78 .cfa: sp 0 + .ra: lr
STACK CFI 16c4a .cfa: sp 16 + .ra: .cfa -4 + ^ r4: .cfa -16 + ^ r5: .cfa -12 + ^ r6: .cfa -8 + ^
STACK CFI INIT 16cc0 66 .cfa: sp 0 + .ra: lr
STACK CFI 16cc2 .cfa: sp 16 + .ra: .cfa -4 + ^ r4: .cfa -16 + ^ r5: .cfa -12 + ^ r6: .cfa -8 + ^
STACK CFI INIT 16d26 42 .cfa: sp 0 + .ra: lr
STACK CFI 16d28 .cfa: sp 24 + .ra: .cfa -4 + ^ r3: .cfa -24 + ^ r4: .cfa -20 + ^ r5: .cfa -16 + ^ r6: .cfa -12 + ^ r7: .cfa -8 + ^
STACK CFI INIT 16d68 6 .cfa: sp 0 + .ra: lr
STACK CFI INIT 16d6e 1c .cfa: sp 0 + .ra: lr
STACK CFI 16d70 .cfa: sp 8 + .ra: .cfa -4 + ^ r3: .cfa -8 + ^
STACK CFI INIT 16d8a 28 .cfa: sp 0 + .ra: lr
STACK CFI 16d8e .cfa: sp 16 + .ra: .cfa -4 + ^ r4: .cfa -16 + ^ r5: .cfa -12 + ^ r6: .cfa -8 + ^
STACK CFI INIT 16db4 38 .cfa: sp 0 + .ra: lr
STACK CFI 16db6 .cfa: sp 16 + .ra: .cfa -4 + ^ r4: .cfa -8 + ^
STACK CFI 16de6 .cfa: sp 8 +
STACK CFI INIT 16dec 18 .cfa: sp 0 + .ra: lr
STACK CFI 16dee .cfa: sp 8 + .ra: .cfa -4 + ^ r4: .cfa -8 + ^
STACK CFI INIT 16e04 2e .cfa: sp 0 + .ra: lr
STACK CFI 16e08 .cfa: sp 24 + .ra: .cfa -4 + ^ r4: .cfa -12 + ^ r5: .cfa -8 + ^
STACK CFI 16e30 .cfa: sp 12 +
STACK CFI INIT 16e34 ac .cfa: sp 0 + .ra: lr
STACK CFI 16e38 .cfa: sp 32 + .ra: .cfa -4 + ^ r4: .cfa -24 + ^ r5: .cfa -20 + ^ r6: .cfa -16 + ^ r7: .cfa -12 + ^ r8: .cfa -8 + ^
STACK CFI 16ec4 .cfa: sp 24 +
STACK CFI INIT 16ee0 78 .cfa: sp 0 + .ra: lr
STACK CFI 16ee2 .cfa: sp 24 + .ra: .cfa -4 + ^ r4: .cfa -16 + ^ r5: .cfa -12 + ^ r6: .cfa -8 + ^
STACK CFI 16f4c .cfa: sp 16 +
STACK CFI INIT 16f58 30 .cfa: sp 0 + .ra: lr
STACK CFI 16f5a .cfa: sp 16 + .ra: .cfa -4 + ^ r4: .cfa -16 + ^ r5: .cfa -12 + ^ r6: .cfa -8 + ^
STACK CFI INIT 16f88 28 .cfa: sp 0 + .ra: lr
STACK CFI 16f8a .cfa: sp 16 + .ra: .cfa -4 + ^ r4: .cfa -16 + ^ r5: .cfa -12 + ^ r6: .cfa -8 + ^
STACK CFI INIT 16fb0 2a .cfa: sp 0 + .ra: lr
STACK CFI 16fb2 .cfa: sp 24 + .ra: .cfa -4 + ^ r4: .cfa -12 + ^ r5: .cfa -8 + ^
STACK CFI 16fd8 .cfa: sp 12 +
STACK CFI INIT 16fdc 68 .cfa: sp 0 + .ra: lr
STACK CFI 16fe0 .cfa: sp 28 + .ra: .cfa -4 + ^ r4: .cfa -28 + ^ r5: .cfa -24 + ^ r6: .cfa -20 + ^ r7: .cfa -16 + ^ r8: .cfa -12 + ^ r9: .cfa -8 + ^
STACK CFI 16fe4 .cfa: sp 224 +
STACK CFI 17038 .cfa: sp 28 +
STACK CFI INIT 17044 16 .cfa: sp 0 + .ra: lr
STACK CFI 17046 .cfa: sp 8 + .ra: .cfa -4 + ^ r4: .cfa -8 + ^
STACK CFI 17056 .cfa: sp 0 + .ra: .ra r4: r4
STACK CFI INIT 1705c 54 .cfa: sp 0 + .ra: lr
STACK CFI 1705e .cfa: sp 16 + .ra: .cfa -4 + ^ r3: .cfa -16 + ^ r4: .cfa -12 + ^ r5: .cfa -8 + ^
STACK CFI INIT 170b0 8 .cfa: sp 0 + .ra: lr
STACK CFI INIT 170b8 c .cfa: sp 0 + .ra: lr
STACK CFI INIT 170c4 12 .cfa: sp 0 + .ra: lr
STACK CFI 170c6 .cfa: sp 8 + .ra: .cfa -4 + ^ r4: .cfa -8 + ^
STACK CFI INIT 170d6 c .cfa: sp 0 + .ra: lr
STACK CFI INIT 170e2 8 .cfa: sp 0 + .ra: lr
STACK CFI INIT 170ec 54 .cfa: sp 0 + .ra: lr
STACK CFI 170ee .cfa: sp 16 + .ra: .cfa -4 + ^ r3: .cfa -16 + ^ r4: .cfa -12 + ^ r5: .cfa -8 + ^
STACK CFI INIT 17140 8 .cfa: sp 0 + .ra: lr
STACK CFI INIT 17148 c .cfa: sp 0 + .ra: lr
STACK CFI INIT 17154 12 .cfa: sp 0 + .ra: lr
STACK CFI 17156 .cfa: sp 8 + .ra: .cfa -4 + ^ r4: .cfa -8 + ^
STACK CFI INIT 17166 c .cfa: sp 0 + .ra: lr
STACK CFI INIT 17172 8 .cfa: sp 0 + .ra: lr
STACK CFI INIT 1717c 8c .cfa: sp 0 + .ra: lr
STACK CFI 1717e .cfa: sp 24 + .ra: .cfa -4 + ^ r3: .cfa -24 + ^ r4: .cfa -20 + ^ r5: .cfa -16 + ^ r6: .cfa -12 + ^ r7: .cfa -8 + ^
STACK CFI INIT 17208 8 .cfa: sp 0 + .ra: lr
STACK CFI INIT 17210 80 .cfa: sp 0 + .ra: lr
STACK CFI 17212 .cfa: sp 24 + .ra: .cfa -4 + ^ r3: .cfa -24 + ^ r4: .cfa -20 + ^ r5: .cfa -16 + ^ r6: .cfa -12 + ^ r7: .cfa -8 + ^
STACK CFI INIT 17290 8 .cfa: sp 0 + .ra: lr
STACK CFI INIT 17298 8 .cfa: sp 0 + .ra: lr
STACK CFI INIT 172a0 8 .cfa: sp 0 + .ra: lr
STACK CFI INIT 172a8 c .cfa: sp 0 + .ra: lr
STACK CFI INIT 172b4 12 .cfa: sp 0 + .ra: lr
STACK CFI 172b6 .cfa: sp 8 + .ra: .cfa -4 + ^ r4: .cfa -8 + ^
STACK CFI INIT 172c6 8 .cfa: sp 0 + .ra: lr
STACK CFI INIT 172ce c .cfa: sp 0 + .ra: lr
STACK CFI INIT 172dc c0 .cfa: sp 0 + .ra: lr
STACK CFI 172e0 .cfa: sp 36 + .ra: .cfa -4 + ^ r10: .cfa -12 + ^ r11: .cfa -8 + ^ r4: .cfa -36 + ^ r5: .cfa -32 + ^ r6: .cfa -28 + ^ r7: .cfa -24 + ^ r8: .cfa -20 + ^ r9: .cfa -16 + ^
STACK CFI 172e6 .cfa: sp 264 +
STACK CFI 17392 .cfa: sp 36 +
STACK CFI INIT 1739c 8 .cfa: sp 0 + .ra: lr
STACK CFI INIT 173a4 8 .cfa: sp 0 + .ra: lr
STACK CFI INIT 173ac c .cfa: sp 0 + .ra: lr
STACK CFI INIT 173b8 12 .cfa: sp 0 + .ra: lr
STACK CFI 173ba .cfa: sp 8 + .ra: .cfa -4 + ^ r4: .cfa -8 + ^
STACK CFI INIT 173ca 8 .cfa: sp 0 + .ra: lr
STACK CFI INIT 173d2 c .cfa: sp 0 + .ra: lr
STACK CFI INIT 173de 2c .cfa: sp 0 + .ra: lr
STACK CFI 173e0 .cfa: sp 8 + .ra: .cfa -4 + ^ r4: .cfa -8 + ^
STACK CFI INIT 1740a 40 .cfa: sp 0 + .ra: lr
STACK CFI 1740c .cfa: sp 8 + .ra: .cfa -4 + ^ r4: .cfa -8 + ^
STACK CFI INIT 1744a 24 .cfa: sp 0 + .ra: lr
STACK CFI 1744c .cfa: sp 8 + .ra: .cfa -4 + ^ r4: .cfa -8 + ^
STACK CFI INIT 1746e b4 .cfa: sp 0 + .ra: lr
STACK CFI 17470 .cfa: sp 32 + .ra: .cfa -4 + ^ r4: .cfa -20 + ^ r5: .cfa -16 + ^ r6: .cfa -12 + ^ r7: .cfa -8 + ^
STACK CFI 17520 .cfa: sp 20 +
STACK CFI INIT 17522 90 .cfa: sp 0 + .ra: lr
STACK CFI 17524 .cfa: sp 20 + .ra: .cfa -4 + ^ r4: .cfa -20 + ^ r5: .cfa -16 + ^ r6: .cfa -12 + ^ r7: .cfa -8 + ^
STACK CFI 17526 .cfa: sp 80 +
STACK CFI 175b0 .cfa: sp 20 +
STACK CFI INIT 175b2 98 .cfa: sp 0 + .ra: lr
STACK CFI 175b6 .cfa: sp 40 + .ra: .cfa -4 + ^ r4: .cfa -28 + ^ r5: .cfa -24 + ^ r6: .cfa -20 + ^ r7: .cfa -16 + ^ r8: .cfa -12 + ^ r9: .cfa -8 + ^
STACK CFI 17646 .cfa: sp 28 +
STACK CFI INIT 1764a 90 .cfa: sp 0 + .ra: lr
STACK CFI 1764c .cfa: sp 20 + .ra: .cfa -4 + ^ r4: .cfa -20 + ^ r5: .cfa -16 + ^ r6: .cfa -12 + ^ r7: .cfa -8 + ^
STACK CFI 1764e .cfa: sp 80 +
STACK CFI 176d8 .cfa: sp 20 +
STACK CFI INIT 176da 16 .cfa: sp 0 + .ra: lr
STACK CFI INIT 176f0 3c .cfa: sp 0 + .ra: lr
STACK CFI 176f2 .cfa: sp 8 + .ra: .cfa -4 + ^ r3: .cfa -8 + ^
STACK CFI INIT 1772c d8 .cfa: sp 0 + .ra: lr
STACK CFI 17732 .cfa: sp 32 + .ra: .cfa -4 + ^ r4: .cfa -24 + ^ r5: .cfa -20 + ^ r6: .cfa -16 + ^ r7: .cfa -12 + ^ r8: .cfa -8 + ^
STACK CFI 17800 .cfa: sp 24 +
STACK CFI INIT 17804 44 .cfa: sp 0 + .ra: lr
STACK CFI 17806 .cfa: sp 24 + .ra: .cfa -4 + ^ r3: .cfa -24 + ^ r4: .cfa -20 + ^ r5: .cfa -16 + ^ r6: .cfa -12 + ^ r7: .cfa -8 + ^
STACK CFI INIT 17848 1a4 .cfa: sp 0 + .ra: lr
STACK CFI 1784c .cfa: sp 36 + .ra: .cfa -4 + ^ r10: .cfa -12 + ^ r11: .cfa -8 + ^ r4: .cfa -36 + ^ r5: .cfa -32 + ^ r6: .cfa -28 + ^ r7: .cfa -24 + ^ r8: .cfa -20 + ^ r9: .cfa -16 + ^
STACK CFI 17850 .cfa: sp 216 +
STACK CFI 179c4 .cfa: sp 36 +
STACK CFI INIT 179ec 1a .cfa: sp 0 + .ra: lr
STACK CFI 179ee .cfa: sp 16 + .ra: .cfa -4 + ^ r3: .cfa -16 + ^ r4: .cfa -12 + ^ r5: .cfa -8 + ^
STACK CFI 17a02 .cfa: sp 0 + .ra: .ra r3: r3 r4: r4 r5: r5
STACK CFI INIT 17a06 10 .cfa: sp 0 + .ra: lr
STACK CFI 17a08 .cfa: sp 8 + .ra: .cfa -4 + ^ r3: .cfa -8 + ^
STACK CFI INIT 17a18 6c .cfa: sp 0 + .ra: lr
STACK CFI 17a1e .cfa: sp 24 + .ra: .cfa -4 + ^ r4: .cfa -24 + ^ r5: .cfa -20 + ^ r6: .cfa -16 + ^ r7: .cfa -12 + ^ r8: .cfa -8 + ^
STACK CFI 17a26 .cfa: sp 56 +
STACK CFI 17a7a .cfa: sp 24 +
STACK CFI INIT 17a84 2c .cfa: sp 0 + .ra: lr
STACK CFI 17a86 .cfa: sp 24 + .ra: .cfa -4 + ^ r4: .cfa -16 + ^ r5: .cfa -12 + ^ r6: .cfa -8 + ^
STACK CFI 17aae .cfa: sp 16 +
STACK CFI INIT 17ab0 38 .cfa: sp 0 + .ra: lr
STACK CFI 17ab2 .cfa: sp 24 + .ra: .cfa -4 + ^ r4: .cfa -16 + ^ r5: .cfa -12 + ^ r6: .cfa -8 + ^
STACK CFI 17ae0 .cfa: sp 16 +
STACK CFI INIT 17a84 2c .cfa: sp 0 + .ra: lr
STACK CFI 17a86 .cfa: sp 24 + .ra: .cfa -4 + ^ r4: .cfa -16 + ^ r5: .cfa -12 + ^ r6: .cfa -8 + ^
STACK CFI 17aae .cfa: sp 16 +
STACK CFI INIT 17ae8 2c .cfa: sp 0 + .ra: lr
STACK CFI 17aea .cfa: sp 24 + .ra: .cfa -4 + ^ r4: .cfa -16 + ^ r5: .cfa -12 + ^ r6: .cfa -8 + ^
STACK CFI 17b12 .cfa: sp 16 +
STACK CFI INIT 17a84 2c .cfa: sp 0 + .ra: lr
STACK CFI 17a86 .cfa: sp 24 + .ra: .cfa -4 + ^ r4: .cfa -16 + ^ r5: .cfa -12 + ^ r6: .cfa -8 + ^
STACK CFI 17aae .cfa: sp 16 +
STACK CFI INIT 17b14 90 .cfa: sp 0 + .ra: lr
STACK CFI 17b1a .cfa: sp 32 + .ra: .cfa -4 + ^ r4: .cfa -24 + ^ r5: .cfa -20 + ^ r6: .cfa -16 + ^ r7: .cfa -12 + ^ r8: .cfa -8 + ^
STACK CFI 17ba0 .cfa: sp 24 +
STACK CFI INIT 17ba4 46 .cfa: sp 0 + .ra: lr
STACK CFI 17ba6 .cfa: sp 32 + .ra: .cfa -4 + ^ r4: .cfa -20 + ^ r5: .cfa -16 + ^ r6: .cfa -12 + ^ r7: .cfa -8 + ^
STACK CFI 17be8 .cfa: sp 20 +
STACK CFI INIT 17bec 2c8 .cfa: sp 0 + .ra: lr
STACK CFI 17bf0 .cfa: sp 36 + .ra: .cfa -4 + ^ r10: .cfa -12 + ^ r11: .cfa -8 + ^ r4: .cfa -36 + ^ r5: .cfa -32 + ^ r6: .cfa -28 + ^ r7: .cfa -24 + ^ r8: .cfa -20 + ^ r9: .cfa -16 + ^
STACK CFI 17bf4 .cfa: sp 256 +
STACK CFI 17e60 .cfa: sp 36 +
STACK CFI INIT 17eb4 14 .cfa: sp 0 + .ra: lr
STACK CFI 17eb6 .cfa: sp 8 + .ra: .cfa -4 + ^ r4: .cfa -8 + ^
STACK CFI INIT 17ec8 64 .cfa: sp 0 + .ra: lr
STACK CFI 17ecc .cfa: sp 24 + .ra: .cfa -4 + ^ r4: .cfa -24 + ^ r5: .cfa -20 + ^ r6: .cfa -16 + ^ r7: .cfa -12 + ^ r8: .cfa -8 + ^
STACK CFI 17ed8 .cfa: sp 56 +
STACK CFI 17f1e .cfa: sp 24 +
STACK CFI INIT 17f2c 88 .cfa: sp 0 + .ra: lr
STACK CFI 17f30 .cfa: sp 28 + .ra: .cfa -4 + ^ r4: .cfa -28 + ^ r5: .cfa -24 + ^ r6: .cfa -20 + ^ r7: .cfa -16 + ^ r8: .cfa -12 + ^ r9: .cfa -8 + ^
STACK CFI 17f34 .cfa: sp 280 +
STACK CFI 17faa .cfa: sp 28 +
STACK CFI INIT 17fb4 180 .cfa: sp 0 + .ra: lr
STACK CFI 17fb8 .cfa: sp 36 + .ra: .cfa -4 + ^ r10: .cfa -12 + ^ r11: .cfa -8 + ^ r4: .cfa -36 + ^ r5: .cfa -32 + ^ r6: .cfa -28 + ^ r7: .cfa -24 + ^ r8: .cfa -20 + ^ r9: .cfa -16 + ^
STACK CFI 17fbc .cfa: sp 296 +
STACK CFI 1810e .cfa: sp 36 +
STACK CFI INIT 18134 a4 .cfa: sp 0 + .ra: lr
STACK CFI 18138 .cfa: sp 32 + .ra: .cfa -4 + ^ r4: .cfa -24 + ^ r5: .cfa -20 + ^ r6: .cfa -16 + ^ r7: .cfa -12 + ^ r8: .cfa -8 + ^
STACK CFI 181d4 .cfa: sp 24 +
STACK CFI INIT 181d8 48 .cfa: sp 0 + .ra: lr
STACK CFI 181da .cfa: sp 20 + .ra: .cfa -4 + ^ r4: .cfa -20 + ^ r5: .cfa -16 + ^ r6: .cfa -12 + ^ r7: .cfa -8 + ^
STACK CFI 181e6 .cfa: sp 184 +
STACK CFI 1821a .cfa: sp 20 +
STACK CFI INIT 18220 d4 .cfa: sp 0 + .ra: lr
STACK CFI 18224 .cfa: sp 28 + .ra: .cfa -4 + ^ r4: .cfa -28 + ^ r5: .cfa -24 + ^ r6: .cfa -20 + ^ r7: .cfa -16 + ^ r8: .cfa -12 + ^ r9: .cfa -8 + ^
STACK CFI 18228 .cfa: sp 112 +
STACK CFI 182d6 .cfa: sp 28 +
STACK CFI INIT 182f4 2c .cfa: sp 0 + .ra: lr
STACK CFI 182f6 .cfa: sp 32 + .ra: .cfa -4 + ^ r4: .cfa -20 + ^ r5: .cfa -16 + ^ r6: .cfa -12 + ^ r7: .cfa -8 + ^
STACK CFI 18318 .cfa: sp 20 +
STACK CFI INIT 18320 74 .cfa: sp 0 + .ra: lr
STACK CFI 18324 .cfa: sp 32 + .ra: .cfa -4 + ^ r10: .cfa -8 + ^ r4: .cfa -32 + ^ r5: .cfa -28 + ^ r6: .cfa -24 + ^ r7: .cfa -20 + ^ r8: .cfa -16 + ^ r9: .cfa -12 + ^
STACK CFI 18328 .cfa: sp 96 +
STACK CFI 1838c .cfa: sp 32 +
STACK CFI INIT 18394 178 .cfa: sp 0 + .ra: lr
STACK CFI 18398 .cfa: sp 28 + .ra: .cfa -4 + ^ r4: .cfa -28 + ^ r5: .cfa -24 + ^ r6: .cfa -20 + ^ r7: .cfa -16 + ^ r8: .cfa -12 + ^ r9: .cfa -8 + ^
STACK CFI 183a4 .cfa: sp 96 +
STACK CFI 184da .cfa: sp 28 +
STACK CFI INIT 1850c 2ac .cfa: sp 0 + .ra: lr
STACK CFI 18510 .cfa: sp 36 + .ra: .cfa -4 + ^ r10: .cfa -12 + ^ r11: .cfa -8 + ^ r4: .cfa -36 + ^ r5: .cfa -32 + ^ r6: .cfa -28 + ^ r7: .cfa -24 + ^ r8: .cfa -20 + ^ r9: .cfa -16 + ^
STACK CFI 18516 .cfa: sp 112 +
STACK CFI 1875c .cfa: sp 36 +
STACK CFI 18760 .cfa: sp 0 + .ra: .ra r10: r10 r11: r11 r4: r4 r5: r5 r6: r6 r7: r7 r8: r8 r9: r9
STACK CFI 18764 .cfa: sp 112 + .ra: .cfa -4 + ^ r10: .cfa -12 + ^ r11: .cfa -8 + ^ r4: .cfa -36 + ^ r5: .cfa -32 + ^ r6: .cfa -28 + ^ r7: .cfa -24 + ^ r8: .cfa -20 + ^ r9: .cfa -16 + ^
STACK CFI 1876a .cfa: sp 36 +
STACK CFI INIT 187b8 e8 .cfa: sp 0 + .ra: lr
STACK CFI 187bc .cfa: sp 28 + .ra: .cfa -4 + ^ r4: .cfa -28 + ^ r5: .cfa -24 + ^ r6: .cfa -20 + ^ r7: .cfa -16 + ^ r8: .cfa -12 + ^ r9: .cfa -8 + ^
STACK CFI 187c0 .cfa: sp 240 +
STACK CFI 18884 .cfa: sp 28 +
STACK CFI INIT 188a0 244 .cfa: sp 0 + .ra: lr
STACK CFI 188a4 .cfa: sp 36 + .ra: .cfa -4 + ^ r10: .cfa -12 + ^ r11: .cfa -8 + ^ r4: .cfa -36 + ^ r5: .cfa -32 + ^ r6: .cfa -28 + ^ r7: .cfa -24 + ^ r8: .cfa -20 + ^ r9: .cfa -16 + ^
STACK CFI 188aa .cfa: sp 312 +
STACK CFI 18a9c .cfa: sp 36 +
STACK CFI INIT 18ae4 6c .cfa: sp 0 + .ra: lr
STACK CFI 18ae8 .cfa: sp 24 + .ra: .cfa -4 + ^ r4: .cfa -24 + ^ r5: .cfa -20 + ^ r6: .cfa -16 + ^ r7: .cfa -12 + ^ r8: .cfa -8 + ^
STACK CFI 18af2 .cfa: sp 184 +
STACK CFI 18b42 .cfa: sp 24 +
STACK CFI INIT 18b50 d4 .cfa: sp 0 + .ra: lr
STACK CFI 18b54 .cfa: sp 28 + .ra: .cfa -4 + ^ r4: .cfa -28 + ^ r5: .cfa -24 + ^ r6: .cfa -20 + ^ r7: .cfa -16 + ^ r8: .cfa -12 + ^ r9: .cfa -8 + ^
STACK CFI 18b58 .cfa: sp 112 +
STACK CFI 18c06 .cfa: sp 28 +
STACK CFI INIT 18c24 d8 .cfa: sp 0 + .ra: lr
STACK CFI 18c28 .cfa: sp 28 + .ra: .cfa -4 + ^ r4: .cfa -28 + ^ r5: .cfa -24 + ^ r6: .cfa -20 + ^ r7: .cfa -16 + ^ r8: .cfa -12 + ^ r9: .cfa -8 + ^
STACK CFI 18c32 .cfa: sp 240 +
STACK CFI 18cf4 .cfa: sp 28 +
STACK CFI INIT 18cfc e8 .cfa: sp 0 + .ra: lr
STACK CFI 18d00 .cfa: sp 28 + .ra: .cfa -4 + ^ r4: .cfa -28 + ^ r5: .cfa -24 + ^ r6: .cfa -20 + ^ r7: .cfa -16 + ^ r8: .cfa -12 + ^ r9: .cfa -8 + ^
STACK CFI 18d0a .cfa: sp 104 +
STACK CFI 18dc4 .cfa: sp 28 +
STACK CFI INIT 18de4 74 .cfa: sp 0 + .ra: lr
STACK CFI 18de8 .cfa: sp 32 + .ra: .cfa -4 + ^ r10: .cfa -8 + ^ r4: .cfa -32 + ^ r5: .cfa -28 + ^ r6: .cfa -24 + ^ r7: .cfa -20 + ^ r8: .cfa -16 + ^ r9: .cfa -12 + ^
STACK CFI 18dec .cfa: sp 96 +
STACK CFI 18e50 .cfa: sp 32 +
STACK CFI INIT 18e58 11c .cfa: sp 0 + .ra: lr
STACK CFI 18e5c .cfa: sp 36 + .ra: .cfa -4 + ^ r10: .cfa -12 + ^ r11: .cfa -8 + ^ r4: .cfa -36 + ^ r5: .cfa -32 + ^ r6: .cfa -28 + ^ r7: .cfa -24 + ^ r8: .cfa -20 + ^ r9: .cfa -16 + ^
STACK CFI 18e6a .cfa: sp 296 +
STACK CFI 18f6a .cfa: sp 36 +
STACK CFI INIT 18f74 96 .cfa: sp 0 + .ra: lr
STACK CFI 18f76 .cfa: sp 20 + .ra: .cfa -4 + ^ r4: .cfa -20 + ^ r5: .cfa -16 + ^ r6: .cfa -12 + ^ r7: .cfa -8 + ^
STACK CFI 18f78 .cfa: sp 80 +
STACK CFI 19008 .cfa: sp 20 +
STACK CFI INIT 1900c 110 .cfa: sp 0 + .ra: lr
STACK CFI 19010 .cfa: sp 32 + .ra: .cfa -4 + ^ r10: .cfa -8 + ^ r4: .cfa -32 + ^ r5: .cfa -28 + ^ r6: .cfa -24 + ^ r7: .cfa -20 + ^ r8: .cfa -16 + ^ r9: .cfa -12 + ^
STACK CFI 1901e .cfa: sp 232 +
STACK CFI 190fa .cfa: sp 32 +
STACK CFI INIT 1911c 94 .cfa: sp 0 + .ra: lr
STACK CFI 19120 .cfa: sp 36 + .ra: .cfa -4 + ^ r10: .cfa -12 + ^ r11: .cfa -8 + ^ r4: .cfa -36 + ^ r5: .cfa -32 + ^ r6: .cfa -28 + ^ r7: .cfa -24 + ^ r8: .cfa -20 + ^ r9: .cfa -16 + ^
STACK CFI 1912a .cfa: sp 232 +
STACK CFI 191a6 .cfa: sp 36 +
STACK CFI INIT 191b0 62 .cfa: sp 0 + .ra: lr
STACK CFI 191b2 .cfa: sp 32 + .ra: .cfa -4 + ^ r4: .cfa -20 + ^ r5: .cfa -16 + ^ r6: .cfa -12 + ^ r7: .cfa -8 + ^
STACK CFI 19210 .cfa: sp 20 +
STACK CFI INIT 19212 30 .cfa: sp 0 + .ra: lr
STACK CFI 19214 .cfa: sp 16 + .ra: .cfa -4 + ^ r3: .cfa -16 + ^ r4: .cfa -12 + ^ r5: .cfa -8 + ^
STACK CFI INIT 19242 5e .cfa: sp 0 + .ra: lr
STACK CFI 19244 .cfa: sp 16 + .ra: .cfa -4 + ^ r4: .cfa -16 + ^ r5: .cfa -12 + ^ r6: .cfa -8 + ^
STACK CFI INIT 192a0 64 .cfa: sp 0 + .ra: lr
STACK CFI 192a2 .cfa: sp 16 + .ra: .cfa -4 + ^ r4: .cfa -16 + ^ r5: .cfa -12 + ^ r6: .cfa -8 + ^
STACK CFI INIT 19304 90 .cfa: sp 0 + .ra: lr
STACK CFI 19308 .cfa: sp 24 + .ra: .cfa -4 + ^ r4: .cfa -24 + ^ r5: .cfa -20 + ^ r6: .cfa -16 + ^ r7: .cfa -12 + ^ r8: .cfa -8 + ^
STACK CFI INIT 19394 84 .cfa: sp 0 + .ra: lr
STACK CFI 1939a .cfa: sp 24 + .ra: .cfa -4 + ^ r4: .cfa -24 + ^ r5: .cfa -20 + ^ r6: .cfa -16 + ^ r7: .cfa -12 + ^ r8: .cfa -8 + ^
STACK CFI INIT 13b88 6ac .cfa: sp 0 + .ra: lr
STACK CFI 13b8c .cfa: sp 40 + .ra: .cfa -4 + ^ r4: .cfa -24 + ^ r5: .cfa -20 + ^ r6: .cfa -16 + ^ r7: .cfa -12 + ^ r8: .cfa -8 + ^
STACK CFI 140e6 .cfa: sp 24 +
STACK CFI INIT 19418 2f4 .cfa: sp 0 + .ra: lr
STACK CFI 1941c .cfa: sp 36 + .ra: .cfa -4 + ^ r10: .cfa -12 + ^ r11: .cfa -8 + ^ r4: .cfa -36 + ^ r5: .cfa -32 + ^ r6: .cfa -28 + ^ r7: .cfa -24 + ^ r8: .cfa -20 + ^ r9: .cfa -16 + ^
STACK CFI 19420 .cfa: sp 256 +
STACK CFI 196cc .cfa: sp 36 +
STACK CFI INIT 1970c 6c .cfa: sp 0 + .ra: lr
STACK CFI 1970e .cfa: sp 12 + .ra: .cfa -4 + ^ r4: .cfa -12 + ^ r5: .cfa -8 + ^
STACK CFI 19710 .cfa: sp 40 +
STACK CFI 1976e .cfa: sp 12 +
STACK CFI INIT 19778 70 .cfa: sp 0 + .ra: lr
STACK CFI 1977a .cfa: sp 12 + .ra: .cfa -4 + ^ r4: .cfa -12 + ^ r5: .cfa -8 + ^
STACK CFI 1977c .cfa: sp 40 +
STACK CFI 197dc .cfa: sp 12 +
STACK CFI INIT 197e8 148 .cfa: sp 0 + .ra: lr
STACK CFI 197ec .cfa: sp 28 + .ra: .cfa -4 + ^ r4: .cfa -28 + ^ r5: .cfa -24 + ^ r6: .cfa -20 + ^ r7: .cfa -16 + ^ r8: .cfa -12 + ^ r9: .cfa -8 + ^
STACK CFI 197f0 .cfa: sp 112 +
STACK CFI 1990a .cfa: sp 28 +
STACK CFI INIT 19930 148 .cfa: sp 0 + .ra: lr
STACK CFI 19934 .cfa: sp 28 + .ra: .cfa -4 + ^ r4: .cfa -28 + ^ r5: .cfa -24 + ^ r6: .cfa -20 + ^ r7: .cfa -16 + ^ r8: .cfa -12 + ^ r9: .cfa -8 + ^
STACK CFI 19938 .cfa: sp 112 +
STACK CFI 19a52 .cfa: sp 28 +
STACK CFI INIT 19a78 148 .cfa: sp 0 + .ra: lr
STACK CFI 19a7c .cfa: sp 28 + .ra: .cfa -4 + ^ r4: .cfa -28 + ^ r5: .cfa -24 + ^ r6: .cfa -20 + ^ r7: .cfa -16 + ^ r8: .cfa -12 + ^ r9: .cfa -8 + ^
STACK CFI 19a80 .cfa: sp 112 +
STACK CFI 19b9a .cfa: sp 28 +
STACK CFI INIT 19bc0 148 .cfa: sp 0 + .ra: lr
STACK CFI 19bc4 .cfa: sp 28 + .ra: .cfa -4 + ^ r4: .cfa -28 + ^ r5: .cfa -24 + ^ r6: .cfa -20 + ^ r7: .cfa -16 + ^ r8: .cfa -12 + ^ r9: .cfa -8 + ^
STACK CFI 19bc8 .cfa: sp 112 +
STACK CFI 19ce2 .cfa: sp 28 +
STACK CFI INIT 19d08 c4 .cfa: sp 0 + .ra: lr
STACK CFI 19d0a .cfa: sp 20 + .ra: .cfa -4 + ^ r4: .cfa -20 + ^ r5: .cfa -16 + ^ r6: .cfa -12 + ^ r7: .cfa -8 + ^
STACK CFI 19d0e .cfa: sp 104 +
STACK CFI 19db8 .cfa: sp 20 +
STACK CFI INIT 19dcc 270 .cfa: sp 0 + .ra: lr
STACK CFI 19dd0 .cfa: sp 36 + .ra: .cfa -4 + ^ r10: .cfa -12 + ^ r11: .cfa -8 + ^ r4: .cfa -36 + ^ r5: .cfa -32 + ^ r6: .cfa -28 + ^ r7: .cfa -24 + ^ r8: .cfa -20 + ^ r9: .cfa -16 + ^
STACK CFI 19dd4 .cfa: sp 280 +
STACK CFI 19ff2 .cfa: sp 36 +
STACK CFI INIT 1a03c f8 .cfa: sp 0 + .ra: lr
STACK CFI 1a040 .cfa: sp 24 + .ra: .cfa -4 + ^ r4: .cfa -24 + ^ r5: .cfa -20 + ^ r6: .cfa -16 + ^ r7: .cfa -12 + ^ r8: .cfa -8 + ^
STACK CFI 1a044 .cfa: sp 256 +
STACK CFI 1a11e .cfa: sp 24 +
STACK CFI INIT 1a134 f8 .cfa: sp 0 + .ra: lr
STACK CFI 1a138 .cfa: sp 24 + .ra: .cfa -4 + ^ r4: .cfa -24 + ^ r5: .cfa -20 + ^ r6: .cfa -16 + ^ r7: .cfa -12 + ^ r8: .cfa -8 + ^
STACK CFI 1a13c .cfa: sp 256 +
STACK CFI 1a216 .cfa: sp 24 +
STACK CFI INIT 1a22c fc .cfa: sp 0 + .ra: lr
STACK CFI 1a230 .cfa: sp 24 + .ra: .cfa -4 + ^ r4: .cfa -24 + ^ r5: .cfa -20 + ^ r6: .cfa -16 + ^ r7: .cfa -12 + ^ r8: .cfa -8 + ^
STACK CFI 1a234 .cfa: sp 256 +
STACK CFI 1a310 .cfa: sp 24 +
STACK CFI INIT 1a328 fc .cfa: sp 0 + .ra: lr
STACK CFI 1a32c .cfa: sp 24 + .ra: .cfa -4 + ^ r4: .cfa -24 + ^ r5: .cfa -20 + ^ r6: .cfa -16 + ^ r7: .cfa -12 + ^ r8: .cfa -8 + ^
STACK CFI 1a330 .cfa: sp 256 +
STACK CFI 1a40c .cfa: sp 24 +
STACK CFI INIT 1a424 748 .cfa: sp 0 + .ra: lr
STACK CFI 1a428 .cfa: sp 36 + .ra: .cfa -4 + ^ r10: .cfa -12 + ^ r11: .cfa -8 + ^ r4: .cfa -36 + ^ r5: .cfa -32 + ^ r6: .cfa -28 + ^ r7: .cfa -24 + ^ r8: .cfa -20 + ^ r9: .cfa -16 + ^
STACK CFI 1a430 .cfa: sp 1232 +
STACK CFI 1aaa6 .cfa: sp 36 +
STACK CFI INIT 1ab6c 884 .cfa: sp 0 + .ra: lr
STACK CFI 1ab70 .cfa: sp 36 + .ra: .cfa -4 + ^ r10: .cfa -12 + ^ r11: .cfa -8 + ^ r4: .cfa -36 + ^ r5: .cfa -32 + ^ r6: .cfa -28 + ^ r7: .cfa -24 + ^ r8: .cfa -20 + ^ r9: .cfa -16 + ^
STACK CFI 1ab78 .cfa: sp 624 +
STACK CFI 1b2f4 .cfa: sp 36 +
STACK CFI INIT 1b3f0 7f8 .cfa: sp 0 + .ra: lr
STACK CFI 1b3f4 .cfa: sp 36 + .ra: .cfa -4 + ^ r10: .cfa -12 + ^ r11: .cfa -8 + ^ r4: .cfa -36 + ^ r5: .cfa -32 + ^ r6: .cfa -28 + ^ r7: .cfa -24 + ^ r8: .cfa -20 + ^ r9: .cfa -16 + ^
STACK CFI 1b3fa .cfa: sp 488 +
STACK CFI 1bafa .cfa: sp 36 +
STACK CFI INIT 1bbe8 7f8 .cfa: sp 0 + .ra: lr
STACK CFI 1bbec .cfa: sp 36 + .ra: .cfa -4 + ^ r10: .cfa -12 + ^ r11: .cfa -8 + ^ r4: .cfa -36 + ^ r5: .cfa -32 + ^ r6: .cfa -28 + ^ r7: .cfa -24 + ^ r8: .cfa -20 + ^ r9: .cfa -16 + ^
STACK CFI 1bbf2 .cfa: sp 496 +
STACK CFI 1c2f4 .cfa: sp 36 +
STACK CFI INIT 1c3e0 458 .cfa: sp 0 + .ra: lr
STACK CFI 1c3e4 .cfa: sp 36 + .ra: .cfa -4 + ^ r10: .cfa -12 + ^ r11: .cfa -8 + ^ r4: .cfa -36 + ^ r5: .cfa -32 + ^ r6: .cfa -28 + ^ r7: .cfa -24 + ^ r8: .cfa -20 + ^ r9: .cfa -16 + ^
STACK CFI 1c3ea .cfa: sp 360 +
STACK CFI 1c7be .cfa: sp 36 +
STACK CFI INIT 1c838 690 .cfa: sp 0 + .ra: lr
STACK CFI 1c83c .cfa: sp 36 + .ra: .cfa -4 + ^ r10: .cfa -12 + ^ r11: .cfa -8 + ^ r4: .cfa -36 + ^ r5: .cfa -32 + ^ r6: .cfa -28 + ^ r7: .cfa -24 + ^ r8: .cfa -20 + ^ r9: .cfa -16 + ^
STACK CFI 1c844 .cfa: sp 616 +
STACK CFI 1ce26 .cfa: sp 36 +
STACK CFI INIT 1cec8 2dc .cfa: sp 0 + .ra: lr
STACK CFI 1cecc .cfa: sp 36 + .ra: .cfa -4 + ^ r10: .cfa -12 + ^ r11: .cfa -8 + ^ r4: .cfa -36 + ^ r5: .cfa -32 + ^ r6: .cfa -28 + ^ r7: .cfa -24 + ^ r8: .cfa -20 + ^ r9: .cfa -16 + ^
STACK CFI 1ced0 .cfa: sp 344 +
STACK CFI 1d150 .cfa: sp 36 +
STACK CFI INIT 1d1a4 468 .cfa: sp 0 + .ra: lr
STACK CFI 1d1a8 .cfa: sp 36 + .ra: .cfa -4 + ^ r10: .cfa -12 + ^ r11: .cfa -8 + ^ r4: .cfa -36 + ^ r5: .cfa -32 + ^ r6: .cfa -28 + ^ r7: .cfa -24 + ^ r8: .cfa -20 + ^ r9: .cfa -16 + ^
STACK CFI 1d1ae .cfa: sp 568 +
STACK CFI 1d598 .cfa: sp 36 +
STACK CFI INIT 1d60c 370 .cfa: sp 0 + .ra: lr
STACK CFI 1d610 .cfa: sp 36 + .ra: .cfa -4 + ^ r10: .cfa -12 + ^ r11: .cfa -8 + ^ r4: .cfa -36 + ^ r5: .cfa -32 + ^ r6: .cfa -28 + ^ r7: .cfa -24 + ^ r8: .cfa -20 + ^ r9: .cfa -16 + ^
STACK CFI 1d614 .cfa: sp 344 +
STACK CFI 1d920 .cfa: sp 36 +
STACK CFI INIT 1d97c 22c .cfa: sp 0 + .ra: lr
STACK CFI 1d980 .cfa: sp 36 + .ra: .cfa -4 + ^ r10: .cfa -12 + ^ r11: .cfa -8 + ^ r4: .cfa -36 + ^ r5: .cfa -32 + ^ r6: .cfa -28 + ^ r7: .cfa -24 + ^ r8: .cfa -20 + ^ r9: .cfa -16 + ^
STACK CFI 1d986 .cfa: sp 320 +
STACK CFI 1db6e .cfa: sp 36 +
STACK CFI INIT 1dba8 41c .cfa: sp 0 + .ra: lr
STACK CFI 1dbac .cfa: sp 36 + .ra: .cfa -4 + ^ r10: .cfa -12 + ^ r11: .cfa -8 + ^ r4: .cfa -36 + ^ r5: .cfa -32 + ^ r6: .cfa -28 + ^ r7: .cfa -24 + ^ r8: .cfa -20 + ^ r9: .cfa -16 + ^
STACK CFI 1dbb0 .cfa: sp 248 +
STACK CFI 1df42 .cfa: sp 36 +
STACK CFI INIT 15dc4 2 .cfa: sp 0 + .ra: lr
STACK CFI INIT 15dc6 2 .cfa: sp 0 + .ra: lr
STACK CFI INIT 15dc8 4 .cfa: sp 0 + .ra: lr
STACK CFI INIT 15ddc 6 .cfa: sp 0 + .ra: lr
STACK CFI INIT 15de2 2 .cfa: sp 0 + .ra: lr
STACK CFI INIT 0 4 .cfa: sp 0 + .ra: lr
STACK CFI INIT 15de2 2 .cfa: sp 0 + .ra: lr
STACK CFI INIT 15de4 ac .cfa: sp 0 + .ra: lr
STACK CFI 15de6 .cfa: sp 16 + .ra: .cfa -4 + ^ r4: .cfa -16 + ^ r5: .cfa -12 + ^ r6: .cfa -8 + ^
STACK CFI INIT 15e90 9e .cfa: sp 0 + .ra: lr
STACK CFI 15e92 .cfa: sp 20 + .ra: .cfa -4 + ^ r4: .cfa -20 + ^ r5: .cfa -16 + ^ r6: .cfa -12 + ^ r7: .cfa -8 + ^
STACK CFI 15e94 .cfa: sp 40 +
STACK CFI 15f2c .cfa: sp 20 +
STACK CFI INIT 0 4 .cfa: sp 0 + .ra: lr
STACK CFI INIT 15f2e 10 .cfa: sp 0 + .ra: lr
STACK CFI INIT 15f3e 16 .cfa: sp 0 + .ra: lr
STACK CFI INIT 15f54 3e .cfa: sp 0 + .ra: lr
STACK CFI 15f56 .cfa: sp 8 + .ra: .cfa -4 + ^ r4: .cfa -8 + ^
STACK CFI INIT 0 2 .cfa: sp 0 + .ra: lr
STACK CFI INIT 15f92 c .cfa: sp 0 + .ra: lr
STACK CFI INIT 15f9e 1a .cfa: sp 0 + .ra: lr
STACK CFI 15fa0 .cfa: sp 16 + .ra: .cfa -4 + ^
STACK CFI 15fb4 .cfa: sp 4 +
STACK CFI INIT 0 6 .cfa: sp 0 + .ra: lr
STACK CFI INIT 15fb8 18 .cfa: sp 0 + .ra: lr
STACK CFI 15fba .cfa: sp 8 + .ra: .cfa -4 + ^ r4: .cfa -8 + ^
STACK CFI INIT 0 6 .cfa: sp 0 + .ra: lr
STACK CFI INIT 1dfc4 20 .cfa: sp 0 + .ra: lr
STACK CFI 1dfc6 .cfa: sp 8 + .ra: .cfa -4 + ^ r4: .cfa -8 + ^
STACK CFI INIT 16030 4c .cfa: sp 0 + .ra: lr
STACK CFI 16034 .cfa: sp 24 + .ra: .cfa -4 + ^ r4: .cfa -24 + ^ r5: .cfa -20 + ^ r6: .cfa -16 + ^ r7: .cfa -12 + ^ r8: .cfa -8 + ^
STACK CFI INIT 15fd0 c .cfa: sp 0 + .ra: lr
STACK CFI 15fd2 .cfa: sp 8 + .ra: .cfa -4 + ^ r4: .cfa -8 + ^
STACK CFI INIT 15fdc 54 .cfa: sp 0 + .ra: lr
STACK CFI 15fe0 .cfa: sp 24 + .ra: .cfa -4 + ^ r4: .cfa -24 + ^ r5: .cfa -20 + ^ r6: .cfa -16 + ^ r7: .cfa -12 + ^ r8: .cfa -8 + ^
STACK CFI INIT 1607c 1c .cfa: sp 0 + .ra: lr
STACK CFI 16080 .cfa: sp 8 + .ra: .cfa -4 + ^ r4: .cfa -8 + ^
STACK CFI INIT 16098 12 .cfa: sp 0 + .ra: lr
STACK CFI 1609a .cfa: sp 8 + .ra: .cfa -4 + ^ r4: .cfa -8 + ^
STACK CFI INIT 160ac 1c .cfa: sp 0 + .ra: lr
STACK CFI 160b0 .cfa: sp 8 + .ra: .cfa -4 + ^ r4: .cfa -8 + ^
STACK CFI INIT 160c8 12 .cfa: sp 0 + .ra: lr
STACK CFI 160ca .cfa: sp 8 + .ra: .cfa -4 + ^ r4: .cfa -8 + ^
STACK CFI INIT 1dfe4 18 .cfa: sp 0 + .ra: lr
STACK CFI 1dfe6 .cfa: sp 8 + .ra: .cfa -4 + ^ r4: .cfa -8 + ^
STACK CFI INIT 1dffc 12 .cfa: sp 0 + .ra: lr
STACK CFI 1dffe .cfa: sp 8 + .ra: .cfa -4 + ^ r4: .cfa -8 + ^
STACK CFI INIT 16a6c 54 .cfa: sp 0 + .ra: lr
STACK CFI 16a70 .cfa: sp 24 + .ra: .cfa -4 + ^ r4: .cfa -24 + ^ r5: .cfa -20 + ^ r6: .cfa -16 + ^ r7: .cfa -12 + ^ r8: .cfa -8 + ^
STACK CFI INIT 1e00e 10 .cfa: sp 0 + .ra: lr
STACK CFI INIT 16ac0 18 .cfa: sp 0 + .ra: lr
STACK CFI 16ac6 .cfa: sp 8 + .ra: .cfa -4 + ^ r4: .cfa -8 + ^
STACK CFI INIT 16aec 1e .cfa: sp 0 + .ra: lr
STACK CFI 16aee .cfa: sp 8 + .ra: .cfa -4 + ^ r4: .cfa -8 + ^
STACK CFI INIT 16b0a 1e .cfa: sp 0 + .ra: lr
STACK CFI INIT 16b40 24 .cfa: sp 0 + .ra: lr
STACK CFI 16b44 .cfa: sp 8 + .ra: .cfa -4 + ^ r4: .cfa -8 + ^
STACK CFI INIT 16b64 12 .cfa: sp 0 + .ra: lr
STACK CFI 16b66 .cfa: sp 8 + .ra: .cfa -4 + ^ r4: .cfa -8 + ^
STACK CFI INIT 16b76 28 .cfa: sp 0 + .ra: lr
STACK CFI 16b78 .cfa: sp 16 + .ra: .cfa -4 + ^ r4: .cfa -16 + ^ r5: .cfa -12 + ^ r6: .cfa -8 + ^
STACK CFI INIT 16b9e e .cfa: sp 0 + .ra: lr
STACK CFI 16ba0 .cfa: sp 8 + .ra: .cfa -4 + ^ r4: .cfa -8 + ^
STACK CFI INIT 16bac 9c .cfa: sp 0 + .ra: lr
STACK CFI 16bb0 .cfa: sp 28 + .ra: .cfa -4 + ^ r4: .cfa -28 + ^ r5: .cfa -24 + ^ r6: .cfa -20 + ^ r7: .cfa -16 + ^ r8: .cfa -12 + ^ r9: .cfa -8 + ^
STACK CFI 16bbc .cfa: sp 48 +
STACK CFI 16c3e .cfa: sp 28 +
STACK CFI INIT 16c48 78 .cfa: sp 0 + .ra: lr
STACK CFI 16c4a .cfa: sp 16 + .ra: .cfa -4 + ^ r4: .cfa -16 + ^ r5: .cfa -12 + ^ r6: .cfa -8 + ^
STACK CFI INIT 16cc0 66 .cfa: sp 0 + .ra: lr
STACK CFI 16cc2 .cfa: sp 16 + .ra: .cfa -4 + ^ r4: .cfa -16 + ^ r5: .cfa -12 + ^ r6: .cfa -8 + ^
STACK CFI INIT 16d26 42 .cfa: sp 0 + .ra: lr
STACK CFI 16d28 .cfa: sp 24 + .ra: .cfa -4 + ^ r3: .cfa -24 + ^ r4: .cfa -20 + ^ r5: .cfa -16 + ^ r6: .cfa -12 + ^ r7: .cfa -8 + ^
STACK CFI INIT 16d68 6 .cfa: sp 0 + .ra: lr
STACK CFI INIT 16d6e 1c .cfa: sp 0 + .ra: lr
STACK CFI 16d70 .cfa: sp 8 + .ra: .cfa -4 + ^ r3: .cfa -8 + ^
STACK CFI INIT 0 30 .cfa: sp 0 + .ra: lr
STACK CFI 2 .cfa: sp 16 + .ra: .cfa -4 + ^ r4: .cfa -8 + ^
STACK CFI 28 .cfa: sp 8 +
STACK CFI INIT 16f88 28 .cfa: sp 0 + .ra: lr
STACK CFI 16f8a .cfa: sp 16 + .ra: .cfa -4 + ^ r4: .cfa -16 + ^ r5: .cfa -12 + ^ r6: .cfa -8 + ^
STACK CFI INIT 0 b4 .cfa: sp 0 + .ra: lr
STACK CFI 4 .cfa: sp 32 + .ra: .cfa -4 + ^ r3: .cfa -32 + ^ r4: .cfa -28 + ^ r5: .cfa -24 + ^ r6: .cfa -20 + ^ r7: .cfa -16 + ^ r8: .cfa -12 + ^ r9: .cfa -8 + ^
STACK CFI INIT 0 7c .cfa: sp 0 + .ra: lr
STACK CFI 2 .cfa: sp 24 + .ra: .cfa -4 + ^ r3: .cfa -24 + ^ r4: .cfa -20 + ^ r5: .cfa -16 + ^ r6: .cfa -12 + ^ r7: .cfa -8 + ^
STACK CFI INIT 1705c 54 .cfa: sp 0 + .ra: lr
STACK CFI 1705e .cfa: sp 16 + .ra: .cfa -4 + ^ r3: .cfa -16 + ^ r4: .cfa -12 + ^ r5: .cfa -8 + ^
STACK CFI INIT 170b0 8 .cfa: sp 0 + .ra: lr
STACK CFI INIT 170b8 c .cfa: sp 0 + .ra: lr
STACK CFI INIT 170c4 12 .cfa: sp 0 + .ra: lr
STACK CFI 170c6 .cfa: sp 8 + .ra: .cfa -4 + ^ r4: .cfa -8 + ^
STACK CFI INIT 170d6 c .cfa: sp 0 + .ra: lr
STACK CFI INIT 170e2 8 .cfa: sp 0 + .ra: lr
STACK CFI INIT 170ec 54 .cfa: sp 0 + .ra: lr
STACK CFI 170ee .cfa: sp 16 + .ra: .cfa -4 + ^ r3: .cfa -16 + ^ r4: .cfa -12 + ^ r5: .cfa -8 + ^
STACK CFI INIT 17140 8 .cfa: sp 0 + .ra: lr
STACK CFI INIT 17148 c .cfa: sp 0 + .ra: lr
STACK CFI INIT 17154 12 .cfa: sp 0 + .ra: lr
STACK CFI 17156 .cfa: sp 8 + .ra: .cfa -4 + ^ r4: .cfa -8 + ^
STACK CFI INIT 17166 c .cfa: sp 0 + .ra: lr
STACK CFI INIT 17172 8 .cfa: sp 0 + .ra: lr
STACK CFI INIT 1717c 8c .cfa: sp 0 + .ra: lr
STACK CFI 1717e .cfa: sp 24 + .ra: .cfa -4 + ^ r3: .cfa -24 + ^ r4: .cfa -20 + ^ r5: .cfa -16 + ^ r6: .cfa -12 + ^ r7: .cfa -8 + ^
STACK CFI INIT 17208 8 .cfa: sp 0 + .ra: lr
STACK CFI INIT 17210 80 .cfa: sp 0 + .ra: lr
STACK CFI 17212 .cfa: sp 24 + .ra: .cfa -4 + ^ r3: .cfa -24 + ^ r4: .cfa -20 + ^ r5: .cfa -16 + ^ r6: .cfa -12 + ^ r7: .cfa -8 + ^
STACK CFI INIT 17290 8 .cfa: sp 0 + .ra: lr
STACK CFI INIT 17298 8 .cfa: sp 0 + .ra: lr
STACK CFI INIT 172a0 8 .cfa: sp 0 + .ra: lr
STACK CFI INIT 172a8 c .cfa: sp 0 + .ra: lr
STACK CFI INIT 172b4 12 .cfa: sp 0 + .ra: lr
STACK CFI 172b6 .cfa: sp 8 + .ra: .cfa -4 + ^ r4: .cfa -8 + ^
STACK CFI INIT 172c6 8 .cfa: sp 0 + .ra: lr
STACK CFI INIT 172ce c .cfa: sp 0 + .ra: lr
STACK CFI INIT 1739c 8 .cfa: sp 0 + .ra: lr
STACK CFI INIT 173a4 8 .cfa: sp 0 + .ra: lr
STACK CFI INIT 173ac c .cfa: sp 0 + .ra: lr
STACK CFI INIT 173b8 12 .cfa: sp 0 + .ra: lr
STACK CFI 173ba .cfa: sp 8 + .ra: .cfa -4 + ^ r4: .cfa -8 + ^
STACK CFI INIT 173ca 8 .cfa: sp 0 + .ra: lr
STACK CFI INIT 173d2 c .cfa: sp 0 + .ra: lr
STACK CFI INIT 173de 2c .cfa: sp 0 + .ra: lr
STACK CFI 173e0 .cfa: sp 8 + .ra: .cfa -4 + ^ r4: .cfa -8 + ^
STACK CFI INIT 1740a 40 .cfa: sp 0 + .ra: lr
STACK CFI 1740c .cfa: sp 8 + .ra: .cfa -4 + ^ r4: .cfa -8 + ^
STACK CFI INIT 1744a 24 .cfa: sp 0 + .ra: lr
STACK CFI 1744c .cfa: sp 8 + .ra: .cfa -4 + ^ r4: .cfa -8 + ^
STACK CFI INIT 1746e b4 .cfa: sp 0 + .ra: lr
STACK CFI 17470 .cfa: sp 32 + .ra: .cfa -4 + ^ r4: .cfa -20 + ^ r5: .cfa -16 + ^ r6: .cfa -12 + ^ r7: .cfa -8 + ^
STACK CFI 17520 .cfa: sp 20 +
STACK CFI INIT 175b2 98 .cfa: sp 0 + .ra: lr
STACK CFI 175b6 .cfa: sp 40 + .ra: .cfa -4 + ^ r4: .cfa -28 + ^ r5: .cfa -24 + ^ r6: .cfa -20 + ^ r7: .cfa -16 + ^ r8: .cfa -12 + ^ r9: .cfa -8 + ^
STACK CFI 17646 .cfa: sp 28 +
STACK CFI INIT 0 98 .cfa: sp 0 + .ra: lr
STACK CFI 2 .cfa: sp 20 + .ra: .cfa -4 + ^ r4: .cfa -20 + ^ r5: .cfa -16 + ^ r6: .cfa -12 + ^ r7: .cfa -8 + ^
STACK CFI 4 .cfa: sp 80 +
STACK CFI 96 .cfa: sp 20 +
STACK CFI INIT 176da 16 .cfa: sp 0 + .ra: lr
STACK CFI INIT 176f0 3c .cfa: sp 0 + .ra: lr
STACK CFI 176f2 .cfa: sp 8 + .ra: .cfa -4 + ^ r3: .cfa -8 + ^
STACK CFI INIT 0 d0 .cfa: sp 0 + .ra: lr
STACK CFI 6 .cfa: sp 32 + .ra: .cfa -4 + ^ r4: .cfa -24 + ^ r5: .cfa -20 + ^ r6: .cfa -16 + ^ r7: .cfa -12 + ^ r8: .cfa -8 + ^
STACK CFI cc .cfa: sp 24 +
STACK CFI INIT 0 1ec .cfa: sp 0 + .ra: lr
STACK CFI 4 .cfa: sp 32 + .ra: .cfa -4 + ^ r10: .cfa -8 + ^ r4: .cfa -32 + ^ r5: .cfa -28 + ^ r6: .cfa -24 + ^ r7: .cfa -20 + ^ r8: .cfa -16 + ^ r9: .cfa -12 + ^
STACK CFI 16 .cfa: sp 208 +
STACK CFI 1c2 .cfa: sp 32 +
STACK CFI INIT 0 74 .cfa: sp 0 + .ra: lr
STACK CFI 6 .cfa: sp 24 + .ra: .cfa -4 + ^ r4: .cfa -24 + ^ r5: .cfa -20 + ^ r6: .cfa -16 + ^ r7: .cfa -12 + ^ r8: .cfa -8 + ^
STACK CFI 10 .cfa: sp 56 +
STACK CFI 6a .cfa: sp 24 +
STACK CFI INIT 17a84 2c .cfa: sp 0 + .ra: lr
STACK CFI 17a86 .cfa: sp 24 + .ra: .cfa -4 + ^ r4: .cfa -16 + ^ r5: .cfa -12 + ^ r6: .cfa -8 + ^
STACK CFI 17aae .cfa: sp 16 +
STACK CFI INIT 17ab0 38 .cfa: sp 0 + .ra: lr
STACK CFI 17ab2 .cfa: sp 24 + .ra: .cfa -4 + ^ r4: .cfa -16 + ^ r5: .cfa -12 + ^ r6: .cfa -8 + ^
STACK CFI 17ae0 .cfa: sp 16 +
STACK CFI INIT 0 2c .cfa: sp 0 + .ra: lr
STACK CFI 2 .cfa: sp 24 + .ra: .cfa -4 + ^ r4: .cfa -16 + ^ r5: .cfa -12 + ^ r6: .cfa -8 + ^
STACK CFI 2a .cfa: sp 16 +
STACK CFI INIT 17ae8 2c .cfa: sp 0 + .ra: lr
STACK CFI 17aea .cfa: sp 24 + .ra: .cfa -4 + ^ r4: .cfa -16 + ^ r5: .cfa -12 + ^ r6: .cfa -8 + ^
STACK CFI 17b12 .cfa: sp 16 +
STACK CFI INIT 0 8a .cfa: sp 0 + .ra: lr
STACK CFI 6 .cfa: sp 32 + .ra: .cfa -4 + ^ r4: .cfa -24 + ^ r5: .cfa -20 + ^ r6: .cfa -16 + ^ r7: .cfa -12 + ^ r8: .cfa -8 + ^
STACK CFI 86 .cfa: sp 24 +
STACK CFI INIT 17ba4 46 .cfa: sp 0 + .ra: lr
STACK CFI 17ba6 .cfa: sp 32 + .ra: .cfa -4 + ^ r4: .cfa -20 + ^ r5: .cfa -16 + ^ r6: .cfa -12 + ^ r7: .cfa -8 + ^
STACK CFI 17be8 .cfa: sp 20 +
STACK CFI INIT 17bec 2c8 .cfa: sp 0 + .ra: lr
STACK CFI 17bf0 .cfa: sp 36 + .ra: .cfa -4 + ^ r10: .cfa -12 + ^ r11: .cfa -8 + ^ r4: .cfa -36 + ^ r5: .cfa -32 + ^ r6: .cfa -28 + ^ r7: .cfa -24 + ^ r8: .cfa -20 + ^ r9: .cfa -16 + ^
STACK CFI 17bf4 .cfa: sp 256 +
STACK CFI 17e60 .cfa: sp 36 +
STACK CFI INIT 18134 a4 .cfa: sp 0 + .ra: lr
STACK CFI 18138 .cfa: sp 32 + .ra: .cfa -4 + ^ r4: .cfa -24 + ^ r5: .cfa -20 + ^ r6: .cfa -16 + ^ r7: .cfa -12 + ^ r8: .cfa -8 + ^
STACK CFI 181d4 .cfa: sp 24 +
STACK CFI INIT 0 e0 .cfa: sp 0 + .ra: lr
STACK CFI 4 .cfa: sp 28 + .ra: .cfa -4 + ^ r4: .cfa -28 + ^ r5: .cfa -24 + ^ r6: .cfa -20 + ^ r7: .cfa -16 + ^ r8: .cfa -12 + ^ r9: .cfa -8 + ^
STACK CFI e .cfa: sp 240 +
STACK CFI d8 .cfa: sp 28 +
STACK CFI INIT 0 ec .cfa: sp 0 + .ra: lr
STACK CFI 4 .cfa: sp 28 + .ra: .cfa -4 + ^ r4: .cfa -28 + ^ r5: .cfa -24 + ^ r6: .cfa -20 + ^ r7: .cfa -16 + ^ r8: .cfa -12 + ^ r9: .cfa -8 + ^
STACK CFI 8 .cfa: sp 112 +
STACK CFI d0 .cfa: sp 28 +
STACK CFI INIT 182f4 2c .cfa: sp 0 + .ra: lr
STACK CFI 182f6 .cfa: sp 32 + .ra: .cfa -4 + ^ r4: .cfa -20 + ^ r5: .cfa -16 + ^ r6: .cfa -12 + ^ r7: .cfa -8 + ^
STACK CFI 18318 .cfa: sp 20 +
STACK CFI INIT 1e020 6c .cfa: sp 0 + .ra: lr
STACK CFI 1e024 .cfa: sp 24 + .ra: .cfa -4 + ^ r4: .cfa -24 + ^ r5: .cfa -20 + ^ r6: .cfa -16 + ^ r7: .cfa -12 + ^ r8: .cfa -8 + ^
STACK CFI 1e02e .cfa: sp 184 +
STACK CFI 1e07e .cfa: sp 24 +
STACK CFI INIT 1e08c 108 .cfa: sp 0 + .ra: lr
STACK CFI 1e090 .cfa: sp 28 + .ra: .cfa -4 + ^ r4: .cfa -28 + ^ r5: .cfa -24 + ^ r6: .cfa -20 + ^ r7: .cfa -16 + ^ r8: .cfa -12 + ^ r9: .cfa -8 + ^
STACK CFI 1e09a .cfa: sp 112 +
STACK CFI 1e174 .cfa: sp 28 +
STACK CFI INIT 1e194 6e4 .cfa: sp 0 + .ra: lr
STACK CFI 1e198 .cfa: sp 36 + .ra: .cfa -4 + ^ r10: .cfa -12 + ^ r11: .cfa -8 + ^ r4: .cfa -36 + ^ r5: .cfa -32 + ^ r6: .cfa -28 + ^ r7: .cfa -24 + ^ r8: .cfa -20 + ^ r9: .cfa -16 + ^
STACK CFI 1e1a0 .cfa: sp 1640 +
STACK CFI 1e7c4 .cfa: sp 36 +
STACK CFI INIT 0 58 .cfa: sp 0 + .ra: lr
STACK CFI 2 .cfa: sp 32 + .ra: .cfa -4 + ^ r4: .cfa -20 + ^ r5: .cfa -16 + ^ r6: .cfa -12 + ^ r7: .cfa -8 + ^
STACK CFI 56 .cfa: sp 20 +
STACK CFI INIT 19212 30 .cfa: sp 0 + .ra: lr
STACK CFI 19214 .cfa: sp 16 + .ra: .cfa -4 + ^ r3: .cfa -16 + ^ r4: .cfa -12 + ^ r5: .cfa -8 + ^
STACK CFI INIT 19242 5e .cfa: sp 0 + .ra: lr
STACK CFI 19244 .cfa: sp 16 + .ra: .cfa -4 + ^ r4: .cfa -16 + ^ r5: .cfa -12 + ^ r6: .cfa -8 + ^
STACK CFI INIT 192a0 64 .cfa: sp 0 + .ra: lr
STACK CFI 192a2 .cfa: sp 16 + .ra: .cfa -4 + ^ r4: .cfa -16 + ^ r5: .cfa -12 + ^ r6: .cfa -8 + ^
STACK CFI INIT 19304 90 .cfa: sp 0 + .ra: lr
STACK CFI 19308 .cfa: sp 24 + .ra: .cfa -4 + ^ r4: .cfa -24 + ^ r5: .cfa -20 + ^ r6: .cfa -16 + ^ r7: .cfa -12 + ^ r8: .cfa -8 + ^
STACK CFI INIT 19394 84 .cfa: sp 0 + .ra: lr
STACK CFI 1939a .cfa: sp 24 + .ra: .cfa -4 + ^ r4: .cfa -24 + ^ r5: .cfa -20 + ^ r6: .cfa -16 + ^ r7: .cfa -12 + ^ r8: .cfa -8 + ^
STACK CFI INIT 14234 58 .cfa: sp 0 + .ra: lr
STACK CFI 14236 .cfa: sp 24 + .ra: .cfa -4 + ^ r4: .cfa -8 + ^
STACK CFI 14272 .cfa: sp 8 +
STACK CFI INIT 15dc4 2 .cfa: sp 0 + .ra: lr
STACK CFI INIT 15dc6 2 .cfa: sp 0 + .ra: lr
STACK CFI INIT 15dc8 4 .cfa: sp 0 + .ra: lr
STACK CFI INIT 15ddc 6 .cfa: sp 0 + .ra: lr
STACK CFI INIT 15de2 2 .cfa: sp 0 + .ra: lr
STACK CFI INIT 0 4 .cfa: sp 0 + .ra: lr
STACK CFI INIT 15de2 2 .cfa: sp 0 + .ra: lr
STACK CFI INIT 15de2 2 .cfa: sp 0 + .ra: lr
STACK CFI INIT 15de2 2 .cfa: sp 0 + .ra: lr
STACK CFI INIT 15de2 2 .cfa: sp 0 + .ra: lr
STACK CFI INIT 15de2 2 .cfa: sp 0 + .ra: lr
STACK CFI INIT 15de2 2 .cfa: sp 0 + .ra: lr
STACK CFI INIT 15de2 2 .cfa: sp 0 + .ra: lr
STACK CFI INIT 15de2 2 .cfa: sp 0 + .ra: lr
STACK CFI INIT 15de2 2 .cfa: sp 0 + .ra: lr
STACK CFI INIT 15de2 2 .cfa: sp 0 + .ra: lr
STACK CFI INIT 15de4 ac .cfa: sp 0 + .ra: lr
STACK CFI 15de6 .cfa: sp 16 + .ra: .cfa -4 + ^ r4: .cfa -16 + ^ r5: .cfa -12 + ^ r6: .cfa -8 + ^
STACK CFI INIT 15e90 9e .cfa: sp 0 + .ra: lr
STACK CFI 15e92 .cfa: sp 20 + .ra: .cfa -4 + ^ r4: .cfa -20 + ^ r5: .cfa -16 + ^ r6: .cfa -12 + ^ r7: .cfa -8 + ^
STACK CFI 15e94 .cfa: sp 40 +
STACK CFI 15f2c .cfa: sp 20 +
STACK CFI INIT 0 4 .cfa: sp 0 + .ra: lr
STACK CFI INIT 15f2e 10 .cfa: sp 0 + .ra: lr
STACK CFI INIT 15f3e 16 .cfa: sp 0 + .ra: lr
STACK CFI INIT 15f54 3e .cfa: sp 0 + .ra: lr
STACK CFI 15f56 .cfa: sp 8 + .ra: .cfa -4 + ^ r4: .cfa -8 + ^
STACK CFI INIT 0 2 .cfa: sp 0 + .ra: lr
STACK CFI INIT 15f92 c .cfa: sp 0 + .ra: lr
STACK CFI INIT 15f9e 1a .cfa: sp 0 + .ra: lr
STACK CFI 15fa0 .cfa: sp 16 + .ra: .cfa -4 + ^
STACK CFI 15fb4 .cfa: sp 4 +
STACK CFI INIT 0 6 .cfa: sp 0 + .ra: lr
STACK CFI INIT 15fb8 18 .cfa: sp 0 + .ra: lr
STACK CFI 15fba .cfa: sp 8 + .ra: .cfa -4 + ^ r4: .cfa -8 + ^
STACK CFI INIT 0 6 .cfa: sp 0 + .ra: lr
STACK CFI INIT 15fd0 c .cfa: sp 0 + .ra: lr
STACK CFI 15fd2 .cfa: sp 8 + .ra: .cfa -4 + ^ r4: .cfa -8 + ^
STACK CFI INIT 15fd0 c .cfa: sp 0 + .ra: lr
STACK CFI 15fd2 .cfa: sp 8 + .ra: .cfa -4 + ^ r4: .cfa -8 + ^
STACK CFI INIT 15fd0 c .cfa: sp 0 + .ra: lr
STACK CFI 15fd2 .cfa: sp 8 + .ra: .cfa -4 + ^ r4: .cfa -8 + ^
STACK CFI INIT 15fd0 c .cfa: sp 0 + .ra: lr
STACK CFI 15fd2 .cfa: sp 8 + .ra: .cfa -4 + ^ r4: .cfa -8 + ^
STACK CFI INIT 15fd0 c .cfa: sp 0 + .ra: lr
STACK CFI 15fd2 .cfa: sp 8 + .ra: .cfa -4 + ^ r4: .cfa -8 + ^
STACK CFI INIT 15fd0 c .cfa: sp 0 + .ra: lr
STACK CFI 15fd2 .cfa: sp 8 + .ra: .cfa -4 + ^ r4: .cfa -8 + ^
STACK CFI INIT 15fd0 c .cfa: sp 0 + .ra: lr
STACK CFI 15fd2 .cfa: sp 8 + .ra: .cfa -4 + ^ r4: .cfa -8 + ^
STACK CFI INIT 15fd0 c .cfa: sp 0 + .ra: lr
STACK CFI 15fd2 .cfa: sp 8 + .ra: .cfa -4 + ^ r4: .cfa -8 + ^
STACK CFI INIT 15fd0 c .cfa: sp 0 + .ra: lr
STACK CFI 15fd2 .cfa: sp 8 + .ra: .cfa -4 + ^ r4: .cfa -8 + ^
STACK CFI INIT 15fd0 c .cfa: sp 0 + .ra: lr
STACK CFI 15fd2 .cfa: sp 8 + .ra: .cfa -4 + ^ r4: .cfa -8 + ^
STACK CFI INIT 16030 4c .cfa: sp 0 + .ra: lr
STACK CFI 16034 .cfa: sp 24 + .ra: .cfa -4 + ^ r4: .cfa -24 + ^ r5: .cfa -20 + ^ r6: .cfa -16 + ^ r7: .cfa -12 + ^ r8: .cfa -8 + ^
STACK CFI INIT 15fdc 54 .cfa: sp 0 + .ra: lr
STACK CFI 15fe0 .cfa: sp 24 + .ra: .cfa -4 + ^ r4: .cfa -24 + ^ r5: .cfa -20 + ^ r6: .cfa -16 + ^ r7: .cfa -12 + ^ r8: .cfa -8 + ^
STACK CFI INIT 1607c 1c .cfa: sp 0 + .ra: lr
STACK CFI 16080 .cfa: sp 8 + .ra: .cfa -4 + ^ r4: .cfa -8 + ^
STACK CFI INIT 16098 12 .cfa: sp 0 + .ra: lr
STACK CFI 1609a .cfa: sp 8 + .ra: .cfa -4 + ^ r4: .cfa -8 + ^
STACK CFI INIT 160ac 1c .cfa: sp 0 + .ra: lr
STACK CFI 160b0 .cfa: sp 8 + .ra: .cfa -4 + ^ r4: .cfa -8 + ^
STACK CFI INIT 160c8 12 .cfa: sp 0 + .ra: lr
STACK CFI 160ca .cfa: sp 8 + .ra: .cfa -4 + ^ r4: .cfa -8 + ^
STACK CFI INIT 1e878 18 .cfa: sp 0 + .ra: lr
STACK CFI 1e87a .cfa: sp 8 + .ra: .cfa -4 + ^ r4: .cfa -8 + ^
STACK CFI INIT 1e890 12 .cfa: sp 0 + .ra: lr
STACK CFI 1e892 .cfa: sp 8 + .ra: .cfa -4 + ^ r4: .cfa -8 + ^
STACK CFI INIT 1e8a4 18 .cfa: sp 0 + .ra: lr
STACK CFI 1e8a6 .cfa: sp 8 + .ra: .cfa -4 + ^ r4: .cfa -8 + ^
STACK CFI INIT 1e8bc 12 .cfa: sp 0 + .ra: lr
STACK CFI 1e8be .cfa: sp 8 + .ra: .cfa -4 + ^ r4: .cfa -8 + ^
STACK CFI INIT 1e8d0 18 .cfa: sp 0 + .ra: lr
STACK CFI 1e8d2 .cfa: sp 8 + .ra: .cfa -4 + ^ r4: .cfa -8 + ^
STACK CFI INIT 1e8e8 12 .cfa: sp 0 + .ra: lr
STACK CFI 1e8ea .cfa: sp 8 + .ra: .cfa -4 + ^ r4: .cfa -8 + ^
STACK CFI INIT 1e8fc 18 .cfa: sp 0 + .ra: lr
STACK CFI 1e8fe .cfa: sp 8 + .ra: .cfa -4 + ^ r4: .cfa -8 + ^
STACK CFI INIT 1e914 12 .cfa: sp 0 + .ra: lr
STACK CFI 1e916 .cfa: sp 8 + .ra: .cfa -4 + ^ r4: .cfa -8 + ^
STACK CFI INIT 1e928 18 .cfa: sp 0 + .ra: lr
STACK CFI 1e92a .cfa: sp 8 + .ra: .cfa -4 + ^ r4: .cfa -8 + ^
STACK CFI INIT 1e940 12 .cfa: sp 0 + .ra: lr
STACK CFI 1e942 .cfa: sp 8 + .ra: .cfa -4 + ^ r4: .cfa -8 + ^
STACK CFI INIT 1e954 18 .cfa: sp 0 + .ra: lr
STACK CFI 1e956 .cfa: sp 8 + .ra: .cfa -4 + ^ r4: .cfa -8 + ^
STACK CFI INIT 1e96c 12 .cfa: sp 0 + .ra: lr
STACK CFI 1e96e .cfa: sp 8 + .ra: .cfa -4 + ^ r4: .cfa -8 + ^
STACK CFI INIT 1e980 18 .cfa: sp 0 + .ra: lr
STACK CFI 1e982 .cfa: sp 8 + .ra: .cfa -4 + ^ r4: .cfa -8 + ^
STACK CFI INIT 1e998 12 .cfa: sp 0 + .ra: lr
STACK CFI 1e99a .cfa: sp 8 + .ra: .cfa -4 + ^ r4: .cfa -8 + ^
STACK CFI INIT 1e9ac 18 .cfa: sp 0 + .ra: lr
STACK CFI 1e9ae .cfa: sp 8 + .ra: .cfa -4 + ^ r4: .cfa -8 + ^
STACK CFI INIT 1e9c4 12 .cfa: sp 0 + .ra: lr
STACK CFI 1e9c6 .cfa: sp 8 + .ra: .cfa -4 + ^ r4: .cfa -8 + ^
STACK CFI INIT 1e9d8 18 .cfa: sp 0 + .ra: lr
STACK CFI 1e9da .cfa: sp 8 + .ra: .cfa -4 + ^ r4: .cfa -8 + ^
STACK CFI INIT 1e9f0 12 .cfa: sp 0 + .ra: lr
STACK CFI 1e9f2 .cfa: sp 8 + .ra: .cfa -4 + ^ r4: .cfa -8 + ^
STACK CFI INIT 1ea04 18 .cfa: sp 0 + .ra: lr
STACK CFI 1ea06 .cfa: sp 8 + .ra: .cfa -4 + ^ r4: .cfa -8 + ^
STACK CFI INIT 1ea1c 12 .cfa: sp 0 + .ra: lr
STACK CFI 1ea1e .cfa: sp 8 + .ra: .cfa -4 + ^ r4: .cfa -8 + ^
STACK CFI INIT 1ea30 20 .cfa: sp 0 + .ra: lr
STACK CFI 1ea32 .cfa: sp 8 + .ra: .cfa -4 + ^ r4: .cfa -8 + ^
STACK CFI INIT 1ea50 20 .cfa: sp 0 + .ra: lr
STACK CFI 1ea52 .cfa: sp 8 + .ra: .cfa -4 + ^ r4: .cfa -8 + ^
STACK CFI INIT 1ea70 20 .cfa: sp 0 + .ra: lr
STACK CFI 1ea72 .cfa: sp 8 + .ra: .cfa -4 + ^ r4: .cfa -8 + ^
STACK CFI INIT 1ea90 20 .cfa: sp 0 + .ra: lr
STACK CFI 1ea92 .cfa: sp 8 + .ra: .cfa -4 + ^ r4: .cfa -8 + ^
STACK CFI INIT 1eab0 20 .cfa: sp 0 + .ra: lr
STACK CFI 1eab2 .cfa: sp 8 + .ra: .cfa -4 + ^ r4: .cfa -8 + ^
STACK CFI INIT 1ead0 20 .cfa: sp 0 + .ra: lr
STACK CFI 1ead2 .cfa: sp 8 + .ra: .cfa -4 + ^ r4: .cfa -8 + ^
STACK CFI INIT 1eaf0 20 .cfa: sp 0 + .ra: lr
STACK CFI 1eaf2 .cfa: sp 8 + .ra: .cfa -4 + ^ r4: .cfa -8 + ^
STACK CFI INIT 1eb10 20 .cfa: sp 0 + .ra: lr
STACK CFI 1eb12 .cfa: sp 8 + .ra: .cfa -4 + ^ r4: .cfa -8 + ^
STACK CFI INIT 1eb30 20 .cfa: sp 0 + .ra: lr
STACK CFI 1eb32 .cfa: sp 8 + .ra: .cfa -4 + ^ r4: .cfa -8 + ^
STACK CFI INIT 1eb50 20 .cfa: sp 0 + .ra: lr
STACK CFI 1eb52 .cfa: sp 8 + .ra: .cfa -4 + ^ r4: .cfa -8 + ^
STACK CFI INIT 16a6c 54 .cfa: sp 0 + .ra: lr
STACK CFI 16a70 .cfa: sp 24 + .ra: .cfa -4 + ^ r4: .cfa -24 + ^ r5: .cfa -20 + ^ r6: .cfa -16 + ^ r7: .cfa -12 + ^ r8: .cfa -8 + ^
STACK CFI INIT 1e00e 10 .cfa: sp 0 + .ra: lr
STACK CFI INIT 16ac0 18 .cfa: sp 0 + .ra: lr
STACK CFI 16ac6 .cfa: sp 8 + .ra: .cfa -4 + ^ r4: .cfa -8 + ^
STACK CFI INIT 16ad8 14 .cfa: sp 0 + .ra: lr
STACK CFI INIT 1eb70 10 .cfa: sp 0 + .ra: lr
STACK CFI 1eb72 .cfa: sp 8 + .ra: .cfa -4 + ^ r4: .cfa -8 + ^
STACK CFI INIT 1eb80 108 .cfa: sp 0 + .ra: lr
STACK CFI 1eb84 .cfa: sp 36 + .ra: .cfa -4 + ^ r10: .cfa -12 + ^ r11: .cfa -8 + ^ r4: .cfa -36 + ^ r5: .cfa -32 + ^ r6: .cfa -28 + ^ r7: .cfa -24 + ^ r8: .cfa -20 + ^ r9: .cfa -16 + ^
STACK CFI 1eb8a .cfa: sp 568 +
STACK CFI 1ec80 .cfa: sp 36 +
STACK CFI INIT 1ec88 1c .cfa: sp 0 + .ra: lr
STACK CFI 1ec8a .cfa: sp 16 + .ra: .cfa -4 + ^ r4: .cfa -16 + ^ r5: .cfa -12 + ^ r6: .cfa -8 + ^
STACK CFI INIT 1eca4 12 .cfa: sp 0 + .ra: lr
STACK CFI 1eca6 .cfa: sp 8 + .ra: .cfa -4 + ^ r4: .cfa -8 + ^
STACK CFI INIT 1ecb8 6c .cfa: sp 0 + .ra: lr
STACK CFI 1ecba .cfa: sp 16 + .ra: .cfa -4 + ^ r4: .cfa -16 + ^ r5: .cfa -12 + ^ r6: .cfa -8 + ^
STACK CFI 1ecc0 .cfa: sp 4112 +
STACK CFI 1ecc6 .cfa: sp 4120 +
STACK CFI 1ed1a .cfa: sp 16 +
STACK CFI INIT 1ed24 5c .cfa: sp 0 + .ra: lr
STACK CFI 1ed26 .cfa: sp 24 + .ra: .cfa -4 + ^ r3: .cfa -24 + ^ r4: .cfa -20 + ^ r5: .cfa -16 + ^ r6: .cfa -12 + ^ r7: .cfa -8 + ^
STACK CFI INIT 16aec 1e .cfa: sp 0 + .ra: lr
STACK CFI 16aee .cfa: sp 8 + .ra: .cfa -4 + ^ r4: .cfa -8 + ^
STACK CFI INIT 16b0a 1e .cfa: sp 0 + .ra: lr
STACK CFI INIT 16b40 24 .cfa: sp 0 + .ra: lr
STACK CFI 16b44 .cfa: sp 8 + .ra: .cfa -4 + ^ r4: .cfa -8 + ^
STACK CFI INIT 16b64 12 .cfa: sp 0 + .ra: lr
STACK CFI 16b66 .cfa: sp 8 + .ra: .cfa -4 + ^ r4: .cfa -8 + ^
STACK CFI INIT 0 24 .cfa: sp 0 + .ra: lr
STACK CFI 2 .cfa: sp 16 + .ra: .cfa -4 + ^ r3: .cfa -16 + ^ r4: .cfa -12 + ^ r5: .cfa -8 + ^
STACK CFI INIT 16bac 9c .cfa: sp 0 + .ra: lr
STACK CFI 16bb0 .cfa: sp 28 + .ra: .cfa -4 + ^ r4: .cfa -28 + ^ r5: .cfa -24 + ^ r6: .cfa -20 + ^ r7: .cfa -16 + ^ r8: .cfa -12 + ^ r9: .cfa -8 + ^
STACK CFI 16bbc .cfa: sp 48 +
STACK CFI 16c3e .cfa: sp 28 +
STACK CFI INIT 16c48 78 .cfa: sp 0 + .ra: lr
STACK CFI 16c4a .cfa: sp 16 + .ra: .cfa -4 + ^ r4: .cfa -16 + ^ r5: .cfa -12 + ^ r6: .cfa -8 + ^
STACK CFI INIT 16cc0 66 .cfa: sp 0 + .ra: lr
STACK CFI 16cc2 .cfa: sp 16 + .ra: .cfa -4 + ^ r4: .cfa -16 + ^ r5: .cfa -12 + ^ r6: .cfa -8 + ^
STACK CFI INIT 0 30 .cfa: sp 0 + .ra: lr
STACK CFI 2 .cfa: sp 16 + .ra: .cfa -4 + ^ r4: .cfa -8 + ^
STACK CFI 28 .cfa: sp 8 +
STACK CFI INIT 0 b4 .cfa: sp 0 + .ra: lr
STACK CFI 4 .cfa: sp 32 + .ra: .cfa -4 + ^ r3: .cfa -32 + ^ r4: .cfa -28 + ^ r5: .cfa -24 + ^ r6: .cfa -20 + ^ r7: .cfa -16 + ^ r8: .cfa -12 + ^ r9: .cfa -8 + ^
STACK CFI INIT 0 7c .cfa: sp 0 + .ra: lr
STACK CFI 2 .cfa: sp 24 + .ra: .cfa -4 + ^ r3: .cfa -24 + ^ r4: .cfa -20 + ^ r5: .cfa -16 + ^ r6: .cfa -12 + ^ r7: .cfa -8 + ^
STACK CFI INIT 1705c 54 .cfa: sp 0 + .ra: lr
STACK CFI 1705e .cfa: sp 16 + .ra: .cfa -4 + ^ r3: .cfa -16 + ^ r4: .cfa -12 + ^ r5: .cfa -8 + ^
STACK CFI INIT 170b0 8 .cfa: sp 0 + .ra: lr
STACK CFI INIT 170b8 c .cfa: sp 0 + .ra: lr
STACK CFI INIT 170c4 12 .cfa: sp 0 + .ra: lr
STACK CFI 170c6 .cfa: sp 8 + .ra: .cfa -4 + ^ r4: .cfa -8 + ^
STACK CFI INIT 170d6 c .cfa: sp 0 + .ra: lr
STACK CFI INIT 170e2 8 .cfa: sp 0 + .ra: lr
STACK CFI INIT 170ec 54 .cfa: sp 0 + .ra: lr
STACK CFI 170ee .cfa: sp 16 + .ra: .cfa -4 + ^ r3: .cfa -16 + ^ r4: .cfa -12 + ^ r5: .cfa -8 + ^
STACK CFI INIT 17140 8 .cfa: sp 0 + .ra: lr
STACK CFI INIT 17148 c .cfa: sp 0 + .ra: lr
STACK CFI INIT 17154 12 .cfa: sp 0 + .ra: lr
STACK CFI 17156 .cfa: sp 8 + .ra: .cfa -4 + ^ r4: .cfa -8 + ^
STACK CFI INIT 17166 c .cfa: sp 0 + .ra: lr
STACK CFI INIT 17172 8 .cfa: sp 0 + .ra: lr
STACK CFI INIT 1717c 8c .cfa: sp 0 + .ra: lr
STACK CFI 1717e .cfa: sp 24 + .ra: .cfa -4 + ^ r3: .cfa -24 + ^ r4: .cfa -20 + ^ r5: .cfa -16 + ^ r6: .cfa -12 + ^ r7: .cfa -8 + ^
STACK CFI INIT 17208 8 .cfa: sp 0 + .ra: lr
STACK CFI INIT 17210 80 .cfa: sp 0 + .ra: lr
STACK CFI 17212 .cfa: sp 24 + .ra: .cfa -4 + ^ r3: .cfa -24 + ^ r4: .cfa -20 + ^ r5: .cfa -16 + ^ r6: .cfa -12 + ^ r7: .cfa -8 + ^
STACK CFI INIT 17290 8 .cfa: sp 0 + .ra: lr
STACK CFI INIT 17298 8 .cfa: sp 0 + .ra: lr
STACK CFI INIT 172a0 8 .cfa: sp 0 + .ra: lr
STACK CFI INIT 172a8 c .cfa: sp 0 + .ra: lr
STACK CFI INIT 172b4 12 .cfa: sp 0 + .ra: lr
STACK CFI 172b6 .cfa: sp 8 + .ra: .cfa -4 + ^ r4: .cfa -8 + ^
STACK CFI INIT 172c6 8 .cfa: sp 0 + .ra: lr
STACK CFI INIT 172ce c .cfa: sp 0 + .ra: lr
STACK CFI INIT 1739c 8 .cfa: sp 0 + .ra: lr
STACK CFI INIT 173a4 8 .cfa: sp 0 + .ra: lr
STACK CFI INIT 173ac c .cfa: sp 0 + .ra: lr
STACK CFI INIT 173b8 12 .cfa: sp 0 + .ra: lr
STACK CFI 173ba .cfa: sp 8 + .ra: .cfa -4 + ^ r4: .cfa -8 + ^
STACK CFI INIT 173ca 8 .cfa: sp 0 + .ra: lr
STACK CFI INIT 173d2 c .cfa: sp 0 + .ra: lr
STACK CFI INIT 0 38 .cfa: sp 0 + .ra: lr
STACK CFI 2 .cfa: sp 8 + .ra: .cfa -4 + ^ r4: .cfa -8 + ^
STACK CFI INIT 0 dc .cfa: sp 0 + .ra: lr
STACK CFI 2 .cfa: sp 20 + .ra: .cfa -4 + ^ r4: .cfa -20 + ^ r5: .cfa -16 + ^ r6: .cfa -12 + ^ r7: .cfa -8 + ^
STACK CFI 8 .cfa: sp 72 +
STACK CFI da .cfa: sp 20 +
STACK CFI INIT 176f0 3c .cfa: sp 0 + .ra: lr
STACK CFI 176f2 .cfa: sp 8 + .ra: .cfa -4 + ^ r3: .cfa -8 + ^
STACK CFI INIT 1ed80 dc .cfa: sp 0 + .ra: lr
STACK CFI 1ed84 .cfa: sp 36 + .ra: .cfa -4 + ^ r10: .cfa -12 + ^ r11: .cfa -8 + ^ r4: .cfa -36 + ^ r5: .cfa -32 + ^ r6: .cfa -28 + ^ r7: .cfa -24 + ^ r8: .cfa -20 + ^ r9: .cfa -16 + ^
STACK CFI 1ed8e .cfa: sp 264 +
STACK CFI 1ee52 .cfa: sp 36 +
STACK CFI INIT 0 20 .cfa: sp 0 + .ra: lr
STACK CFI 2 .cfa: sp 32 + .ra: .cfa -4 + ^ r4: .cfa -20 + ^ r5: .cfa -16 + ^ r6: .cfa -12 + ^ r7: .cfa -8 + ^
STACK CFI 1e .cfa: sp 20 +
STACK CFI INIT 1ee5c 80 .cfa: sp 0 + .ra: lr
STACK CFI 1ee5e .cfa: sp 20 + .ra: .cfa -4 + ^ r4: .cfa -20 + ^ r5: .cfa -16 + ^ r6: .cfa -12 + ^ r7: .cfa -8 + ^
STACK CFI 1ee60 .cfa: sp 176 +
STACK CFI 1eecc .cfa: sp 20 +
STACK CFI INIT 1eedc 1ac .cfa: sp 0 + .ra: lr
STACK CFI 1eee0 .cfa: sp 36 + .ra: .cfa -4 + ^ r10: .cfa -12 + ^ r11: .cfa -8 + ^ r4: .cfa -36 + ^ r5: .cfa -32 + ^ r6: .cfa -28 + ^ r7: .cfa -24 + ^ r8: .cfa -20 + ^ r9: .cfa -16 + ^
STACK CFI 1eee4 .cfa: sp 224 +
STACK CFI 1f050 .cfa: sp 36 +
STACK CFI INIT 1f088 1ac .cfa: sp 0 + .ra: lr
STACK CFI 1f08c .cfa: sp 36 + .ra: .cfa -4 + ^ r10: .cfa -12 + ^ r11: .cfa -8 + ^ r4: .cfa -36 + ^ r5: .cfa -32 + ^ r6: .cfa -28 + ^ r7: .cfa -24 + ^ r8: .cfa -20 + ^ r9: .cfa -16 + ^
STACK CFI 1f090 .cfa: sp 224 +
STACK CFI 1f1fc .cfa: sp 36 +
STACK CFI INIT 1f234 1b0 .cfa: sp 0 + .ra: lr
STACK CFI 1f238 .cfa: sp 36 + .ra: .cfa -4 + ^ r10: .cfa -12 + ^ r11: .cfa -8 + ^ r4: .cfa -36 + ^ r5: .cfa -32 + ^ r6: .cfa -28 + ^ r7: .cfa -24 + ^ r8: .cfa -20 + ^ r9: .cfa -16 + ^
STACK CFI 1f23c .cfa: sp 224 +
STACK CFI 1f3ac .cfa: sp 36 +
STACK CFI INIT 1f3e4 1b0 .cfa: sp 0 + .ra: lr
STACK CFI 1f3e8 .cfa: sp 36 + .ra: .cfa -4 + ^ r10: .cfa -12 + ^ r11: .cfa -8 + ^ r4: .cfa -36 + ^ r5: .cfa -32 + ^ r6: .cfa -28 + ^ r7: .cfa -24 + ^ r8: .cfa -20 + ^ r9: .cfa -16 + ^
STACK CFI 1f3ec .cfa: sp 224 +
STACK CFI 1f55c .cfa: sp 36 +
STACK CFI INIT 1f594 1ac .cfa: sp 0 + .ra: lr
STACK CFI 1f598 .cfa: sp 36 + .ra: .cfa -4 + ^ r10: .cfa -12 + ^ r11: .cfa -8 + ^ r4: .cfa -36 + ^ r5: .cfa -32 + ^ r6: .cfa -28 + ^ r7: .cfa -24 + ^ r8: .cfa -20 + ^ r9: .cfa -16 + ^
STACK CFI 1f59c .cfa: sp 224 +
STACK CFI 1f708 .cfa: sp 36 +
STACK CFI INIT 1f740 1ac .cfa: sp 0 + .ra: lr
STACK CFI 1f744 .cfa: sp 36 + .ra: .cfa -4 + ^ r10: .cfa -12 + ^ r11: .cfa -8 + ^ r4: .cfa -36 + ^ r5: .cfa -32 + ^ r6: .cfa -28 + ^ r7: .cfa -24 + ^ r8: .cfa -20 + ^ r9: .cfa -16 + ^
STACK CFI 1f748 .cfa: sp 224 +
STACK CFI 1f8b4 .cfa: sp 36 +
STACK CFI INIT 1f8ec 3e8 .cfa: sp 0 + .ra: lr
STACK CFI 1f8f0 .cfa: sp 36 + .ra: .cfa -4 + ^ r10: .cfa -12 + ^ r11: .cfa -8 + ^ r4: .cfa -36 + ^ r5: .cfa -32 + ^ r6: .cfa -28 + ^ r7: .cfa -24 + ^ r8: .cfa -20 + ^ r9: .cfa -16 + ^
STACK CFI 1f8f4 .cfa: sp 368 +
STACK CFI 1fc54 .cfa: sp 36 +
STACK CFI INIT 1fcd4 1fc .cfa: sp 0 + .ra: lr
STACK CFI 1fcd8 .cfa: sp 36 + .ra: .cfa -4 + ^ r10: .cfa -12 + ^ r11: .cfa -8 + ^ r4: .cfa -36 + ^ r5: .cfa -32 + ^ r6: .cfa -28 + ^ r7: .cfa -24 + ^ r8: .cfa -20 + ^ r9: .cfa -16 + ^
STACK CFI 1fcdc .cfa: sp 232 +
STACK CFI 1fe92 .cfa: sp 36 +
STACK CFI INIT 1fed0 3ec .cfa: sp 0 + .ra: lr
STACK CFI 1fed4 .cfa: sp 36 + .ra: .cfa -4 + ^ r10: .cfa -12 + ^ r11: .cfa -8 + ^ r4: .cfa -36 + ^ r5: .cfa -32 + ^ r6: .cfa -28 + ^ r7: .cfa -24 + ^ r8: .cfa -20 + ^ r9: .cfa -16 + ^
STACK CFI 1fed8 .cfa: sp 376 +
STACK CFI 2023e .cfa: sp 36 +
STACK CFI INIT 0 94 .cfa: sp 0 + .ra: lr
STACK CFI 6 .cfa: sp 32 + .ra: .cfa -4 + ^ r4: .cfa -24 + ^ r5: .cfa -20 + ^ r6: .cfa -16 + ^ r7: .cfa -12 + ^ r8: .cfa -8 + ^
STACK CFI 90 .cfa: sp 24 +
STACK CFI INIT 18134 a4 .cfa: sp 0 + .ra: lr
STACK CFI 18138 .cfa: sp 32 + .ra: .cfa -4 + ^ r4: .cfa -24 + ^ r5: .cfa -20 + ^ r6: .cfa -16 + ^ r7: .cfa -12 + ^ r8: .cfa -8 + ^
STACK CFI 181d4 .cfa: sp 24 +
STACK CFI INIT 0 58 .cfa: sp 0 + .ra: lr
STACK CFI 2 .cfa: sp 32 + .ra: .cfa -4 + ^ r4: .cfa -20 + ^ r5: .cfa -16 + ^ r6: .cfa -12 + ^ r7: .cfa -8 + ^
STACK CFI 56 .cfa: sp 20 +
STACK CFI INIT 0 3c .cfa: sp 0 + .ra: lr
STACK CFI 2 .cfa: sp 16 + .ra: .cfa -4 + ^ r3: .cfa -16 + ^ r4: .cfa -12 + ^ r5: .cfa -8 + ^
STACK CFI INIT 19242 5e .cfa: sp 0 + .ra: lr
STACK CFI 19244 .cfa: sp 16 + .ra: .cfa -4 + ^ r4: .cfa -16 + ^ r5: .cfa -12 + ^ r6: .cfa -8 + ^
STACK CFI INIT 0 6c .cfa: sp 0 + .ra: lr
STACK CFI 2 .cfa: sp 16 + .ra: .cfa -4 + ^ r4: .cfa -16 + ^ r5: .cfa -12 + ^ r6: .cfa -8 + ^
STACK CFI INIT 19304 90 .cfa: sp 0 + .ra: lr
STACK CFI 19308 .cfa: sp 24 + .ra: .cfa -4 + ^ r4: .cfa -24 + ^ r5: .cfa -20 + ^ r6: .cfa -16 + ^ r7: .cfa -12 + ^ r8: .cfa -8 + ^
STACK CFI INIT 19394 84 .cfa: sp 0 + .ra: lr
STACK CFI 1939a .cfa: sp 24 + .ra: .cfa -4 + ^ r4: .cfa -24 + ^ r5: .cfa -20 + ^ r6: .cfa -16 + ^ r7: .cfa -12 + ^ r8: .cfa -8 + ^
STACK CFI INIT 1428c 294 .cfa: sp 0 + .ra: lr
STACK CFI 14290 .cfa: sp 40 + .ra: .cfa -4 + ^ r4: .cfa -24 + ^ r5: .cfa -20 + ^ r6: .cfa -16 + ^ r7: .cfa -12 + ^ r8: .cfa -8 + ^
STACK CFI 14494 .cfa: sp 24 +
STACK CFI INIT 15dc4 2 .cfa: sp 0 + .ra: lr
STACK CFI INIT 15dc6 2 .cfa: sp 0 + .ra: lr
STACK CFI INIT 15dc8 4 .cfa: sp 0 + .ra: lr
STACK CFI INIT 15ddc 6 .cfa: sp 0 + .ra: lr
STACK CFI INIT 15de2 2 .cfa: sp 0 + .ra: lr
STACK CFI INIT 0 4 .cfa: sp 0 + .ra: lr
STACK CFI INIT 15de2 2 .cfa: sp 0 + .ra: lr
STACK CFI INIT 15de4 ac .cfa: sp 0 + .ra: lr
STACK CFI 15de6 .cfa: sp 16 + .ra: .cfa -4 + ^ r4: .cfa -16 + ^ r5: .cfa -12 + ^ r6: .cfa -8 + ^
STACK CFI INIT 15e90 9e .cfa: sp 0 + .ra: lr
STACK CFI 15e92 .cfa: sp 20 + .ra: .cfa -4 + ^ r4: .cfa -20 + ^ r5: .cfa -16 + ^ r6: .cfa -12 + ^ r7: .cfa -8 + ^
STACK CFI 15e94 .cfa: sp 40 +
STACK CFI 15f2c .cfa: sp 20 +
STACK CFI INIT 0 4 .cfa: sp 0 + .ra: lr
STACK CFI INIT 15f2e 10 .cfa: sp 0 + .ra: lr
STACK CFI INIT 15f3e 16 .cfa: sp 0 + .ra: lr
STACK CFI INIT 15f54 3e .cfa: sp 0 + .ra: lr
STACK CFI 15f56 .cfa: sp 8 + .ra: .cfa -4 + ^ r4: .cfa -8 + ^
STACK CFI INIT 0 2 .cfa: sp 0 + .ra: lr
STACK CFI INIT 15f92 c .cfa: sp 0 + .ra: lr
STACK CFI INIT 15f9e 1a .cfa: sp 0 + .ra: lr
STACK CFI 15fa0 .cfa: sp 16 + .ra: .cfa -4 + ^
STACK CFI 15fb4 .cfa: sp 4 +
STACK CFI INIT 0 6 .cfa: sp 0 + .ra: lr
STACK CFI INIT 15fb8 18 .cfa: sp 0 + .ra: lr
STACK CFI 15fba .cfa: sp 8 + .ra: .cfa -4 + ^ r4: .cfa -8 + ^
STACK CFI INIT 0 6 .cfa: sp 0 + .ra: lr
STACK CFI INIT 15fdc 54 .cfa: sp 0 + .ra: lr
STACK CFI 15fe0 .cfa: sp 24 + .ra: .cfa -4 + ^ r4: .cfa -24 + ^ r5: .cfa -20 + ^ r6: .cfa -16 + ^ r7: .cfa -12 + ^ r8: .cfa -8 + ^
STACK CFI INIT 16030 4c .cfa: sp 0 + .ra: lr
STACK CFI 16034 .cfa: sp 24 + .ra: .cfa -4 + ^ r4: .cfa -24 + ^ r5: .cfa -20 + ^ r6: .cfa -16 + ^ r7: .cfa -12 + ^ r8: .cfa -8 + ^
STACK CFI INIT 15fd0 c .cfa: sp 0 + .ra: lr
STACK CFI 15fd2 .cfa: sp 8 + .ra: .cfa -4 + ^ r4: .cfa -8 + ^
STACK CFI INIT 1607c 1c .cfa: sp 0 + .ra: lr
STACK CFI 16080 .cfa: sp 8 + .ra: .cfa -4 + ^ r4: .cfa -8 + ^
STACK CFI INIT 16098 12 .cfa: sp 0 + .ra: lr
STACK CFI 1609a .cfa: sp 8 + .ra: .cfa -4 + ^ r4: .cfa -8 + ^
STACK CFI INIT 160ac 1c .cfa: sp 0 + .ra: lr
STACK CFI 160b0 .cfa: sp 8 + .ra: .cfa -4 + ^ r4: .cfa -8 + ^
STACK CFI INIT 160c8 12 .cfa: sp 0 + .ra: lr
STACK CFI 160ca .cfa: sp 8 + .ra: .cfa -4 + ^ r4: .cfa -8 + ^
STACK CFI INIT 202bc 18 .cfa: sp 0 + .ra: lr
STACK CFI 202be .cfa: sp 8 + .ra: .cfa -4 + ^ r4: .cfa -8 + ^
STACK CFI INIT 202d4 12 .cfa: sp 0 + .ra: lr
STACK CFI 202d6 .cfa: sp 8 + .ra: .cfa -4 + ^ r4: .cfa -8 + ^
STACK CFI INIT 202e8 20 .cfa: sp 0 + .ra: lr
STACK CFI 202ea .cfa: sp 8 + .ra: .cfa -4 + ^ r4: .cfa -8 + ^
STACK CFI INIT 16a6c 54 .cfa: sp 0 + .ra: lr
STACK CFI 16a70 .cfa: sp 24 + .ra: .cfa -4 + ^ r4: .cfa -24 + ^ r5: .cfa -20 + ^ r6: .cfa -16 + ^ r7: .cfa -12 + ^ r8: .cfa -8 + ^
STACK CFI INIT 1e00e 10 .cfa: sp 0 + .ra: lr
STACK CFI INIT 16ac0 18 .cfa: sp 0 + .ra: lr
STACK CFI 16ac6 .cfa: sp 8 + .ra: .cfa -4 + ^ r4: .cfa -8 + ^
STACK CFI INIT 16aec 1e .cfa: sp 0 + .ra: lr
STACK CFI 16aee .cfa: sp 8 + .ra: .cfa -4 + ^ r4: .cfa -8 + ^
STACK CFI INIT 16b0a 1e .cfa: sp 0 + .ra: lr
STACK CFI INIT 16b76 28 .cfa: sp 0 + .ra: lr
STACK CFI 16b78 .cfa: sp 16 + .ra: .cfa -4 + ^ r4: .cfa -16 + ^ r5: .cfa -12 + ^ r6: .cfa -8 + ^
STACK CFI INIT 16b9e e .cfa: sp 0 + .ra: lr
STACK CFI 16ba0 .cfa: sp 8 + .ra: .cfa -4 + ^ r4: .cfa -8 + ^
STACK CFI INIT 16b40 24 .cfa: sp 0 + .ra: lr
STACK CFI 16b44 .cfa: sp 8 + .ra: .cfa -4 + ^ r4: .cfa -8 + ^
STACK CFI INIT 16b64 12 .cfa: sp 0 + .ra: lr
STACK CFI 16b66 .cfa: sp 8 + .ra: .cfa -4 + ^ r4: .cfa -8 + ^
STACK CFI INIT 16bac 9c .cfa: sp 0 + .ra: lr
STACK CFI 16bb0 .cfa: sp 28 + .ra: .cfa -4 + ^ r4: .cfa -28 + ^ r5: .cfa -24 + ^ r6: .cfa -20 + ^ r7: .cfa -16 + ^ r8: .cfa -12 + ^ r9: .cfa -8 + ^
STACK CFI 16bbc .cfa: sp 48 +
STACK CFI 16c3e .cfa: sp 28 +
STACK CFI INIT 16c48 78 .cfa: sp 0 + .ra: lr
STACK CFI 16c4a .cfa: sp 16 + .ra: .cfa -4 + ^ r4: .cfa -16 + ^ r5: .cfa -12 + ^ r6: .cfa -8 + ^
STACK CFI INIT 16cc0 66 .cfa: sp 0 + .ra: lr
STACK CFI 16cc2 .cfa: sp 16 + .ra: .cfa -4 + ^ r4: .cfa -16 + ^ r5: .cfa -12 + ^ r6: .cfa -8 + ^
STACK CFI INIT 16d26 42 .cfa: sp 0 + .ra: lr
STACK CFI 16d28 .cfa: sp 24 + .ra: .cfa -4 + ^ r3: .cfa -24 + ^ r4: .cfa -20 + ^ r5: .cfa -16 + ^ r6: .cfa -12 + ^ r7: .cfa -8 + ^
STACK CFI INIT 16d68 6 .cfa: sp 0 + .ra: lr
STACK CFI INIT 16d6e 1c .cfa: sp 0 + .ra: lr
STACK CFI 16d70 .cfa: sp 8 + .ra: .cfa -4 + ^ r3: .cfa -8 + ^
STACK CFI INIT 0 30 .cfa: sp 0 + .ra: lr
STACK CFI 2 .cfa: sp 16 + .ra: .cfa -4 + ^ r4: .cfa -8 + ^
STACK CFI 28 .cfa: sp 8 +
STACK CFI INIT 16f58 30 .cfa: sp 0 + .ra: lr
STACK CFI 16f5a .cfa: sp 16 + .ra: .cfa -4 + ^ r4: .cfa -16 + ^ r5: .cfa -12 + ^ r6: .cfa -8 + ^
STACK CFI INIT 16f88 28 .cfa: sp 0 + .ra: lr
STACK CFI 16f8a .cfa: sp 16 + .ra: .cfa -4 + ^ r4: .cfa -16 + ^ r5: .cfa -12 + ^ r6: .cfa -8 + ^
STACK CFI INIT 20308 28 .cfa: sp 0 + .ra: lr
STACK CFI 2030a .cfa: sp 24 + .ra: .cfa -4 + ^ r4: .cfa -12 + ^ r5: .cfa -8 + ^
STACK CFI 2032e .cfa: sp 12 +
STACK CFI INIT 0 b4 .cfa: sp 0 + .ra: lr
STACK CFI 4 .cfa: sp 32 + .ra: .cfa -4 + ^ r3: .cfa -32 + ^ r4: .cfa -28 + ^ r5: .cfa -24 + ^ r6: .cfa -20 + ^ r7: .cfa -16 + ^ r8: .cfa -12 + ^ r9: .cfa -8 + ^
STACK CFI INIT 0 7c .cfa: sp 0 + .ra: lr
STACK CFI 2 .cfa: sp 24 + .ra: .cfa -4 + ^ r3: .cfa -24 + ^ r4: .cfa -20 + ^ r5: .cfa -16 + ^ r6: .cfa -12 + ^ r7: .cfa -8 + ^
STACK CFI INIT 1705c 54 .cfa: sp 0 + .ra: lr
STACK CFI 1705e .cfa: sp 16 + .ra: .cfa -4 + ^ r3: .cfa -16 + ^ r4: .cfa -12 + ^ r5: .cfa -8 + ^
STACK CFI INIT 170b0 8 .cfa: sp 0 + .ra: lr
STACK CFI INIT 170b8 c .cfa: sp 0 + .ra: lr
STACK CFI INIT 170c4 12 .cfa: sp 0 + .ra: lr
STACK CFI 170c6 .cfa: sp 8 + .ra: .cfa -4 + ^ r4: .cfa -8 + ^
STACK CFI INIT 170d6 c .cfa: sp 0 + .ra: lr
STACK CFI INIT 170e2 8 .cfa: sp 0 + .ra: lr
STACK CFI INIT 170ec 54 .cfa: sp 0 + .ra: lr
STACK CFI 170ee .cfa: sp 16 + .ra: .cfa -4 + ^ r3: .cfa -16 + ^ r4: .cfa -12 + ^ r5: .cfa -8 + ^
STACK CFI INIT 17140 8 .cfa: sp 0 + .ra: lr
STACK CFI INIT 17148 c .cfa: sp 0 + .ra: lr
STACK CFI INIT 17154 12 .cfa: sp 0 + .ra: lr
STACK CFI 17156 .cfa: sp 8 + .ra: .cfa -4 + ^ r4: .cfa -8 + ^
STACK CFI INIT 17166 c .cfa: sp 0 + .ra: lr
STACK CFI INIT 17172 8 .cfa: sp 0 + .ra: lr
STACK CFI INIT 1717c 8c .cfa: sp 0 + .ra: lr
STACK CFI 1717e .cfa: sp 24 + .ra: .cfa -4 + ^ r3: .cfa -24 + ^ r4: .cfa -20 + ^ r5: .cfa -16 + ^ r6: .cfa -12 + ^ r7: .cfa -8 + ^
STACK CFI INIT 17208 8 .cfa: sp 0 + .ra: lr
STACK CFI INIT 17210 80 .cfa: sp 0 + .ra: lr
STACK CFI 17212 .cfa: sp 24 + .ra: .cfa -4 + ^ r3: .cfa -24 + ^ r4: .cfa -20 + ^ r5: .cfa -16 + ^ r6: .cfa -12 + ^ r7: .cfa -8 + ^
STACK CFI INIT 17290 8 .cfa: sp 0 + .ra: lr
STACK CFI INIT 17298 8 .cfa: sp 0 + .ra: lr
STACK CFI INIT 172a0 8 .cfa: sp 0 + .ra: lr
STACK CFI INIT 172a8 c .cfa: sp 0 + .ra: lr
STACK CFI INIT 172b4 12 .cfa: sp 0 + .ra: lr
STACK CFI 172b6 .cfa: sp 8 + .ra: .cfa -4 + ^ r4: .cfa -8 + ^
STACK CFI INIT 172c6 8 .cfa: sp 0 + .ra: lr
STACK CFI INIT 172ce c .cfa: sp 0 + .ra: lr
STACK CFI INIT 1739c 8 .cfa: sp 0 + .ra: lr
STACK CFI INIT 173a4 8 .cfa: sp 0 + .ra: lr
STACK CFI INIT 173ac c .cfa: sp 0 + .ra: lr
STACK CFI INIT 173b8 12 .cfa: sp 0 + .ra: lr
STACK CFI 173ba .cfa: sp 8 + .ra: .cfa -4 + ^ r4: .cfa -8 + ^
STACK CFI INIT 173ca 8 .cfa: sp 0 + .ra: lr
STACK CFI INIT 173d2 c .cfa: sp 0 + .ra: lr
STACK CFI INIT 173de 2c .cfa: sp 0 + .ra: lr
STACK CFI 173e0 .cfa: sp 8 + .ra: .cfa -4 + ^ r4: .cfa -8 + ^
STACK CFI INIT 1740a 40 .cfa: sp 0 + .ra: lr
STACK CFI 1740c .cfa: sp 8 + .ra: .cfa -4 + ^ r4: .cfa -8 + ^
STACK CFI INIT 1744a 24 .cfa: sp 0 + .ra: lr
STACK CFI 1744c .cfa: sp 8 + .ra: .cfa -4 + ^ r4: .cfa -8 + ^
STACK CFI INIT 1746e b4 .cfa: sp 0 + .ra: lr
STACK CFI 17470 .cfa: sp 32 + .ra: .cfa -4 + ^ r4: .cfa -20 + ^ r5: .cfa -16 + ^ r6: .cfa -12 + ^ r7: .cfa -8 + ^
STACK CFI 17520 .cfa: sp 20 +
STACK CFI INIT 0 98 .cfa: sp 0 + .ra: lr
STACK CFI 2 .cfa: sp 20 + .ra: .cfa -4 + ^ r4: .cfa -20 + ^ r5: .cfa -16 + ^ r6: .cfa -12 + ^ r7: .cfa -8 + ^
STACK CFI 4 .cfa: sp 80 +
STACK CFI 96 .cfa: sp 20 +
STACK CFI INIT 175b2 98 .cfa: sp 0 + .ra: lr
STACK CFI 175b6 .cfa: sp 40 + .ra: .cfa -4 + ^ r4: .cfa -28 + ^ r5: .cfa -24 + ^ r6: .cfa -20 + ^ r7: .cfa -16 + ^ r8: .cfa -12 + ^ r9: .cfa -8 + ^
STACK CFI 17646 .cfa: sp 28 +
STACK CFI INIT 176da 16 .cfa: sp 0 + .ra: lr
STACK CFI INIT 176f0 3c .cfa: sp 0 + .ra: lr
STACK CFI 176f2 .cfa: sp 8 + .ra: .cfa -4 + ^ r3: .cfa -8 + ^
STACK CFI INIT 0 134 .cfa: sp 0 + .ra: lr
STACK CFI 4 .cfa: sp 32 + .ra: .cfa -4 + ^ r10: .cfa -8 + ^ r4: .cfa -32 + ^ r5: .cfa -28 + ^ r6: .cfa -24 + ^ r7: .cfa -20 + ^ r8: .cfa -16 + ^ r9: .cfa -12 + ^
STACK CFI 16 .cfa: sp 64 +
STACK CFI 12a .cfa: sp 32 +
STACK CFI INIT 20330 98 .cfa: sp 0 + .ra: lr
STACK CFI 20332 .cfa: sp 20 + .ra: .cfa -4 + ^ r4: .cfa -20 + ^ r5: .cfa -16 + ^ r6: .cfa -12 + ^ r7: .cfa -8 + ^
STACK CFI 20334 .cfa: sp 80 +
STACK CFI 203c6 .cfa: sp 20 +
STACK CFI INIT 203c8 28 .cfa: sp 0 + .ra: lr
STACK CFI 203ca .cfa: sp 16 + .ra: .cfa -4 + ^ r4: .cfa -16 + ^ r5: .cfa -12 + ^ r6: .cfa -8 + ^
STACK CFI INIT 17ab0 38 .cfa: sp 0 + .ra: lr
STACK CFI 17ab2 .cfa: sp 24 + .ra: .cfa -4 + ^ r4: .cfa -16 + ^ r5: .cfa -12 + ^ r6: .cfa -8 + ^
STACK CFI 17ae0 .cfa: sp 16 +
STACK CFI INIT 0 1bc .cfa: sp 0 + .ra: lr
STACK CFI 4 .cfa: sp 36 + .ra: .cfa -4 + ^ r10: .cfa -12 + ^ r11: .cfa -8 + ^ r4: .cfa -36 + ^ r5: .cfa -32 + ^ r6: .cfa -28 + ^ r7: .cfa -24 + ^ r8: .cfa -20 + ^ r9: .cfa -16 + ^
STACK CFI 8 .cfa: sp 272 +
STACK CFI 19e .cfa: sp 36 +
STACK CFI INIT 203f0 34 .cfa: sp 0 + .ra: lr
STACK CFI 203f2 .cfa: sp 16 + .ra: .cfa -4 + ^ r3: .cfa -16 + ^ r4: .cfa -12 + ^ r5: .cfa -8 + ^
STACK CFI INIT 20424 2c .cfa: sp 0 + .ra: lr
STACK CFI INIT 20450 2c .cfa: sp 0 + .ra: lr
STACK CFI INIT 2047c 9e .cfa: sp 0 + .ra: lr
STACK CFI 20480 .cfa: sp 24 + .ra: .cfa -4 + ^ r4: .cfa -24 + ^ r5: .cfa -20 + ^ r6: .cfa -16 + ^ r7: .cfa -12 + ^ r8: .cfa -8 + ^
STACK CFI INIT 2051a 6e .cfa: sp 0 + .ra: lr
STACK CFI 2051e .cfa: sp 24 + .ra: .cfa -4 + ^ r3: .cfa -24 + ^ r4: .cfa -20 + ^ r5: .cfa -16 + ^ r6: .cfa -12 + ^ r7: .cfa -8 + ^
STACK CFI INIT 20588 70c .cfa: sp 0 + .ra: lr
STACK CFI 2058c .cfa: sp 36 + .ra: .cfa -4 + ^ r10: .cfa -12 + ^ r11: .cfa -8 + ^ r4: .cfa -36 + ^ r5: .cfa -32 + ^ r6: .cfa -28 + ^ r7: .cfa -24 + ^ r8: .cfa -20 + ^ r9: .cfa -16 + ^
STACK CFI 2059a .cfa: sp 888 +
STACK CFI 20bf8 .cfa: sp 36 +
STACK CFI INIT 0 58 .cfa: sp 0 + .ra: lr
STACK CFI 2 .cfa: sp 32 + .ra: .cfa -4 + ^ r4: .cfa -20 + ^ r5: .cfa -16 + ^ r6: .cfa -12 + ^ r7: .cfa -8 + ^
STACK CFI 56 .cfa: sp 20 +
STACK CFI INIT 192a0 64 .cfa: sp 0 + .ra: lr
STACK CFI 192a2 .cfa: sp 16 + .ra: .cfa -4 + ^ r4: .cfa -16 + ^ r5: .cfa -12 + ^ r6: .cfa -8 + ^
STACK CFI INIT 19304 90 .cfa: sp 0 + .ra: lr
STACK CFI 19308 .cfa: sp 24 + .ra: .cfa -4 + ^ r4: .cfa -24 + ^ r5: .cfa -20 + ^ r6: .cfa -16 + ^ r7: .cfa -12 + ^ r8: .cfa -8 + ^
STACK CFI INIT 19212 30 .cfa: sp 0 + .ra: lr
STACK CFI 19214 .cfa: sp 16 + .ra: .cfa -4 + ^ r3: .cfa -16 + ^ r4: .cfa -12 + ^ r5: .cfa -8 + ^
STACK CFI INIT 19242 5e .cfa: sp 0 + .ra: lr
STACK CFI 19244 .cfa: sp 16 + .ra: .cfa -4 + ^ r4: .cfa -16 + ^ r5: .cfa -12 + ^ r6: .cfa -8 + ^
STACK CFI INIT 19394 84 .cfa: sp 0 + .ra: lr
STACK CFI 1939a .cfa: sp 24 + .ra: .cfa -4 + ^ r4: .cfa -24 + ^ r5: .cfa -20 + ^ r6: .cfa -16 + ^ r7: .cfa -12 + ^ r8: .cfa -8 + ^
STACK CFI INIT 0 8a .cfa: sp 0 + .ra: lr
STACK CFI 6 .cfa: sp 32 + .ra: .cfa -4 + ^ r4: .cfa -24 + ^ r5: .cfa -20 + ^ r6: .cfa -16 + ^ r7: .cfa -12 + ^ r8: .cfa -8 + ^
STACK CFI 86 .cfa: sp 24 +
STACK CFI INIT 18134 a4 .cfa: sp 0 + .ra: lr
STACK CFI 18138 .cfa: sp 32 + .ra: .cfa -4 + ^ r4: .cfa -24 + ^ r5: .cfa -20 + ^ r6: .cfa -16 + ^ r7: .cfa -12 + ^ r8: .cfa -8 + ^
STACK CFI 181d4 .cfa: sp 24 +
STACK CFI INIT 14520 5c .cfa: sp 0 + .ra: lr
STACK CFI 14522 .cfa: sp 24 + .ra: .cfa -4 + ^ r4: .cfa -8 + ^
STACK CFI 14560 .cfa: sp 8 +
STACK CFI INIT 15dc4 2 .cfa: sp 0 + .ra: lr
STACK CFI INIT 15dc6 2 .cfa: sp 0 + .ra: lr
STACK CFI INIT 15dc8 4 .cfa: sp 0 + .ra: lr
STACK CFI INIT 15ddc 6 .cfa: sp 0 + .ra: lr
STACK CFI INIT 15de2 2 .cfa: sp 0 + .ra: lr
STACK CFI INIT 0 4 .cfa: sp 0 + .ra: lr
STACK CFI INIT 15de2 2 .cfa: sp 0 + .ra: lr
STACK CFI INIT 15de2 2 .cfa: sp 0 + .ra: lr
STACK CFI INIT 15de2 2 .cfa: sp 0 + .ra: lr
STACK CFI INIT 15de2 2 .cfa: sp 0 + .ra: lr
STACK CFI INIT 15de2 2 .cfa: sp 0 + .ra: lr
STACK CFI INIT 15de2 2 .cfa: sp 0 + .ra: lr
STACK CFI INIT 15de2 2 .cfa: sp 0 + .ra: lr
STACK CFI INIT 15de4 ac .cfa: sp 0 + .ra: lr
STACK CFI 15de6 .cfa: sp 16 + .ra: .cfa -4 + ^ r4: .cfa -16 + ^ r5: .cfa -12 + ^ r6: .cfa -8 + ^
STACK CFI INIT 15e90 9e .cfa: sp 0 + .ra: lr
STACK CFI 15e92 .cfa: sp 20 + .ra: .cfa -4 + ^ r4: .cfa -20 + ^ r5: .cfa -16 + ^ r6: .cfa -12 + ^ r7: .cfa -8 + ^
STACK CFI 15e94 .cfa: sp 40 +
STACK CFI 15f2c .cfa: sp 20 +
STACK CFI INIT 0 4 .cfa: sp 0 + .ra: lr
STACK CFI INIT 15f2e 10 .cfa: sp 0 + .ra: lr
STACK CFI INIT 15f3e 16 .cfa: sp 0 + .ra: lr
STACK CFI INIT 15f54 3e .cfa: sp 0 + .ra: lr
STACK CFI 15f56 .cfa: sp 8 + .ra: .cfa -4 + ^ r4: .cfa -8 + ^
STACK CFI INIT 0 2 .cfa: sp 0 + .ra: lr
STACK CFI INIT 15f92 c .cfa: sp 0 + .ra: lr
STACK CFI INIT 15f9e 1a .cfa: sp 0 + .ra: lr
STACK CFI 15fa0 .cfa: sp 16 + .ra: .cfa -4 + ^
STACK CFI 15fb4 .cfa: sp 4 +
STACK CFI INIT 0 6 .cfa: sp 0 + .ra: lr
STACK CFI INIT 15fb8 18 .cfa: sp 0 + .ra: lr
STACK CFI 15fba .cfa: sp 8 + .ra: .cfa -4 + ^ r4: .cfa -8 + ^
STACK CFI INIT 0 6 .cfa: sp 0 + .ra: lr
STACK CFI INIT 15fd0 c .cfa: sp 0 + .ra: lr
STACK CFI 15fd2 .cfa: sp 8 + .ra: .cfa -4 + ^ r4: .cfa -8 + ^
STACK CFI INIT 15fd0 c .cfa: sp 0 + .ra: lr
STACK CFI 15fd2 .cfa: sp 8 + .ra: .cfa -4 + ^ r4: .cfa -8 + ^
STACK CFI INIT 15fd0 c .cfa: sp 0 + .ra: lr
STACK CFI 15fd2 .cfa: sp 8 + .ra: .cfa -4 + ^ r4: .cfa -8 + ^
STACK CFI INIT 15fd0 c .cfa: sp 0 + .ra: lr
STACK CFI 15fd2 .cfa: sp 8 + .ra: .cfa -4 + ^ r4: .cfa -8 + ^
STACK CFI INIT 15fd0 c .cfa: sp 0 + .ra: lr
STACK CFI 15fd2 .cfa: sp 8 + .ra: .cfa -4 + ^ r4: .cfa -8 + ^
STACK CFI INIT 15fd0 c .cfa: sp 0 + .ra: lr
STACK CFI 15fd2 .cfa: sp 8 + .ra: .cfa -4 + ^ r4: .cfa -8 + ^
STACK CFI INIT 15fd0 c .cfa: sp 0 + .ra: lr
STACK CFI 15fd2 .cfa: sp 8 + .ra: .cfa -4 + ^ r4: .cfa -8 + ^
STACK CFI INIT 16030 4c .cfa: sp 0 + .ra: lr
STACK CFI 16034 .cfa: sp 24 + .ra: .cfa -4 + ^ r4: .cfa -24 + ^ r5: .cfa -20 + ^ r6: .cfa -16 + ^ r7: .cfa -12 + ^ r8: .cfa -8 + ^
STACK CFI INIT 15fdc 54 .cfa: sp 0 + .ra: lr
STACK CFI 15fe0 .cfa: sp 24 + .ra: .cfa -4 + ^ r4: .cfa -24 + ^ r5: .cfa -20 + ^ r6: .cfa -16 + ^ r7: .cfa -12 + ^ r8: .cfa -8 + ^
STACK CFI INIT 1607c 1c .cfa: sp 0 + .ra: lr
STACK CFI 16080 .cfa: sp 8 + .ra: .cfa -4 + ^ r4: .cfa -8 + ^
STACK CFI INIT 16098 12 .cfa: sp 0 + .ra: lr
STACK CFI 1609a .cfa: sp 8 + .ra: .cfa -4 + ^ r4: .cfa -8 + ^
STACK CFI INIT 160ac 1c .cfa: sp 0 + .ra: lr
STACK CFI 160b0 .cfa: sp 8 + .ra: .cfa -4 + ^ r4: .cfa -8 + ^
STACK CFI INIT 160c8 12 .cfa: sp 0 + .ra: lr
STACK CFI 160ca .cfa: sp 8 + .ra: .cfa -4 + ^ r4: .cfa -8 + ^
STACK CFI INIT 20c94 18 .cfa: sp 0 + .ra: lr
STACK CFI 20c96 .cfa: sp 8 + .ra: .cfa -4 + ^ r4: .cfa -8 + ^
STACK CFI INIT 20cac 12 .cfa: sp 0 + .ra: lr
STACK CFI 20cae .cfa: sp 8 + .ra: .cfa -4 + ^ r4: .cfa -8 + ^
STACK CFI INIT 20cc0 18 .cfa: sp 0 + .ra: lr
STACK CFI 20cc2 .cfa: sp 8 + .ra: .cfa -4 + ^ r4: .cfa -8 + ^
STACK CFI INIT 20cd8 12 .cfa: sp 0 + .ra: lr
STACK CFI 20cda .cfa: sp 8 + .ra: .cfa -4 + ^ r4: .cfa -8 + ^
STACK CFI INIT 20cec 18 .cfa: sp 0 + .ra: lr
STACK CFI 20cee .cfa: sp 8 + .ra: .cfa -4 + ^ r4: .cfa -8 + ^
STACK CFI INIT 20d04 12 .cfa: sp 0 + .ra: lr
STACK CFI 20d06 .cfa: sp 8 + .ra: .cfa -4 + ^ r4: .cfa -8 + ^
STACK CFI INIT 20d18 18 .cfa: sp 0 + .ra: lr
STACK CFI 20d1a .cfa: sp 8 + .ra: .cfa -4 + ^ r4: .cfa -8 + ^
STACK CFI INIT 20d30 12 .cfa: sp 0 + .ra: lr
STACK CFI 20d32 .cfa: sp 8 + .ra: .cfa -4 + ^ r4: .cfa -8 + ^
STACK CFI INIT 20d44 18 .cfa: sp 0 + .ra: lr
STACK CFI 20d46 .cfa: sp 8 + .ra: .cfa -4 + ^ r4: .cfa -8 + ^
STACK CFI INIT 20d5c 12 .cfa: sp 0 + .ra: lr
STACK CFI 20d5e .cfa: sp 8 + .ra: .cfa -4 + ^ r4: .cfa -8 + ^
STACK CFI INIT 20d70 18 .cfa: sp 0 + .ra: lr
STACK CFI 20d72 .cfa: sp 8 + .ra: .cfa -4 + ^ r4: .cfa -8 + ^
STACK CFI INIT 20d88 12 .cfa: sp 0 + .ra: lr
STACK CFI 20d8a .cfa: sp 8 + .ra: .cfa -4 + ^ r4: .cfa -8 + ^
STACK CFI INIT 20d9c 18 .cfa: sp 0 + .ra: lr
STACK CFI 20d9e .cfa: sp 8 + .ra: .cfa -4 + ^ r4: .cfa -8 + ^
STACK CFI INIT 20db4 12 .cfa: sp 0 + .ra: lr
STACK CFI 20db6 .cfa: sp 8 + .ra: .cfa -4 + ^ r4: .cfa -8 + ^
STACK CFI INIT 20dc8 20 .cfa: sp 0 + .ra: lr
STACK CFI 20dca .cfa: sp 8 + .ra: .cfa -4 + ^ r4: .cfa -8 + ^
STACK CFI INIT 20de8 20 .cfa: sp 0 + .ra: lr
STACK CFI 20dea .cfa: sp 8 + .ra: .cfa -4 + ^ r4: .cfa -8 + ^
STACK CFI INIT 20e08 20 .cfa: sp 0 + .ra: lr
STACK CFI 20e0a .cfa: sp 8 + .ra: .cfa -4 + ^ r4: .cfa -8 + ^
STACK CFI INIT 20e28 20 .cfa: sp 0 + .ra: lr
STACK CFI 20e2a .cfa: sp 8 + .ra: .cfa -4 + ^ r4: .cfa -8 + ^
STACK CFI INIT 20e48 20 .cfa: sp 0 + .ra: lr
STACK CFI 20e4a .cfa: sp 8 + .ra: .cfa -4 + ^ r4: .cfa -8 + ^
STACK CFI INIT 20e68 20 .cfa: sp 0 + .ra: lr
STACK CFI 20e6a .cfa: sp 8 + .ra: .cfa -4 + ^ r4: .cfa -8 + ^
STACK CFI INIT 20e88 20 .cfa: sp 0 + .ra: lr
STACK CFI 20e8a .cfa: sp 8 + .ra: .cfa -4 + ^ r4: .cfa -8 + ^
STACK CFI INIT 16a6c 54 .cfa: sp 0 + .ra: lr
STACK CFI 16a70 .cfa: sp 24 + .ra: .cfa -4 + ^ r4: .cfa -24 + ^ r5: .cfa -20 + ^ r6: .cfa -16 + ^ r7: .cfa -12 + ^ r8: .cfa -8 + ^
STACK CFI INIT 20ea8 9e .cfa: sp 0 + .ra: lr
STACK CFI 20eaa .cfa: sp 24 + .ra: .cfa -4 + ^ r3: .cfa -24 + ^ r4: .cfa -20 + ^ r5: .cfa -16 + ^ r6: .cfa -12 + ^ r7: .cfa -8 + ^
STACK CFI INIT 20f46 12 .cfa: sp 0 + .ra: lr
STACK CFI INIT 1e00e 10 .cfa: sp 0 + .ra: lr
STACK CFI INIT 16ac0 18 .cfa: sp 0 + .ra: lr
STACK CFI 16ac6 .cfa: sp 8 + .ra: .cfa -4 + ^ r4: .cfa -8 + ^
STACK CFI INIT 16ad8 14 .cfa: sp 0 + .ra: lr
STACK CFI INIT 1eca4 12 .cfa: sp 0 + .ra: lr
STACK CFI 1eca6 .cfa: sp 8 + .ra: .cfa -4 + ^ r4: .cfa -8 + ^
STACK CFI INIT 1ecb8 6c .cfa: sp 0 + .ra: lr
STACK CFI 1ecba .cfa: sp 16 + .ra: .cfa -4 + ^ r4: .cfa -16 + ^ r5: .cfa -12 + ^ r6: .cfa -8 + ^
STACK CFI 1ecc0 .cfa: sp 4112 +
STACK CFI 1ecc6 .cfa: sp 4120 +
STACK CFI 1ed1a .cfa: sp 16 +
STACK CFI INIT 20f58 42 .cfa: sp 0 + .ra: lr
STACK CFI 20f5a .cfa: sp 24 + .ra: .cfa -4 + ^ r3: .cfa -24 + ^ r4: .cfa -20 + ^ r5: .cfa -16 + ^ r6: .cfa -12 + ^ r7: .cfa -8 + ^
STACK CFI 20f94 .cfa: sp 0 + .ra: .ra r3: r3 r4: r4 r5: r5 r6: r6 r7: r7
STACK CFI INIT 20f9c 2c .cfa: sp 0 + .ra: lr
STACK CFI 20f9e .cfa: sp 16 + .ra: .cfa -4 + ^ r3: .cfa -16 + ^ r4: .cfa -12 + ^ r5: .cfa -8 + ^
STACK CFI INIT 16aec 1e .cfa: sp 0 + .ra: lr
STACK CFI 16aee .cfa: sp 8 + .ra: .cfa -4 + ^ r4: .cfa -8 + ^
STACK CFI INIT 16b0a 1e .cfa: sp 0 + .ra: lr
STACK CFI INIT 16b40 24 .cfa: sp 0 + .ra: lr
STACK CFI 16b44 .cfa: sp 8 + .ra: .cfa -4 + ^ r4: .cfa -8 + ^
STACK CFI INIT 16b64 12 .cfa: sp 0 + .ra: lr
STACK CFI 16b66 .cfa: sp 8 + .ra: .cfa -4 + ^ r4: .cfa -8 + ^
STACK CFI INIT 0 24 .cfa: sp 0 + .ra: lr
STACK CFI 2 .cfa: sp 16 + .ra: .cfa -4 + ^ r3: .cfa -16 + ^ r4: .cfa -12 + ^ r5: .cfa -8 + ^
STACK CFI INIT 20fc8 148 .cfa: sp 0 + .ra: lr
STACK CFI 20fcc .cfa: sp 28 + .ra: .cfa -4 + ^ r4: .cfa -28 + ^ r5: .cfa -24 + ^ r6: .cfa -20 + ^ r7: .cfa -16 + ^ r8: .cfa -12 + ^ r9: .cfa -8 + ^
STACK CFI 20fd2 .cfa: sp 624 +
STACK CFI 210e4 .cfa: sp 28 +
STACK CFI INIT 21110 16c .cfa: sp 0 + .ra: lr
STACK CFI 21114 .cfa: sp 28 + .ra: .cfa -4 + ^ r4: .cfa -28 + ^ r5: .cfa -24 + ^ r6: .cfa -20 + ^ r7: .cfa -16 + ^ r8: .cfa -12 + ^ r9: .cfa -8 + ^
STACK CFI 2111a .cfa: sp 1136 +
STACK CFI 21250 .cfa: sp 28 +
STACK CFI INIT 16bac 9c .cfa: sp 0 + .ra: lr
STACK CFI 16bb0 .cfa: sp 28 + .ra: .cfa -4 + ^ r4: .cfa -28 + ^ r5: .cfa -24 + ^ r6: .cfa -20 + ^ r7: .cfa -16 + ^ r8: .cfa -12 + ^ r9: .cfa -8 + ^
STACK CFI 16bbc .cfa: sp 48 +
STACK CFI 16c3e .cfa: sp 28 +
STACK CFI INIT 16c48 78 .cfa: sp 0 + .ra: lr
STACK CFI 16c4a .cfa: sp 16 + .ra: .cfa -4 + ^ r4: .cfa -16 + ^ r5: .cfa -12 + ^ r6: .cfa -8 + ^
STACK CFI INIT 16cc0 66 .cfa: sp 0 + .ra: lr
STACK CFI 16cc2 .cfa: sp 16 + .ra: .cfa -4 + ^ r4: .cfa -16 + ^ r5: .cfa -12 + ^ r6: .cfa -8 + ^
STACK CFI INIT 0 30 .cfa: sp 0 + .ra: lr
STACK CFI 2 .cfa: sp 16 + .ra: .cfa -4 + ^ r4: .cfa -8 + ^
STACK CFI 28 .cfa: sp 8 +
STACK CFI INIT 16f88 28 .cfa: sp 0 + .ra: lr
STACK CFI 16f8a .cfa: sp 16 + .ra: .cfa -4 + ^ r4: .cfa -16 + ^ r5: .cfa -12 + ^ r6: .cfa -8 + ^
STACK CFI INIT 0 7c .cfa: sp 0 + .ra: lr
STACK CFI 2 .cfa: sp 24 + .ra: .cfa -4 + ^ r3: .cfa -24 + ^ r4: .cfa -20 + ^ r5: .cfa -16 + ^ r6: .cfa -12 + ^ r7: .cfa -8 + ^
STACK CFI INIT 0 b4 .cfa: sp 0 + .ra: lr
STACK CFI 4 .cfa: sp 32 + .ra: .cfa -4 + ^ r3: .cfa -32 + ^ r4: .cfa -28 + ^ r5: .cfa -24 + ^ r6: .cfa -20 + ^ r7: .cfa -16 + ^ r8: .cfa -12 + ^ r9: .cfa -8 + ^
STACK CFI INIT 1705c 54 .cfa: sp 0 + .ra: lr
STACK CFI 1705e .cfa: sp 16 + .ra: .cfa -4 + ^ r3: .cfa -16 + ^ r4: .cfa -12 + ^ r5: .cfa -8 + ^
STACK CFI INIT 170b0 8 .cfa: sp 0 + .ra: lr
STACK CFI INIT 170b8 c .cfa: sp 0 + .ra: lr
STACK CFI INIT 170c4 12 .cfa: sp 0 + .ra: lr
STACK CFI 170c6 .cfa: sp 8 + .ra: .cfa -4 + ^ r4: .cfa -8 + ^
STACK CFI INIT 170d6 c .cfa: sp 0 + .ra: lr
STACK CFI INIT 170e2 8 .cfa: sp 0 + .ra: lr
STACK CFI INIT 170ec 54 .cfa: sp 0 + .ra: lr
STACK CFI 170ee .cfa: sp 16 + .ra: .cfa -4 + ^ r3: .cfa -16 + ^ r4: .cfa -12 + ^ r5: .cfa -8 + ^
STACK CFI INIT 17140 8 .cfa: sp 0 + .ra: lr
STACK CFI INIT 17148 c .cfa: sp 0 + .ra: lr
STACK CFI INIT 17154 12 .cfa: sp 0 + .ra: lr
STACK CFI 17156 .cfa: sp 8 + .ra: .cfa -4 + ^ r4: .cfa -8 + ^
STACK CFI INIT 17166 c .cfa: sp 0 + .ra: lr
STACK CFI INIT 17172 8 .cfa: sp 0 + .ra: lr
STACK CFI INIT 1717c 8c .cfa: sp 0 + .ra: lr
STACK CFI 1717e .cfa: sp 24 + .ra: .cfa -4 + ^ r3: .cfa -24 + ^ r4: .cfa -20 + ^ r5: .cfa -16 + ^ r6: .cfa -12 + ^ r7: .cfa -8 + ^
STACK CFI INIT 17208 8 .cfa: sp 0 + .ra: lr
STACK CFI INIT 17210 80 .cfa: sp 0 + .ra: lr
STACK CFI 17212 .cfa: sp 24 + .ra: .cfa -4 + ^ r3: .cfa -24 + ^ r4: .cfa -20 + ^ r5: .cfa -16 + ^ r6: .cfa -12 + ^ r7: .cfa -8 + ^
STACK CFI INIT 17290 8 .cfa: sp 0 + .ra: lr
STACK CFI INIT 17298 8 .cfa: sp 0 + .ra: lr
STACK CFI INIT 172a0 8 .cfa: sp 0 + .ra: lr
STACK CFI INIT 172a8 c .cfa: sp 0 + .ra: lr
STACK CFI INIT 172b4 12 .cfa: sp 0 + .ra: lr
STACK CFI 172b6 .cfa: sp 8 + .ra: .cfa -4 + ^ r4: .cfa -8 + ^
STACK CFI INIT 172c6 8 .cfa: sp 0 + .ra: lr
STACK CFI INIT 172ce c .cfa: sp 0 + .ra: lr
STACK CFI INIT 1739c 8 .cfa: sp 0 + .ra: lr
STACK CFI INIT 173a4 8 .cfa: sp 0 + .ra: lr
STACK CFI INIT 173ac c .cfa: sp 0 + .ra: lr
STACK CFI INIT 173b8 12 .cfa: sp 0 + .ra: lr
STACK CFI 173ba .cfa: sp 8 + .ra: .cfa -4 + ^ r4: .cfa -8 + ^
STACK CFI INIT 173ca 8 .cfa: sp 0 + .ra: lr
STACK CFI INIT 173d2 c .cfa: sp 0 + .ra: lr
STACK CFI INIT 0 38 .cfa: sp 0 + .ra: lr
STACK CFI 2 .cfa: sp 8 + .ra: .cfa -4 + ^ r4: .cfa -8 + ^
STACK CFI INIT 176f0 3c .cfa: sp 0 + .ra: lr
STACK CFI 176f2 .cfa: sp 8 + .ra: .cfa -4 + ^ r3: .cfa -8 + ^
STACK CFI INIT 0 dc .cfa: sp 0 + .ra: lr
STACK CFI 2 .cfa: sp 20 + .ra: .cfa -4 + ^ r4: .cfa -20 + ^ r5: .cfa -16 + ^ r6: .cfa -12 + ^ r7: .cfa -8 + ^
STACK CFI 8 .cfa: sp 72 +
STACK CFI da .cfa: sp 20 +
STACK CFI INIT 2127c a0 .cfa: sp 0 + .ra: lr
STACK CFI 21280 .cfa: sp 36 + .ra: .cfa -4 + ^ r10: .cfa -12 + ^ r11: .cfa -8 + ^ r4: .cfa -36 + ^ r5: .cfa -32 + ^ r6: .cfa -28 + ^ r7: .cfa -24 + ^ r8: .cfa -20 + ^ r9: .cfa -16 + ^
STACK CFI 2128a .cfa: sp 264 +
STACK CFI 21314 .cfa: sp 36 +
STACK CFI INIT 0 20 .cfa: sp 0 + .ra: lr
STACK CFI 2 .cfa: sp 32 + .ra: .cfa -4 + ^ r4: .cfa -20 + ^ r5: .cfa -16 + ^ r6: .cfa -12 + ^ r7: .cfa -8 + ^
STACK CFI 1e .cfa: sp 20 +
STACK CFI INIT 2131c a0 .cfa: sp 0 + .ra: lr
STACK CFI 21320 .cfa: sp 36 + .ra: .cfa -4 + ^ r10: .cfa -12 + ^ r11: .cfa -8 + ^ r4: .cfa -36 + ^ r5: .cfa -32 + ^ r6: .cfa -28 + ^ r7: .cfa -24 + ^ r8: .cfa -20 + ^ r9: .cfa -16 + ^
STACK CFI 2132a .cfa: sp 264 +
STACK CFI 213b4 .cfa: sp 36 +
STACK CFI INIT 213bc 20 .cfa: sp 0 + .ra: lr
STACK CFI 213be .cfa: sp 32 + .ra: .cfa -4 + ^ r4: .cfa -20 + ^ r5: .cfa -16 + ^ r6: .cfa -12 + ^ r7: .cfa -8 + ^
STACK CFI 213da .cfa: sp 20 +
STACK CFI INIT 213dc 288 .cfa: sp 0 + .ra: lr
STACK CFI 213e0 .cfa: sp 36 + .ra: .cfa -4 + ^ r10: .cfa -12 + ^ r11: .cfa -8 + ^ r4: .cfa -36 + ^ r5: .cfa -32 + ^ r6: .cfa -28 + ^ r7: .cfa -24 + ^ r8: .cfa -20 + ^ r9: .cfa -16 + ^
STACK CFI 213e6 .cfa: sp 640 +
STACK CFI 21602 .cfa: sp 36 +
STACK CFI INIT 21664 288 .cfa: sp 0 + .ra: lr
STACK CFI 21668 .cfa: sp 36 + .ra: .cfa -4 + ^ r10: .cfa -12 + ^ r11: .cfa -8 + ^ r4: .cfa -36 + ^ r5: .cfa -32 + ^ r6: .cfa -28 + ^ r7: .cfa -24 + ^ r8: .cfa -20 + ^ r9: .cfa -16 + ^
STACK CFI 2166e .cfa: sp 640 +
STACK CFI 2188a .cfa: sp 36 +
STACK CFI INIT 218ec 3c4 .cfa: sp 0 + .ra: lr
STACK CFI 218f0 .cfa: sp 36 + .ra: .cfa -4 + ^ r10: .cfa -12 + ^ r11: .cfa -8 + ^ r4: .cfa -36 + ^ r5: .cfa -32 + ^ r6: .cfa -28 + ^ r7: .cfa -24 + ^ r8: .cfa -20 + ^ r9: .cfa -16 + ^
STACK CFI 218f6 .cfa: sp 656 +
STACK CFI 21c2e .cfa: sp 36 +
STACK CFI INIT 21cb0 3c4 .cfa: sp 0 + .ra: lr
STACK CFI 21cb4 .cfa: sp 36 + .ra: .cfa -4 + ^ r10: .cfa -12 + ^ r11: .cfa -8 + ^ r4: .cfa -36 + ^ r5: .cfa -32 + ^ r6: .cfa -28 + ^ r7: .cfa -24 + ^ r8: .cfa -20 + ^ r9: .cfa -16 + ^
STACK CFI 21cba .cfa: sp 656 +
STACK CFI 21ff2 .cfa: sp 36 +
STACK CFI INIT 22074 268 .cfa: sp 0 + .ra: lr
STACK CFI 22078 .cfa: sp 36 + .ra: .cfa -4 + ^ r10: .cfa -12 + ^ r11: .cfa -8 + ^ r4: .cfa -36 + ^ r5: .cfa -32 + ^ r6: .cfa -28 + ^ r7: .cfa -24 + ^ r8: .cfa -20 + ^ r9: .cfa -16 + ^
STACK CFI 2207e .cfa: sp 1152 +
STACK CFI 22286 .cfa: sp 36 +
STACK CFI INIT 0 94 .cfa: sp 0 + .ra: lr
STACK CFI 6 .cfa: sp 32 + .ra: .cfa -4 + ^ r4: .cfa -24 + ^ r5: .cfa -20 + ^ r6: .cfa -16 + ^ r7: .cfa -12 + ^ r8: .cfa -8 + ^
STACK CFI 90 .cfa: sp 24 +
STACK CFI INIT 18134 a4 .cfa: sp 0 + .ra: lr
STACK CFI 18138 .cfa: sp 32 + .ra: .cfa -4 + ^ r4: .cfa -24 + ^ r5: .cfa -20 + ^ r6: .cfa -16 + ^ r7: .cfa -12 + ^ r8: .cfa -8 + ^
STACK CFI 181d4 .cfa: sp 24 +
STACK CFI INIT 0 58 .cfa: sp 0 + .ra: lr
STACK CFI 2 .cfa: sp 32 + .ra: .cfa -4 + ^ r4: .cfa -20 + ^ r5: .cfa -16 + ^ r6: .cfa -12 + ^ r7: .cfa -8 + ^
STACK CFI 56 .cfa: sp 20 +
STACK CFI INIT 0 3c .cfa: sp 0 + .ra: lr
STACK CFI 2 .cfa: sp 16 + .ra: .cfa -4 + ^ r3: .cfa -16 + ^ r4: .cfa -12 + ^ r5: .cfa -8 + ^
STACK CFI INIT 19242 5e .cfa: sp 0 + .ra: lr
STACK CFI 19244 .cfa: sp 16 + .ra: .cfa -4 + ^ r4: .cfa -16 + ^ r5: .cfa -12 + ^ r6: .cfa -8 + ^
STACK CFI INIT 0 6c .cfa: sp 0 + .ra: lr
STACK CFI 2 .cfa: sp 16 + .ra: .cfa -4 + ^ r4: .cfa -16 + ^ r5: .cfa -12 + ^ r6: .cfa -8 + ^
STACK CFI INIT 19304 90 .cfa: sp 0 + .ra: lr
STACK CFI 19308 .cfa: sp 24 + .ra: .cfa -4 + ^ r4: .cfa -24 + ^ r5: .cfa -20 + ^ r6: .cfa -16 + ^ r7: .cfa -12 + ^ r8: .cfa -8 + ^
STACK CFI INIT 19394 84 .cfa: sp 0 + .ra: lr
STACK CFI 1939a .cfa: sp 24 + .ra: .cfa -4 + ^ r4: .cfa -24 + ^ r5: .cfa -20 + ^ r6: .cfa -16 + ^ r7: .cfa -12 + ^ r8: .cfa -8 + ^
STACK CFI INIT 1457c 1dc .cfa: sp 0 + .ra: lr
STACK CFI 14580 .cfa: sp 40 + .ra: .cfa -4 + ^ r4: .cfa -24 + ^ r5: .cfa -20 + ^ r6: .cfa -16 + ^ r7: .cfa -12 + ^ r8: .cfa -8 + ^
STACK CFI 146ee .cfa: sp 24 +
STACK CFI INIT 15dc4 2 .cfa: sp 0 + .ra: lr
STACK CFI INIT 15dc6 2 .cfa: sp 0 + .ra: lr
STACK CFI INIT 15dc8 4 .cfa: sp 0 + .ra: lr
STACK CFI INIT 15ddc 6 .cfa: sp 0 + .ra: lr
STACK CFI INIT 15de2 2 .cfa: sp 0 + .ra: lr
STACK CFI INIT 0 4 .cfa: sp 0 + .ra: lr
STACK CFI INIT 15de2 2 .cfa: sp 0 + .ra: lr
STACK CFI INIT 15de2 2 .cfa: sp 0 + .ra: lr
STACK CFI INIT 15de4 ac .cfa: sp 0 + .ra: lr
STACK CFI 15de6 .cfa: sp 16 + .ra: .cfa -4 + ^ r4: .cfa -16 + ^ r5: .cfa -12 + ^ r6: .cfa -8 + ^
STACK CFI INIT 15e90 9e .cfa: sp 0 + .ra: lr
STACK CFI 15e92 .cfa: sp 20 + .ra: .cfa -4 + ^ r4: .cfa -20 + ^ r5: .cfa -16 + ^ r6: .cfa -12 + ^ r7: .cfa -8 + ^
STACK CFI 15e94 .cfa: sp 40 +
STACK CFI 15f2c .cfa: sp 20 +
STACK CFI INIT 0 4 .cfa: sp 0 + .ra: lr
STACK CFI INIT 15f2e 10 .cfa: sp 0 + .ra: lr
STACK CFI INIT 15f3e 16 .cfa: sp 0 + .ra: lr
STACK CFI INIT 15f54 3e .cfa: sp 0 + .ra: lr
STACK CFI 15f56 .cfa: sp 8 + .ra: .cfa -4 + ^ r4: .cfa -8 + ^
STACK CFI INIT 0 2 .cfa: sp 0 + .ra: lr
STACK CFI INIT 15f92 c .cfa: sp 0 + .ra: lr
STACK CFI INIT 15f9e 1a .cfa: sp 0 + .ra: lr
STACK CFI 15fa0 .cfa: sp 16 + .ra: .cfa -4 + ^
STACK CFI 15fb4 .cfa: sp 4 +
STACK CFI INIT 0 6 .cfa: sp 0 + .ra: lr
STACK CFI INIT 15fb8 18 .cfa: sp 0 + .ra: lr
STACK CFI 15fba .cfa: sp 8 + .ra: .cfa -4 + ^ r4: .cfa -8 + ^
STACK CFI INIT 0 6 .cfa: sp 0 + .ra: lr
STACK CFI INIT 16030 4c .cfa: sp 0 + .ra: lr
STACK CFI 16034 .cfa: sp 24 + .ra: .cfa -4 + ^ r4: .cfa -24 + ^ r5: .cfa -20 + ^ r6: .cfa -16 + ^ r7: .cfa -12 + ^ r8: .cfa -8 + ^
STACK CFI INIT 15fd0 c .cfa: sp 0 + .ra: lr
STACK CFI 15fd2 .cfa: sp 8 + .ra: .cfa -4 + ^ r4: .cfa -8 + ^
STACK CFI INIT 15fd0 c .cfa: sp 0 + .ra: lr
STACK CFI 15fd2 .cfa: sp 8 + .ra: .cfa -4 + ^ r4: .cfa -8 + ^
STACK CFI INIT 15fdc 54 .cfa: sp 0 + .ra: lr
STACK CFI 15fe0 .cfa: sp 24 + .ra: .cfa -4 + ^ r4: .cfa -24 + ^ r5: .cfa -20 + ^ r6: .cfa -16 + ^ r7: .cfa -12 + ^ r8: .cfa -8 + ^
STACK CFI INIT 1607c 1c .cfa: sp 0 + .ra: lr
STACK CFI 16080 .cfa: sp 8 + .ra: .cfa -4 + ^ r4: .cfa -8 + ^
STACK CFI INIT 16098 12 .cfa: sp 0 + .ra: lr
STACK CFI 1609a .cfa: sp 8 + .ra: .cfa -4 + ^ r4: .cfa -8 + ^
STACK CFI INIT 160ac 1c .cfa: sp 0 + .ra: lr
STACK CFI 160b0 .cfa: sp 8 + .ra: .cfa -4 + ^ r4: .cfa -8 + ^
STACK CFI INIT 160c8 12 .cfa: sp 0 + .ra: lr
STACK CFI 160ca .cfa: sp 8 + .ra: .cfa -4 + ^ r4: .cfa -8 + ^
STACK CFI INIT 222dc 18 .cfa: sp 0 + .ra: lr
STACK CFI 222de .cfa: sp 8 + .ra: .cfa -4 + ^ r4: .cfa -8 + ^
STACK CFI INIT 222f4 12 .cfa: sp 0 + .ra: lr
STACK CFI 222f6 .cfa: sp 8 + .ra: .cfa -4 + ^ r4: .cfa -8 + ^
STACK CFI INIT 22308 18 .cfa: sp 0 + .ra: lr
STACK CFI 2230a .cfa: sp 8 + .ra: .cfa -4 + ^ r4: .cfa -8 + ^
STACK CFI INIT 22320 12 .cfa: sp 0 + .ra: lr
STACK CFI 22322 .cfa: sp 8 + .ra: .cfa -4 + ^ r4: .cfa -8 + ^
STACK CFI INIT 22334 20 .cfa: sp 0 + .ra: lr
STACK CFI 22336 .cfa: sp 8 + .ra: .cfa -4 + ^ r4: .cfa -8 + ^
STACK CFI INIT 22354 20 .cfa: sp 0 + .ra: lr
STACK CFI 22356 .cfa: sp 8 + .ra: .cfa -4 + ^ r4: .cfa -8 + ^
STACK CFI INIT 16a6c 54 .cfa: sp 0 + .ra: lr
STACK CFI 16a70 .cfa: sp 24 + .ra: .cfa -4 + ^ r4: .cfa -24 + ^ r5: .cfa -20 + ^ r6: .cfa -16 + ^ r7: .cfa -12 + ^ r8: .cfa -8 + ^
STACK CFI INIT 1e00e 10 .cfa: sp 0 + .ra: lr
STACK CFI INIT 16ac0 18 .cfa: sp 0 + .ra: lr
STACK CFI 16ac6 .cfa: sp 8 + .ra: .cfa -4 + ^ r4: .cfa -8 + ^
STACK CFI INIT 0 10 .cfa: sp 0 + .ra: lr
STACK CFI 2 .cfa: sp 8 + .ra: .cfa -4 + ^ r3: .cfa -8 + ^
STACK CFI INIT 16aec 1e .cfa: sp 0 + .ra: lr
STACK CFI 16aee .cfa: sp 8 + .ra: .cfa -4 + ^ r4: .cfa -8 + ^
STACK CFI INIT 16b0a 1e .cfa: sp 0 + .ra: lr
STACK CFI INIT 16b40 24 .cfa: sp 0 + .ra: lr
STACK CFI 16b44 .cfa: sp 8 + .ra: .cfa -4 + ^ r4: .cfa -8 + ^
STACK CFI INIT 16b64 12 .cfa: sp 0 + .ra: lr
STACK CFI 16b66 .cfa: sp 8 + .ra: .cfa -4 + ^ r4: .cfa -8 + ^
STACK CFI INIT 0 24 .cfa: sp 0 + .ra: lr
STACK CFI 2 .cfa: sp 16 + .ra: .cfa -4 + ^ r3: .cfa -16 + ^ r4: .cfa -12 + ^ r5: .cfa -8 + ^
STACK CFI INIT 0 94 .cfa: sp 0 + .ra: lr
STACK CFI 4 .cfa: sp 28 + .ra: .cfa -4 + ^ r4: .cfa -28 + ^ r5: .cfa -24 + ^ r6: .cfa -20 + ^ r7: .cfa -16 + ^ r8: .cfa -12 + ^ r9: .cfa -8 + ^
STACK CFI c .cfa: sp 48 +
STACK CFI 8c .cfa: sp 28 +
STACK CFI INIT 16c48 78 .cfa: sp 0 + .ra: lr
STACK CFI 16c4a .cfa: sp 16 + .ra: .cfa -4 + ^ r4: .cfa -16 + ^ r5: .cfa -12 + ^ r6: .cfa -8 + ^
STACK CFI INIT 16cc0 66 .cfa: sp 0 + .ra: lr
STACK CFI 16cc2 .cfa: sp 16 + .ra: .cfa -4 + ^ r4: .cfa -16 + ^ r5: .cfa -12 + ^ r6: .cfa -8 + ^
STACK CFI INIT 0 30 .cfa: sp 0 + .ra: lr
STACK CFI 2 .cfa: sp 16 + .ra: .cfa -4 + ^ r4: .cfa -8 + ^
STACK CFI 28 .cfa: sp 8 +
STACK CFI INIT 16f88 28 .cfa: sp 0 + .ra: lr
STACK CFI 16f8a .cfa: sp 16 + .ra: .cfa -4 + ^ r4: .cfa -16 + ^ r5: .cfa -12 + ^ r6: .cfa -8 + ^
STACK CFI INIT 0 b4 .cfa: sp 0 + .ra: lr
STACK CFI 4 .cfa: sp 32 + .ra: .cfa -4 + ^ r3: .cfa -32 + ^ r4: .cfa -28 + ^ r5: .cfa -24 + ^ r6: .cfa -20 + ^ r7: .cfa -16 + ^ r8: .cfa -12 + ^ r9: .cfa -8 + ^
STACK CFI INIT 0 7c .cfa: sp 0 + .ra: lr
STACK CFI 2 .cfa: sp 24 + .ra: .cfa -4 + ^ r3: .cfa -24 + ^ r4: .cfa -20 + ^ r5: .cfa -16 + ^ r6: .cfa -12 + ^ r7: .cfa -8 + ^
STACK CFI INIT 1705c 54 .cfa: sp 0 + .ra: lr
STACK CFI 1705e .cfa: sp 16 + .ra: .cfa -4 + ^ r3: .cfa -16 + ^ r4: .cfa -12 + ^ r5: .cfa -8 + ^
STACK CFI INIT 170b0 8 .cfa: sp 0 + .ra: lr
STACK CFI INIT 170b8 c .cfa: sp 0 + .ra: lr
STACK CFI INIT 170c4 12 .cfa: sp 0 + .ra: lr
STACK CFI 170c6 .cfa: sp 8 + .ra: .cfa -4 + ^ r4: .cfa -8 + ^
STACK CFI INIT 170d6 c .cfa: sp 0 + .ra: lr
STACK CFI INIT 170e2 8 .cfa: sp 0 + .ra: lr
STACK CFI INIT 170ec 54 .cfa: sp 0 + .ra: lr
STACK CFI 170ee .cfa: sp 16 + .ra: .cfa -4 + ^ r3: .cfa -16 + ^ r4: .cfa -12 + ^ r5: .cfa -8 + ^
STACK CFI INIT 17140 8 .cfa: sp 0 + .ra: lr
STACK CFI INIT 17148 c .cfa: sp 0 + .ra: lr
STACK CFI INIT 17154 12 .cfa: sp 0 + .ra: lr
STACK CFI 17156 .cfa: sp 8 + .ra: .cfa -4 + ^ r4: .cfa -8 + ^
STACK CFI INIT 17166 c .cfa: sp 0 + .ra: lr
STACK CFI INIT 17172 8 .cfa: sp 0 + .ra: lr
STACK CFI INIT 1717c 8c .cfa: sp 0 + .ra: lr
STACK CFI 1717e .cfa: sp 24 + .ra: .cfa -4 + ^ r3: .cfa -24 + ^ r4: .cfa -20 + ^ r5: .cfa -16 + ^ r6: .cfa -12 + ^ r7: .cfa -8 + ^
STACK CFI INIT 17208 8 .cfa: sp 0 + .ra: lr
STACK CFI INIT 17210 80 .cfa: sp 0 + .ra: lr
STACK CFI 17212 .cfa: sp 24 + .ra: .cfa -4 + ^ r3: .cfa -24 + ^ r4: .cfa -20 + ^ r5: .cfa -16 + ^ r6: .cfa -12 + ^ r7: .cfa -8 + ^
STACK CFI INIT 17290 8 .cfa: sp 0 + .ra: lr
STACK CFI INIT 17298 8 .cfa: sp 0 + .ra: lr
STACK CFI INIT 172a0 8 .cfa: sp 0 + .ra: lr
STACK CFI INIT 172a8 c .cfa: sp 0 + .ra: lr
STACK CFI INIT 172b4 12 .cfa: sp 0 + .ra: lr
STACK CFI 172b6 .cfa: sp 8 + .ra: .cfa -4 + ^ r4: .cfa -8 + ^
STACK CFI INIT 172c6 8 .cfa: sp 0 + .ra: lr
STACK CFI INIT 172ce c .cfa: sp 0 + .ra: lr
STACK CFI INIT 1739c 8 .cfa: sp 0 + .ra: lr
STACK CFI INIT 173a4 8 .cfa: sp 0 + .ra: lr
STACK CFI INIT 173ac c .cfa: sp 0 + .ra: lr
STACK CFI INIT 173b8 12 .cfa: sp 0 + .ra: lr
STACK CFI 173ba .cfa: sp 8 + .ra: .cfa -4 + ^ r4: .cfa -8 + ^
STACK CFI INIT 173ca 8 .cfa: sp 0 + .ra: lr
STACK CFI INIT 173d2 c .cfa: sp 0 + .ra: lr
STACK CFI INIT 0 32 .cfa: sp 0 + .ra: lr
STACK CFI 2 .cfa: sp 8 + .ra: .cfa -4 + ^ r4: .cfa -8 + ^
STACK CFI INIT 0 42 .cfa: sp 0 + .ra: lr
STACK CFI 2 .cfa: sp 8 + .ra: .cfa -4 + ^ r4: .cfa -8 + ^
STACK CFI INIT 1744a 24 .cfa: sp 0 + .ra: lr
STACK CFI 1744c .cfa: sp 8 + .ra: .cfa -4 + ^ r4: .cfa -8 + ^
STACK CFI INIT 0 9e .cfa: sp 0 + .ra: lr
STACK CFI 2 .cfa: sp 20 + .ra: .cfa -4 + ^ r4: .cfa -20 + ^ r5: .cfa -16 + ^ r6: .cfa -12 + ^ r7: .cfa -8 + ^
STACK CFI 4 .cfa: sp 80 +
STACK CFI 9c .cfa: sp 20 +
STACK CFI INIT 176f0 3c .cfa: sp 0 + .ra: lr
STACK CFI 176f2 .cfa: sp 8 + .ra: .cfa -4 + ^ r3: .cfa -8 + ^
STACK CFI INIT 0 9e .cfa: sp 0 + .ra: lr
STACK CFI 2 .cfa: sp 20 + .ra: .cfa -4 + ^ r4: .cfa -20 + ^ r5: .cfa -16 + ^ r6: .cfa -12 + ^ r7: .cfa -8 + ^
STACK CFI 4 .cfa: sp 80 +
STACK CFI 9c .cfa: sp 20 +
STACK CFI INIT 2127c a0 .cfa: sp 0 + .ra: lr
STACK CFI 21280 .cfa: sp 36 + .ra: .cfa -4 + ^ r10: .cfa -12 + ^ r11: .cfa -8 + ^ r4: .cfa -36 + ^ r5: .cfa -32 + ^ r6: .cfa -28 + ^ r7: .cfa -24 + ^ r8: .cfa -20 + ^ r9: .cfa -16 + ^
STACK CFI 2128a .cfa: sp 264 +
STACK CFI 21314 .cfa: sp 36 +
STACK CFI INIT 0 a0 .cfa: sp 0 + .ra: lr
STACK CFI 4 .cfa: sp 36 + .ra: .cfa -4 + ^ r10: .cfa -12 + ^ r11: .cfa -8 + ^ r4: .cfa -36 + ^ r5: .cfa -32 + ^ r6: .cfa -28 + ^ r7: .cfa -24 + ^ r8: .cfa -20 + ^ r9: .cfa -16 + ^
STACK CFI e .cfa: sp 264 +
STACK CFI 98 .cfa: sp 36 +
STACK CFI INIT 0 94 .cfa: sp 0 + .ra: lr
STACK CFI 6 .cfa: sp 32 + .ra: .cfa -4 + ^ r4: .cfa -24 + ^ r5: .cfa -20 + ^ r6: .cfa -16 + ^ r7: .cfa -12 + ^ r8: .cfa -8 + ^
STACK CFI 90 .cfa: sp 24 +
STACK CFI INIT 18134 a4 .cfa: sp 0 + .ra: lr
STACK CFI 18138 .cfa: sp 32 + .ra: .cfa -4 + ^ r4: .cfa -24 + ^ r5: .cfa -20 + ^ r6: .cfa -16 + ^ r7: .cfa -12 + ^ r8: .cfa -8 + ^
STACK CFI 181d4 .cfa: sp 24 +
STACK CFI INIT 22374 24 .cfa: sp 0 + .ra: lr
STACK CFI 22378 .cfa: sp 8 + .ra: .cfa -4 + ^ r4: .cfa -8 + ^
STACK CFI INIT 22398 3b8 .cfa: sp 0 + .ra: lr
STACK CFI 2239c .cfa: sp 36 + .ra: .cfa -4 + ^ r10: .cfa -12 + ^ r11: .cfa -8 + ^ r4: .cfa -36 + ^ r5: .cfa -32 + ^ r6: .cfa -28 + ^ r7: .cfa -24 + ^ r8: .cfa -20 + ^ r9: .cfa -16 + ^
STACK CFI 223a2 .cfa: sp 1008 +
STACK CFI 226d0 .cfa: sp 36 +
STACK CFI INIT 22750 70c .cfa: sp 0 + .ra: lr
STACK CFI 22754 .cfa: sp 36 + .ra: .cfa -4 + ^ r10: .cfa -12 + ^ r11: .cfa -8 + ^ r4: .cfa -36 + ^ r5: .cfa -32 + ^ r6: .cfa -28 + ^ r7: .cfa -24 + ^ r8: .cfa -20 + ^ r9: .cfa -16 + ^
STACK CFI 22764 .cfa: sp 656 +
STACK CFI 22d84 .cfa: sp 36 +
STACK CFI INIT 22e5c 12 .cfa: sp 0 + .ra: lr
STACK CFI 22e5e .cfa: sp 8 + .ra: .cfa -4 + ^ r4: .cfa -8 + ^
STACK CFI INIT 0 58 .cfa: sp 0 + .ra: lr
STACK CFI 2 .cfa: sp 32 + .ra: .cfa -4 + ^ r4: .cfa -20 + ^ r5: .cfa -16 + ^ r6: .cfa -12 + ^ r7: .cfa -8 + ^
STACK CFI 56 .cfa: sp 20 +
STACK CFI INIT 0 3c .cfa: sp 0 + .ra: lr
STACK CFI 2 .cfa: sp 16 + .ra: .cfa -4 + ^ r3: .cfa -16 + ^ r4: .cfa -12 + ^ r5: .cfa -8 + ^
STACK CFI INIT 19242 5e .cfa: sp 0 + .ra: lr
STACK CFI 19244 .cfa: sp 16 + .ra: .cfa -4 + ^ r4: .cfa -16 + ^ r5: .cfa -12 + ^ r6: .cfa -8 + ^
STACK CFI INIT 0 6c .cfa: sp 0 + .ra: lr
STACK CFI 2 .cfa: sp 16 + .ra: .cfa -4 + ^ r4: .cfa -16 + ^ r5: .cfa -12 + ^ r6: .cfa -8 + ^
STACK CFI INIT 19304 90 .cfa: sp 0 + .ra: lr
STACK CFI 19308 .cfa: sp 24 + .ra: .cfa -4 + ^ r4: .cfa -24 + ^ r5: .cfa -20 + ^ r6: .cfa -16 + ^ r7: .cfa -12 + ^ r8: .cfa -8 + ^
STACK CFI INIT 19394 84 .cfa: sp 0 + .ra: lr
STACK CFI 1939a .cfa: sp 24 + .ra: .cfa -4 + ^ r4: .cfa -24 + ^ r5: .cfa -20 + ^ r6: .cfa -16 + ^ r7: .cfa -12 + ^ r8: .cfa -8 + ^
STACK CFI INIT 14758 9c .cfa: sp 0 + .ra: lr
STACK CFI 1475a .cfa: sp 20 + .ra: .cfa -4 + ^ r4: .cfa -20 + ^ r5: .cfa -16 + ^ r6: .cfa -12 + ^ r7: .cfa -8 + ^
STACK CFI 1475c .cfa: sp 40 +
STACK CFI 147ce .cfa: sp 20 +
STACK CFI INIT 15dc4 2 .cfa: sp 0 + .ra: lr
STACK CFI INIT 15dc6 2 .cfa: sp 0 + .ra: lr
STACK CFI INIT 15dc8 4 .cfa: sp 0 + .ra: lr
STACK CFI INIT 15ddc 6 .cfa: sp 0 + .ra: lr
STACK CFI INIT 15de2 2 .cfa: sp 0 + .ra: lr
STACK CFI INIT 0 4 .cfa: sp 0 + .ra: lr
STACK CFI INIT 15de2 2 .cfa: sp 0 + .ra: lr
STACK CFI INIT 15de2 2 .cfa: sp 0 + .ra: lr
STACK CFI INIT 15de2 2 .cfa: sp 0 + .ra: lr
STACK CFI INIT 15de2 2 .cfa: sp 0 + .ra: lr
STACK CFI INIT 15de2 2 .cfa: sp 0 + .ra: lr
STACK CFI INIT 15de2 2 .cfa: sp 0 + .ra: lr
STACK CFI INIT 15de2 2 .cfa: sp 0 + .ra: lr
STACK CFI INIT 15de4 ac .cfa: sp 0 + .ra: lr
STACK CFI 15de6 .cfa: sp 16 + .ra: .cfa -4 + ^ r4: .cfa -16 + ^ r5: .cfa -12 + ^ r6: .cfa -8 + ^
STACK CFI INIT 15e90 9e .cfa: sp 0 + .ra: lr
STACK CFI 15e92 .cfa: sp 20 + .ra: .cfa -4 + ^ r4: .cfa -20 + ^ r5: .cfa -16 + ^ r6: .cfa -12 + ^ r7: .cfa -8 + ^
STACK CFI 15e94 .cfa: sp 40 +
STACK CFI 15f2c .cfa: sp 20 +
STACK CFI INIT 0 4 .cfa: sp 0 + .ra: lr
STACK CFI INIT 15f2e 10 .cfa: sp 0 + .ra: lr
STACK CFI INIT 15f3e 16 .cfa: sp 0 + .ra: lr
STACK CFI INIT 15f54 3e .cfa: sp 0 + .ra: lr
STACK CFI 15f56 .cfa: sp 8 + .ra: .cfa -4 + ^ r4: .cfa -8 + ^
STACK CFI INIT 0 2 .cfa: sp 0 + .ra: lr
STACK CFI INIT 15f92 c .cfa: sp 0 + .ra: lr
STACK CFI INIT 15f9e 1a .cfa: sp 0 + .ra: lr
STACK CFI 15fa0 .cfa: sp 16 + .ra: .cfa -4 + ^
STACK CFI 15fb4 .cfa: sp 4 +
STACK CFI INIT 0 6 .cfa: sp 0 + .ra: lr
STACK CFI INIT 15fb8 18 .cfa: sp 0 + .ra: lr
STACK CFI 15fba .cfa: sp 8 + .ra: .cfa -4 + ^ r4: .cfa -8 + ^
STACK CFI INIT 0 6 .cfa: sp 0 + .ra: lr
STACK CFI INIT 15fd0 c .cfa: sp 0 + .ra: lr
STACK CFI 15fd2 .cfa: sp 8 + .ra: .cfa -4 + ^ r4: .cfa -8 + ^
STACK CFI INIT 15fd0 c .cfa: sp 0 + .ra: lr
STACK CFI 15fd2 .cfa: sp 8 + .ra: .cfa -4 + ^ r4: .cfa -8 + ^
STACK CFI INIT 15fd0 c .cfa: sp 0 + .ra: lr
STACK CFI 15fd2 .cfa: sp 8 + .ra: .cfa -4 + ^ r4: .cfa -8 + ^
STACK CFI INIT 15fd0 c .cfa: sp 0 + .ra: lr
STACK CFI 15fd2 .cfa: sp 8 + .ra: .cfa -4 + ^ r4: .cfa -8 + ^
STACK CFI INIT 15fd0 c .cfa: sp 0 + .ra: lr
STACK CFI 15fd2 .cfa: sp 8 + .ra: .cfa -4 + ^ r4: .cfa -8 + ^
STACK CFI INIT 15fd0 c .cfa: sp 0 + .ra: lr
STACK CFI 15fd2 .cfa: sp 8 + .ra: .cfa -4 + ^ r4: .cfa -8 + ^
STACK CFI INIT 15fd0 c .cfa: sp 0 + .ra: lr
STACK CFI 15fd2 .cfa: sp 8 + .ra: .cfa -4 + ^ r4: .cfa -8 + ^
STACK CFI INIT 16030 4c .cfa: sp 0 + .ra: lr
STACK CFI 16034 .cfa: sp 24 + .ra: .cfa -4 + ^ r4: .cfa -24 + ^ r5: .cfa -20 + ^ r6: .cfa -16 + ^ r7: .cfa -12 + ^ r8: .cfa -8 + ^
STACK CFI INIT 15fdc 54 .cfa: sp 0 + .ra: lr
STACK CFI 15fe0 .cfa: sp 24 + .ra: .cfa -4 + ^ r4: .cfa -24 + ^ r5: .cfa -20 + ^ r6: .cfa -16 + ^ r7: .cfa -12 + ^ r8: .cfa -8 + ^
STACK CFI INIT 1607c 1c .cfa: sp 0 + .ra: lr
STACK CFI 16080 .cfa: sp 8 + .ra: .cfa -4 + ^ r4: .cfa -8 + ^
STACK CFI INIT 16098 12 .cfa: sp 0 + .ra: lr
STACK CFI 1609a .cfa: sp 8 + .ra: .cfa -4 + ^ r4: .cfa -8 + ^
STACK CFI INIT 160ac 1c .cfa: sp 0 + .ra: lr
STACK CFI 160b0 .cfa: sp 8 + .ra: .cfa -4 + ^ r4: .cfa -8 + ^
STACK CFI INIT 160c8 12 .cfa: sp 0 + .ra: lr
STACK CFI 160ca .cfa: sp 8 + .ra: .cfa -4 + ^ r4: .cfa -8 + ^
STACK CFI INIT 22e6e c .cfa: sp 0 + .ra: lr
STACK CFI 22e70 .cfa: sp 8 + .ra: .cfa -4 + ^ r4: .cfa -8 + ^
STACK CFI INIT 22e7c 18 .cfa: sp 0 + .ra: lr
STACK CFI 22e7e .cfa: sp 8 + .ra: .cfa -4 + ^ r4: .cfa -8 + ^
STACK CFI INIT 22e94 12 .cfa: sp 0 + .ra: lr
STACK CFI 22e96 .cfa: sp 8 + .ra: .cfa -4 + ^ r4: .cfa -8 + ^
STACK CFI INIT 22ea8 18 .cfa: sp 0 + .ra: lr
STACK CFI 22eaa .cfa: sp 8 + .ra: .cfa -4 + ^ r4: .cfa -8 + ^
STACK CFI INIT 22ec0 12 .cfa: sp 0 + .ra: lr
STACK CFI 22ec2 .cfa: sp 8 + .ra: .cfa -4 + ^ r4: .cfa -8 + ^
STACK CFI INIT 22ea8 18 .cfa: sp 0 + .ra: lr
STACK CFI 22eaa .cfa: sp 8 + .ra: .cfa -4 + ^ r4: .cfa -8 + ^
STACK CFI INIT 22ec0 12 .cfa: sp 0 + .ra: lr
STACK CFI 22ec2 .cfa: sp 8 + .ra: .cfa -4 + ^ r4: .cfa -8 + ^
STACK CFI INIT 22ea8 18 .cfa: sp 0 + .ra: lr
STACK CFI 22eaa .cfa: sp 8 + .ra: .cfa -4 + ^ r4: .cfa -8 + ^
STACK CFI INIT 22ec0 12 .cfa: sp 0 + .ra: lr
STACK CFI 22ec2 .cfa: sp 8 + .ra: .cfa -4 + ^ r4: .cfa -8 + ^
STACK CFI INIT 22ea8 18 .cfa: sp 0 + .ra: lr
STACK CFI 22eaa .cfa: sp 8 + .ra: .cfa -4 + ^ r4: .cfa -8 + ^
STACK CFI INIT 22ec0 12 .cfa: sp 0 + .ra: lr
STACK CFI 22ec2 .cfa: sp 8 + .ra: .cfa -4 + ^ r4: .cfa -8 + ^
STACK CFI INIT 22ea8 18 .cfa: sp 0 + .ra: lr
STACK CFI 22eaa .cfa: sp 8 + .ra: .cfa -4 + ^ r4: .cfa -8 + ^
STACK CFI INIT 22ec0 12 .cfa: sp 0 + .ra: lr
STACK CFI 22ec2 .cfa: sp 8 + .ra: .cfa -4 + ^ r4: .cfa -8 + ^
STACK CFI INIT 22ed4 20 .cfa: sp 0 + .ra: lr
STACK CFI 22ed6 .cfa: sp 8 + .ra: .cfa -4 + ^ r4: .cfa -8 + ^
STACK CFI INIT 22ef4 20 .cfa: sp 0 + .ra: lr
STACK CFI 22ef6 .cfa: sp 8 + .ra: .cfa -4 + ^ r4: .cfa -8 + ^
STACK CFI INIT 22f14 20 .cfa: sp 0 + .ra: lr
STACK CFI 22f16 .cfa: sp 8 + .ra: .cfa -4 + ^ r4: .cfa -8 + ^
STACK CFI INIT 22f34 20 .cfa: sp 0 + .ra: lr
STACK CFI 22f36 .cfa: sp 8 + .ra: .cfa -4 + ^ r4: .cfa -8 + ^
STACK CFI INIT 22f54 20 .cfa: sp 0 + .ra: lr
STACK CFI 22f56 .cfa: sp 8 + .ra: .cfa -4 + ^ r4: .cfa -8 + ^
STACK CFI INIT 22f74 20 .cfa: sp 0 + .ra: lr
STACK CFI 22f76 .cfa: sp 8 + .ra: .cfa -4 + ^ r4: .cfa -8 + ^
STACK CFI INIT 16a6c 54 .cfa: sp 0 + .ra: lr
STACK CFI 16a70 .cfa: sp 24 + .ra: .cfa -4 + ^ r4: .cfa -24 + ^ r5: .cfa -20 + ^ r6: .cfa -16 + ^ r7: .cfa -12 + ^ r8: .cfa -8 + ^
STACK CFI INIT 16ac0 18 .cfa: sp 0 + .ra: lr
STACK CFI 16ac6 .cfa: sp 8 + .ra: .cfa -4 + ^ r4: .cfa -8 + ^
STACK CFI INIT 16ad8 14 .cfa: sp 0 + .ra: lr
STACK CFI INIT 16aec 1e .cfa: sp 0 + .ra: lr
STACK CFI 16aee .cfa: sp 8 + .ra: .cfa -4 + ^ r4: .cfa -8 + ^
STACK CFI INIT 16b0a 1e .cfa: sp 0 + .ra: lr
STACK CFI INIT 16b40 24 .cfa: sp 0 + .ra: lr
STACK CFI 16b44 .cfa: sp 8 + .ra: .cfa -4 + ^ r4: .cfa -8 + ^
STACK CFI INIT 16b64 12 .cfa: sp 0 + .ra: lr
STACK CFI 16b66 .cfa: sp 8 + .ra: .cfa -4 + ^ r4: .cfa -8 + ^
STACK CFI INIT 16b76 28 .cfa: sp 0 + .ra: lr
STACK CFI 16b78 .cfa: sp 16 + .ra: .cfa -4 + ^ r4: .cfa -16 + ^ r5: .cfa -12 + ^ r6: .cfa -8 + ^
STACK CFI INIT 16b9e e .cfa: sp 0 + .ra: lr
STACK CFI 16ba0 .cfa: sp 8 + .ra: .cfa -4 + ^ r4: .cfa -8 + ^
STACK CFI INIT 22f94 144 .cfa: sp 0 + .ra: lr
STACK CFI 22f9a .cfa: sp 28 + .ra: .cfa -4 + ^ r4: .cfa -28 + ^ r5: .cfa -24 + ^ r6: .cfa -20 + ^ r7: .cfa -16 + ^ r8: .cfa -12 + ^ r9: .cfa -8 + ^
STACK CFI 22fa2 .cfa: sp 88 +
STACK CFI 230ae .cfa: sp 28 +
STACK CFI INIT 230d8 44 .cfa: sp 0 + .ra: lr
STACK CFI 230da .cfa: sp 8 + .ra: .cfa -4 + ^ r4: .cfa -8 + ^
STACK CFI INIT 2311c 12 .cfa: sp 0 + .ra: lr
STACK CFI 2311e .cfa: sp 8 + .ra: .cfa -4 + ^ r4: .cfa -8 + ^
STACK CFI INIT 16bac 9c .cfa: sp 0 + .ra: lr
STACK CFI 16bb0 .cfa: sp 28 + .ra: .cfa -4 + ^ r4: .cfa -28 + ^ r5: .cfa -24 + ^ r6: .cfa -20 + ^ r7: .cfa -16 + ^ r8: .cfa -12 + ^ r9: .cfa -8 + ^
STACK CFI 16bbc .cfa: sp 48 +
STACK CFI 16c3e .cfa: sp 28 +
STACK CFI INIT 16c48 78 .cfa: sp 0 + .ra: lr
STACK CFI 16c4a .cfa: sp 16 + .ra: .cfa -4 + ^ r4: .cfa -16 + ^ r5: .cfa -12 + ^ r6: .cfa -8 + ^
STACK CFI INIT 16cc0 66 .cfa: sp 0 + .ra: lr
STACK CFI 16cc2 .cfa: sp 16 + .ra: .cfa -4 + ^ r4: .cfa -16 + ^ r5: .cfa -12 + ^ r6: .cfa -8 + ^
STACK CFI INIT 16d26 42 .cfa: sp 0 + .ra: lr
STACK CFI 16d28 .cfa: sp 24 + .ra: .cfa -4 + ^ r3: .cfa -24 + ^ r4: .cfa -20 + ^ r5: .cfa -16 + ^ r6: .cfa -12 + ^ r7: .cfa -8 + ^
STACK CFI INIT 16d68 6 .cfa: sp 0 + .ra: lr
STACK CFI INIT 16d6e 1c .cfa: sp 0 + .ra: lr
STACK CFI 16d70 .cfa: sp 8 + .ra: .cfa -4 + ^ r3: .cfa -8 + ^
STACK CFI INIT 16db4 38 .cfa: sp 0 + .ra: lr
STACK CFI 16db6 .cfa: sp 16 + .ra: .cfa -4 + ^ r4: .cfa -8 + ^
STACK CFI 16de6 .cfa: sp 8 +
STACK CFI INIT 16f88 28 .cfa: sp 0 + .ra: lr
STACK CFI 16f8a .cfa: sp 16 + .ra: .cfa -4 + ^ r4: .cfa -16 + ^ r5: .cfa -12 + ^ r6: .cfa -8 + ^
STACK CFI INIT 23130 48 .cfa: sp 0 + .ra: lr
STACK CFI 23132 .cfa: sp 8 + .ra: .cfa -4 + ^ r4: .cfa -8 + ^
STACK CFI INIT 0 7c .cfa: sp 0 + .ra: lr
STACK CFI 2 .cfa: sp 24 + .ra: .cfa -4 + ^ r3: .cfa -24 + ^ r4: .cfa -20 + ^ r5: .cfa -16 + ^ r6: .cfa -12 + ^ r7: .cfa -8 + ^
STACK CFI INIT 0 b4 .cfa: sp 0 + .ra: lr
STACK CFI 4 .cfa: sp 32 + .ra: .cfa -4 + ^ r3: .cfa -32 + ^ r4: .cfa -28 + ^ r5: .cfa -24 + ^ r6: .cfa -20 + ^ r7: .cfa -16 + ^ r8: .cfa -12 + ^ r9: .cfa -8 + ^
STACK CFI INIT 1705c 54 .cfa: sp 0 + .ra: lr
STACK CFI 1705e .cfa: sp 16 + .ra: .cfa -4 + ^ r3: .cfa -16 + ^ r4: .cfa -12 + ^ r5: .cfa -8 + ^
STACK CFI INIT 170b0 8 .cfa: sp 0 + .ra: lr
STACK CFI INIT 170b8 c .cfa: sp 0 + .ra: lr
STACK CFI INIT 170c4 12 .cfa: sp 0 + .ra: lr
STACK CFI 170c6 .cfa: sp 8 + .ra: .cfa -4 + ^ r4: .cfa -8 + ^
STACK CFI INIT 170d6 c .cfa: sp 0 + .ra: lr
STACK CFI INIT 170e2 8 .cfa: sp 0 + .ra: lr
STACK CFI INIT 170ec 54 .cfa: sp 0 + .ra: lr
STACK CFI 170ee .cfa: sp 16 + .ra: .cfa -4 + ^ r3: .cfa -16 + ^ r4: .cfa -12 + ^ r5: .cfa -8 + ^
STACK CFI INIT 17140 8 .cfa: sp 0 + .ra: lr
STACK CFI INIT 17148 c .cfa: sp 0 + .ra: lr
STACK CFI INIT 17154 12 .cfa: sp 0 + .ra: lr
STACK CFI 17156 .cfa: sp 8 + .ra: .cfa -4 + ^ r4: .cfa -8 + ^
STACK CFI INIT 17166 c .cfa: sp 0 + .ra: lr
STACK CFI INIT 17172 8 .cfa: sp 0 + .ra: lr
STACK CFI INIT 1717c 8c .cfa: sp 0 + .ra: lr
STACK CFI 1717e .cfa: sp 24 + .ra: .cfa -4 + ^ r3: .cfa -24 + ^ r4: .cfa -20 + ^ r5: .cfa -16 + ^ r6: .cfa -12 + ^ r7: .cfa -8 + ^
STACK CFI INIT 17208 8 .cfa: sp 0 + .ra: lr
STACK CFI INIT 17210 80 .cfa: sp 0 + .ra: lr
STACK CFI 17212 .cfa: sp 24 + .ra: .cfa -4 + ^ r3: .cfa -24 + ^ r4: .cfa -20 + ^ r5: .cfa -16 + ^ r6: .cfa -12 + ^ r7: .cfa -8 + ^
STACK CFI INIT 17290 8 .cfa: sp 0 + .ra: lr
STACK CFI INIT 17298 8 .cfa: sp 0 + .ra: lr
STACK CFI INIT 172a0 8 .cfa: sp 0 + .ra: lr
STACK CFI INIT 172a8 c .cfa: sp 0 + .ra: lr
STACK CFI INIT 172b4 12 .cfa: sp 0 + .ra: lr
STACK CFI 172b6 .cfa: sp 8 + .ra: .cfa -4 + ^ r4: .cfa -8 + ^
STACK CFI INIT 172c6 8 .cfa: sp 0 + .ra: lr
STACK CFI INIT 172ce c .cfa: sp 0 + .ra: lr
STACK CFI INIT 1739c 8 .cfa: sp 0 + .ra: lr
STACK CFI INIT 173a4 8 .cfa: sp 0 + .ra: lr
STACK CFI INIT 173ac c .cfa: sp 0 + .ra: lr
STACK CFI INIT 173b8 12 .cfa: sp 0 + .ra: lr
STACK CFI 173ba .cfa: sp 8 + .ra: .cfa -4 + ^ r4: .cfa -8 + ^
STACK CFI INIT 173ca 8 .cfa: sp 0 + .ra: lr
STACK CFI INIT 173d2 c .cfa: sp 0 + .ra: lr
STACK CFI INIT 173de 2c .cfa: sp 0 + .ra: lr
STACK CFI 173e0 .cfa: sp 8 + .ra: .cfa -4 + ^ r4: .cfa -8 + ^
STACK CFI INIT 1740a 40 .cfa: sp 0 + .ra: lr
STACK CFI 1740c .cfa: sp 8 + .ra: .cfa -4 + ^ r4: .cfa -8 + ^
STACK CFI INIT 1744a 24 .cfa: sp 0 + .ra: lr
STACK CFI 1744c .cfa: sp 8 + .ra: .cfa -4 + ^ r4: .cfa -8 + ^
STACK CFI INIT 1746e b4 .cfa: sp 0 + .ra: lr
STACK CFI 17470 .cfa: sp 32 + .ra: .cfa -4 + ^ r4: .cfa -20 + ^ r5: .cfa -16 + ^ r6: .cfa -12 + ^ r7: .cfa -8 + ^
STACK CFI 17520 .cfa: sp 20 +
STACK CFI INIT 175b2 98 .cfa: sp 0 + .ra: lr
STACK CFI 175b6 .cfa: sp 40 + .ra: .cfa -4 + ^ r4: .cfa -28 + ^ r5: .cfa -24 + ^ r6: .cfa -20 + ^ r7: .cfa -16 + ^ r8: .cfa -12 + ^ r9: .cfa -8 + ^
STACK CFI 17646 .cfa: sp 28 +
STACK CFI INIT 176da 16 .cfa: sp 0 + .ra: lr
STACK CFI INIT 176f0 3c .cfa: sp 0 + .ra: lr
STACK CFI 176f2 .cfa: sp 8 + .ra: .cfa -4 + ^ r3: .cfa -8 + ^
STACK CFI INIT 1772c d8 .cfa: sp 0 + .ra: lr
STACK CFI 17732 .cfa: sp 32 + .ra: .cfa -4 + ^ r4: .cfa -24 + ^ r5: .cfa -20 + ^ r6: .cfa -16 + ^ r7: .cfa -12 + ^ r8: .cfa -8 + ^
STACK CFI 17800 .cfa: sp 24 +
STACK CFI INIT 0 74 .cfa: sp 0 + .ra: lr
STACK CFI 6 .cfa: sp 24 + .ra: .cfa -4 + ^ r4: .cfa -24 + ^ r5: .cfa -20 + ^ r6: .cfa -16 + ^ r7: .cfa -12 + ^ r8: .cfa -8 + ^
STACK CFI 10 .cfa: sp 56 +
STACK CFI 6a .cfa: sp 24 +
STACK CFI INIT 17a84 2c .cfa: sp 0 + .ra: lr
STACK CFI 17a86 .cfa: sp 24 + .ra: .cfa -4 + ^ r4: .cfa -16 + ^ r5: .cfa -12 + ^ r6: .cfa -8 + ^
STACK CFI 17aae .cfa: sp 16 +
STACK CFI INIT 17ab0 38 .cfa: sp 0 + .ra: lr
STACK CFI 17ab2 .cfa: sp 24 + .ra: .cfa -4 + ^ r4: .cfa -16 + ^ r5: .cfa -12 + ^ r6: .cfa -8 + ^
STACK CFI 17ae0 .cfa: sp 16 +
STACK CFI INIT 0 2c .cfa: sp 0 + .ra: lr
STACK CFI 2 .cfa: sp 24 + .ra: .cfa -4 + ^ r4: .cfa -16 + ^ r5: .cfa -12 + ^ r6: .cfa -8 + ^
STACK CFI 2a .cfa: sp 16 +
STACK CFI INIT 17ae8 2c .cfa: sp 0 + .ra: lr
STACK CFI 17aea .cfa: sp 24 + .ra: .cfa -4 + ^ r4: .cfa -16 + ^ r5: .cfa -12 + ^ r6: .cfa -8 + ^
STACK CFI 17b12 .cfa: sp 16 +
STACK CFI INIT 0 e0 .cfa: sp 0 + .ra: lr
STACK CFI 4 .cfa: sp 28 + .ra: .cfa -4 + ^ r4: .cfa -28 + ^ r5: .cfa -24 + ^ r6: .cfa -20 + ^ r7: .cfa -16 + ^ r8: .cfa -12 + ^ r9: .cfa -8 + ^
STACK CFI e .cfa: sp 240 +
STACK CFI d8 .cfa: sp 28 +
STACK CFI INIT 18de4 74 .cfa: sp 0 + .ra: lr
STACK CFI 18de8 .cfa: sp 32 + .ra: .cfa -4 + ^ r10: .cfa -8 + ^ r4: .cfa -32 + ^ r5: .cfa -28 + ^ r6: .cfa -24 + ^ r7: .cfa -20 + ^ r8: .cfa -16 + ^ r9: .cfa -12 + ^
STACK CFI 18dec .cfa: sp 96 +
STACK CFI 18e50 .cfa: sp 32 +
STACK CFI INIT 0 e0 .cfa: sp 0 + .ra: lr
STACK CFI 4 .cfa: sp 28 + .ra: .cfa -4 + ^ r4: .cfa -28 + ^ r5: .cfa -24 + ^ r6: .cfa -20 + ^ r7: .cfa -16 + ^ r8: .cfa -12 + ^ r9: .cfa -8 + ^
STACK CFI e .cfa: sp 240 +
STACK CFI d8 .cfa: sp 28 +
STACK CFI INIT 0 104 .cfa: sp 0 + .ra: lr
STACK CFI 4 .cfa: sp 28 + .ra: .cfa -4 + ^ r4: .cfa -28 + ^ r5: .cfa -24 + ^ r6: .cfa -20 + ^ r7: .cfa -16 + ^ r8: .cfa -12 + ^ r9: .cfa -8 + ^
STACK CFI e .cfa: sp 112 +
STACK CFI e2 .cfa: sp 28 +
STACK CFI INIT 23178 2b8 .cfa: sp 0 + .ra: lr
STACK CFI 2317c .cfa: sp 36 + .ra: .cfa -4 + ^ r10: .cfa -12 + ^ r11: .cfa -8 + ^ r4: .cfa -36 + ^ r5: .cfa -32 + ^ r6: .cfa -28 + ^ r7: .cfa -24 + ^ r8: .cfa -20 + ^ r9: .cfa -16 + ^
STACK CFI 23180 .cfa: sp 104 +
STACK CFI 233e2 .cfa: sp 36 +
STACK CFI INIT 18320 74 .cfa: sp 0 + .ra: lr
STACK CFI 18324 .cfa: sp 32 + .ra: .cfa -4 + ^ r10: .cfa -8 + ^ r4: .cfa -32 + ^ r5: .cfa -28 + ^ r6: .cfa -24 + ^ r7: .cfa -20 + ^ r8: .cfa -16 + ^ r9: .cfa -12 + ^
STACK CFI 18328 .cfa: sp 96 +
STACK CFI 1838c .cfa: sp 32 +
STACK CFI INIT 23430 1c .cfa: sp 0 + .ra: lr
STACK CFI 23434 .cfa: sp 8 + .ra: .cfa -4 + ^ r4: .cfa -8 + ^
STACK CFI INIT 2344c 1a .cfa: sp 0 + .ra: lr
STACK CFI 2344e .cfa: sp 8 + .ra: .cfa -4 + ^ r4: .cfa -8 + ^
STACK CFI 23450 .cfa: sp 96 +
STACK CFI 23464 .cfa: sp 8 +
STACK CFI INIT 23468 1d0 .cfa: sp 0 + .ra: lr
STACK CFI 2346c .cfa: sp 28 + .ra: .cfa -4 + ^ r4: .cfa -28 + ^ r5: .cfa -24 + ^ r6: .cfa -20 + ^ r7: .cfa -16 + ^ r8: .cfa -12 + ^ r9: .cfa -8 + ^
STACK CFI 23470 .cfa: sp 176 +
STACK CFI 235e8 .cfa: sp 28 +
STACK CFI INIT 23638 400 .cfa: sp 0 + .ra: lr
STACK CFI 2363c .cfa: sp 36 + .ra: .cfa -4 + ^ r10: .cfa -12 + ^ r11: .cfa -8 + ^ r4: .cfa -36 + ^ r5: .cfa -32 + ^ r6: .cfa -28 + ^ r7: .cfa -24 + ^ r8: .cfa -20 + ^ r9: .cfa -16 + ^
STACK CFI 23642 .cfa: sp 960 +
STACK CFI 239b0 .cfa: sp 36 +
STACK CFI INIT 23a38 46c .cfa: sp 0 + .ra: lr
STACK CFI 23a3c .cfa: sp 36 + .ra: .cfa -4 + ^ r10: .cfa -12 + ^ r11: .cfa -8 + ^ r4: .cfa -36 + ^ r5: .cfa -32 + ^ r6: .cfa -28 + ^ r7: .cfa -24 + ^ r8: .cfa -20 + ^ r9: .cfa -16 + ^
STACK CFI 23a44 .cfa: sp 4388 +
STACK CFI 23a4a .cfa: sp 4408 +
STACK CFI 23e3c .cfa: sp 36 +
STACK CFI INIT 23ea4 2b0 .cfa: sp 0 + .ra: lr
STACK CFI 23ea8 .cfa: sp 36 + .ra: .cfa -4 + ^ r10: .cfa -12 + ^ r11: .cfa -8 + ^ r4: .cfa -36 + ^ r5: .cfa -32 + ^ r6: .cfa -28 + ^ r7: .cfa -24 + ^ r8: .cfa -20 + ^ r9: .cfa -16 + ^
STACK CFI 23eac .cfa: sp 232 +
STACK CFI 240f8 .cfa: sp 36 +
STACK CFI INIT 24154 2a8 .cfa: sp 0 + .ra: lr
STACK CFI 24158 .cfa: sp 36 + .ra: .cfa -4 + ^ r10: .cfa -12 + ^ r11: .cfa -8 + ^ r4: .cfa -36 + ^ r5: .cfa -32 + ^ r6: .cfa -28 + ^ r7: .cfa -24 + ^ r8: .cfa -20 + ^ r9: .cfa -16 + ^
STACK CFI 2415c .cfa: sp 216 +
STACK CFI 243b4 .cfa: sp 36 +
STACK CFI INIT 243fc 8b4 .cfa: sp 0 + .ra: lr
STACK CFI 24400 .cfa: sp 36 + .ra: .cfa -4 + ^ r10: .cfa -12 + ^ r11: .cfa -8 + ^ r4: .cfa -36 + ^ r5: .cfa -32 + ^ r6: .cfa -28 + ^ r7: .cfa -24 + ^ r8: .cfa -20 + ^ r9: .cfa -16 + ^
STACK CFI 24410 .cfa: sp 440 +
STACK CFI 24c74 .cfa: sp 36 +
STACK CFI INIT 24cb0 12 .cfa: sp 0 + .ra: lr
STACK CFI 24cb2 .cfa: sp 8 + .ra: .cfa -4 + ^ r4: .cfa -8 + ^
STACK CFI INIT 191b0 62 .cfa: sp 0 + .ra: lr
STACK CFI 191b2 .cfa: sp 32 + .ra: .cfa -4 + ^ r4: .cfa -20 + ^ r5: .cfa -16 + ^ r6: .cfa -12 + ^ r7: .cfa -8 + ^
STACK CFI 19210 .cfa: sp 20 +
STACK CFI INIT 19212 30 .cfa: sp 0 + .ra: lr
STACK CFI 19214 .cfa: sp 16 + .ra: .cfa -4 + ^ r3: .cfa -16 + ^ r4: .cfa -12 + ^ r5: .cfa -8 + ^
STACK CFI INIT 19242 5e .cfa: sp 0 + .ra: lr
STACK CFI 19244 .cfa: sp 16 + .ra: .cfa -4 + ^ r4: .cfa -16 + ^ r5: .cfa -12 + ^ r6: .cfa -8 + ^
STACK CFI INIT 192a0 64 .cfa: sp 0 + .ra: lr
STACK CFI 192a2 .cfa: sp 16 + .ra: .cfa -4 + ^ r4: .cfa -16 + ^ r5: .cfa -12 + ^ r6: .cfa -8 + ^
STACK CFI INIT 19304 90 .cfa: sp 0 + .ra: lr
STACK CFI 19308 .cfa: sp 24 + .ra: .cfa -4 + ^ r4: .cfa -24 + ^ r5: .cfa -20 + ^ r6: .cfa -16 + ^ r7: .cfa -12 + ^ r8: .cfa -8 + ^
STACK CFI INIT 19394 84 .cfa: sp 0 + .ra: lr
STACK CFI 1939a .cfa: sp 24 + .ra: .cfa -4 + ^ r4: .cfa -24 + ^ r5: .cfa -20 + ^ r6: .cfa -16 + ^ r7: .cfa -12 + ^ r8: .cfa -8 + ^
STACK CFI INIT 17b14 90 .cfa: sp 0 + .ra: lr
STACK CFI 17b1a .cfa: sp 32 + .ra: .cfa -4 + ^ r4: .cfa -24 + ^ r5: .cfa -20 + ^ r6: .cfa -16 + ^ r7: .cfa -12 + ^ r8: .cfa -8 + ^
STACK CFI 17ba0 .cfa: sp 24 +
STACK CFI INIT 18134 a4 .cfa: sp 0 + .ra: lr
STACK CFI 18138 .cfa: sp 32 + .ra: .cfa -4 + ^ r4: .cfa -24 + ^ r5: .cfa -20 + ^ r6: .cfa -16 + ^ r7: .cfa -12 + ^ r8: .cfa -8 + ^
STACK CFI 181d4 .cfa: sp 24 +
STACK CFI INIT 147f4 1d4 .cfa: sp 0 + .ra: lr
STACK CFI 147f8 .cfa: sp 40 + .ra: .cfa -4 + ^ r4: .cfa -24 + ^ r5: .cfa -20 + ^ r6: .cfa -16 + ^ r7: .cfa -12 + ^ r8: .cfa -8 + ^
STACK CFI 1494e .cfa: sp 24 +
STACK CFI INIT 15dc4 2 .cfa: sp 0 + .ra: lr
STACK CFI INIT 15dc6 2 .cfa: sp 0 + .ra: lr
STACK CFI INIT 15dc8 4 .cfa: sp 0 + .ra: lr
STACK CFI INIT 15ddc 6 .cfa: sp 0 + .ra: lr
STACK CFI INIT 15de2 2 .cfa: sp 0 + .ra: lr
STACK CFI INIT 0 4 .cfa: sp 0 + .ra: lr
STACK CFI INIT 15de2 2 .cfa: sp 0 + .ra: lr
STACK CFI INIT 15de2 2 .cfa: sp 0 + .ra: lr
STACK CFI INIT 15de2 2 .cfa: sp 0 + .ra: lr
STACK CFI INIT 15de2 2 .cfa: sp 0 + .ra: lr
STACK CFI INIT 15de2 2 .cfa: sp 0 + .ra: lr
STACK CFI INIT 15de2 2 .cfa: sp 0 + .ra: lr
STACK CFI INIT 15de2 2 .cfa: sp 0 + .ra: lr
STACK CFI INIT 15de2 2 .cfa: sp 0 + .ra: lr
STACK CFI INIT 15de4 ac .cfa: sp 0 + .ra: lr
STACK CFI 15de6 .cfa: sp 16 + .ra: .cfa -4 + ^ r4: .cfa -16 + ^ r5: .cfa -12 + ^ r6: .cfa -8 + ^
STACK CFI INIT 15e90 9e .cfa: sp 0 + .ra: lr
STACK CFI 15e92 .cfa: sp 20 + .ra: .cfa -4 + ^ r4: .cfa -20 + ^ r5: .cfa -16 + ^ r6: .cfa -12 + ^ r7: .cfa -8 + ^
STACK CFI 15e94 .cfa: sp 40 +
STACK CFI 15f2c .cfa: sp 20 +
STACK CFI INIT 0 4 .cfa: sp 0 + .ra: lr
STACK CFI INIT 15f2e 10 .cfa: sp 0 + .ra: lr
STACK CFI INIT 15f3e 16 .cfa: sp 0 + .ra: lr
STACK CFI INIT 15f54 3e .cfa: sp 0 + .ra: lr
STACK CFI 15f56 .cfa: sp 8 + .ra: .cfa -4 + ^ r4: .cfa -8 + ^
STACK CFI INIT 0 2 .cfa: sp 0 + .ra: lr
STACK CFI INIT 15f92 c .cfa: sp 0 + .ra: lr
STACK CFI INIT 15f9e 1a .cfa: sp 0 + .ra: lr
STACK CFI 15fa0 .cfa: sp 16 + .ra: .cfa -4 + ^
STACK CFI 15fb4 .cfa: sp 4 +
STACK CFI INIT 0 6 .cfa: sp 0 + .ra: lr
STACK CFI INIT 15fb8 18 .cfa: sp 0 + .ra: lr
STACK CFI 15fba .cfa: sp 8 + .ra: .cfa -4 + ^ r4: .cfa -8 + ^
STACK CFI INIT 0 6 .cfa: sp 0 + .ra: lr
STACK CFI INIT 24cc4 20 .cfa: sp 0 + .ra: lr
STACK CFI 24cc6 .cfa: sp 8 + .ra: .cfa -4 + ^ r4: .cfa -8 + ^
STACK CFI INIT 24ce4 20 .cfa: sp 0 + .ra: lr
STACK CFI 24ce6 .cfa: sp 8 + .ra: .cfa -4 + ^ r4: .cfa -8 + ^
STACK CFI INIT 24d04 20 .cfa: sp 0 + .ra: lr
STACK CFI 24d06 .cfa: sp 8 + .ra: .cfa -4 + ^ r4: .cfa -8 + ^
STACK CFI INIT 24d24 20 .cfa: sp 0 + .ra: lr
STACK CFI 24d26 .cfa: sp 8 + .ra: .cfa -4 + ^ r4: .cfa -8 + ^
STACK CFI INIT 24d44 20 .cfa: sp 0 + .ra: lr
STACK CFI 24d46 .cfa: sp 8 + .ra: .cfa -4 + ^ r4: .cfa -8 + ^
STACK CFI INIT 24d64 20 .cfa: sp 0 + .ra: lr
STACK CFI 24d66 .cfa: sp 8 + .ra: .cfa -4 + ^ r4: .cfa -8 + ^
STACK CFI INIT 24d84 20 .cfa: sp 0 + .ra: lr
STACK CFI 24d86 .cfa: sp 8 + .ra: .cfa -4 + ^ r4: .cfa -8 + ^
STACK CFI INIT 24da4 20 .cfa: sp 0 + .ra: lr
STACK CFI 24da6 .cfa: sp 8 + .ra: .cfa -4 + ^ r4: .cfa -8 + ^
STACK CFI INIT 16030 4c .cfa: sp 0 + .ra: lr
STACK CFI 16034 .cfa: sp 24 + .ra: .cfa -4 + ^ r4: .cfa -24 + ^ r5: .cfa -20 + ^ r6: .cfa -16 + ^ r7: .cfa -12 + ^ r8: .cfa -8 + ^
STACK CFI INIT 15fd0 c .cfa: sp 0 + .ra: lr
STACK CFI 15fd2 .cfa: sp 8 + .ra: .cfa -4 + ^ r4: .cfa -8 + ^
STACK CFI INIT 15fd0 c .cfa: sp 0 + .ra: lr
STACK CFI 15fd2 .cfa: sp 8 + .ra: .cfa -4 + ^ r4: .cfa -8 + ^
STACK CFI INIT 15fd0 c .cfa: sp 0 + .ra: lr
STACK CFI 15fd2 .cfa: sp 8 + .ra: .cfa -4 + ^ r4: .cfa -8 + ^
STACK CFI INIT 15fd0 c .cfa: sp 0 + .ra: lr
STACK CFI 15fd2 .cfa: sp 8 + .ra: .cfa -4 + ^ r4: .cfa -8 + ^
STACK CFI INIT 15fd0 c .cfa: sp 0 + .ra: lr
STACK CFI 15fd2 .cfa: sp 8 + .ra: .cfa -4 + ^ r4: .cfa -8 + ^
STACK CFI INIT 15fd0 c .cfa: sp 0 + .ra: lr
STACK CFI 15fd2 .cfa: sp 8 + .ra: .cfa -4 + ^ r4: .cfa -8 + ^
STACK CFI INIT 15fd0 c .cfa: sp 0 + .ra: lr
STACK CFI 15fd2 .cfa: sp 8 + .ra: .cfa -4 + ^ r4: .cfa -8 + ^
STACK CFI INIT 15fd0 c .cfa: sp 0 + .ra: lr
STACK CFI 15fd2 .cfa: sp 8 + .ra: .cfa -4 + ^ r4: .cfa -8 + ^
STACK CFI INIT 15fdc 54 .cfa: sp 0 + .ra: lr
STACK CFI 15fe0 .cfa: sp 24 + .ra: .cfa -4 + ^ r4: .cfa -24 + ^ r5: .cfa -20 + ^ r6: .cfa -16 + ^ r7: .cfa -12 + ^ r8: .cfa -8 + ^
STACK CFI INIT 1607c 1c .cfa: sp 0 + .ra: lr
STACK CFI 16080 .cfa: sp 8 + .ra: .cfa -4 + ^ r4: .cfa -8 + ^
STACK CFI INIT 16098 12 .cfa: sp 0 + .ra: lr
STACK CFI 1609a .cfa: sp 8 + .ra: .cfa -4 + ^ r4: .cfa -8 + ^
STACK CFI INIT 160ac 1c .cfa: sp 0 + .ra: lr
STACK CFI 160b0 .cfa: sp 8 + .ra: .cfa -4 + ^ r4: .cfa -8 + ^
STACK CFI INIT 160c8 12 .cfa: sp 0 + .ra: lr
STACK CFI 160ca .cfa: sp 8 + .ra: .cfa -4 + ^ r4: .cfa -8 + ^
STACK CFI INIT 24dc4 18 .cfa: sp 0 + .ra: lr
STACK CFI 24dc6 .cfa: sp 8 + .ra: .cfa -4 + ^ r4: .cfa -8 + ^
STACK CFI INIT 24ddc 12 .cfa: sp 0 + .ra: lr
STACK CFI 24dde .cfa: sp 8 + .ra: .cfa -4 + ^ r4: .cfa -8 + ^
STACK CFI INIT 24df0 18 .cfa: sp 0 + .ra: lr
STACK CFI 24df2 .cfa: sp 8 + .ra: .cfa -4 + ^ r4: .cfa -8 + ^
STACK CFI INIT 24e08 12 .cfa: sp 0 + .ra: lr
STACK CFI 24e0a .cfa: sp 8 + .ra: .cfa -4 + ^ r4: .cfa -8 + ^
STACK CFI INIT 24e1c 18 .cfa: sp 0 + .ra: lr
STACK CFI 24e1e .cfa: sp 8 + .ra: .cfa -4 + ^ r4: .cfa -8 + ^
STACK CFI INIT 24e34 12 .cfa: sp 0 + .ra: lr
STACK CFI 24e36 .cfa: sp 8 + .ra: .cfa -4 + ^ r4: .cfa -8 + ^
STACK CFI INIT 24e48 18 .cfa: sp 0 + .ra: lr
STACK CFI 24e4a .cfa: sp 8 + .ra: .cfa -4 + ^ r4: .cfa -8 + ^
STACK CFI INIT 24e60 12 .cfa: sp 0 + .ra: lr
STACK CFI 24e62 .cfa: sp 8 + .ra: .cfa -4 + ^ r4: .cfa -8 + ^
STACK CFI INIT 24e74 18 .cfa: sp 0 + .ra: lr
STACK CFI 24e76 .cfa: sp 8 + .ra: .cfa -4 + ^ r4: .cfa -8 + ^
STACK CFI INIT 24e8c 12 .cfa: sp 0 + .ra: lr
STACK CFI 24e8e .cfa: sp 8 + .ra: .cfa -4 + ^ r4: .cfa -8 + ^
STACK CFI INIT 24ea0 18 .cfa: sp 0 + .ra: lr
STACK CFI 24ea2 .cfa: sp 8 + .ra: .cfa -4 + ^ r4: .cfa -8 + ^
STACK CFI INIT 24eb8 12 .cfa: sp 0 + .ra: lr
STACK CFI 24eba .cfa: sp 8 + .ra: .cfa -4 + ^ r4: .cfa -8 + ^
STACK CFI INIT 24ecc 18 .cfa: sp 0 + .ra: lr
STACK CFI 24ece .cfa: sp 8 + .ra: .cfa -4 + ^ r4: .cfa -8 + ^
STACK CFI INIT 24ee4 12 .cfa: sp 0 + .ra: lr
STACK CFI 24ee6 .cfa: sp 8 + .ra: .cfa -4 + ^ r4: .cfa -8 + ^
STACK CFI INIT 24ef8 18 .cfa: sp 0 + .ra: lr
STACK CFI 24efa .cfa: sp 8 + .ra: .cfa -4 + ^ r4: .cfa -8 + ^
STACK CFI INIT 24f10 12 .cfa: sp 0 + .ra: lr
STACK CFI 24f12 .cfa: sp 8 + .ra: .cfa -4 + ^ r4: .cfa -8 + ^
STACK CFI INIT 16a6c 54 .cfa: sp 0 + .ra: lr
STACK CFI 16a70 .cfa: sp 24 + .ra: .cfa -4 + ^ r4: .cfa -24 + ^ r5: .cfa -20 + ^ r6: .cfa -16 + ^ r7: .cfa -12 + ^ r8: .cfa -8 + ^
STACK CFI INIT 1e00e 10 .cfa: sp 0 + .ra: lr
STACK CFI INIT 16ac0 18 .cfa: sp 0 + .ra: lr
STACK CFI 16ac6 .cfa: sp 8 + .ra: .cfa -4 + ^ r4: .cfa -8 + ^
STACK CFI INIT 16ad8 14 .cfa: sp 0 + .ra: lr
STACK CFI INIT 16aec 1e .cfa: sp 0 + .ra: lr
STACK CFI 16aee .cfa: sp 8 + .ra: .cfa -4 + ^ r4: .cfa -8 + ^
STACK CFI INIT 16b0a 1e .cfa: sp 0 + .ra: lr
STACK CFI INIT 16b76 28 .cfa: sp 0 + .ra: lr
STACK CFI 16b78 .cfa: sp 16 + .ra: .cfa -4 + ^ r4: .cfa -16 + ^ r5: .cfa -12 + ^ r6: .cfa -8 + ^
STACK CFI INIT 16b9e e .cfa: sp 0 + .ra: lr
STACK CFI 16ba0 .cfa: sp 8 + .ra: .cfa -4 + ^ r4: .cfa -8 + ^
STACK CFI INIT 16b40 24 .cfa: sp 0 + .ra: lr
STACK CFI 16b44 .cfa: sp 8 + .ra: .cfa -4 + ^ r4: .cfa -8 + ^
STACK CFI INIT 16b64 12 .cfa: sp 0 + .ra: lr
STACK CFI 16b66 .cfa: sp 8 + .ra: .cfa -4 + ^ r4: .cfa -8 + ^
STACK CFI INIT 16bac 9c .cfa: sp 0 + .ra: lr
STACK CFI 16bb0 .cfa: sp 28 + .ra: .cfa -4 + ^ r4: .cfa -28 + ^ r5: .cfa -24 + ^ r6: .cfa -20 + ^ r7: .cfa -16 + ^ r8: .cfa -12 + ^ r9: .cfa -8 + ^
STACK CFI 16bbc .cfa: sp 48 +
STACK CFI 16c3e .cfa: sp 28 +
STACK CFI INIT 16c48 78 .cfa: sp 0 + .ra: lr
STACK CFI 16c4a .cfa: sp 16 + .ra: .cfa -4 + ^ r4: .cfa -16 + ^ r5: .cfa -12 + ^ r6: .cfa -8 + ^
STACK CFI INIT 16cc0 66 .cfa: sp 0 + .ra: lr
STACK CFI 16cc2 .cfa: sp 16 + .ra: .cfa -4 + ^ r4: .cfa -16 + ^ r5: .cfa -12 + ^ r6: .cfa -8 + ^
STACK CFI INIT 16d26 42 .cfa: sp 0 + .ra: lr
STACK CFI 16d28 .cfa: sp 24 + .ra: .cfa -4 + ^ r3: .cfa -24 + ^ r4: .cfa -20 + ^ r5: .cfa -16 + ^ r6: .cfa -12 + ^ r7: .cfa -8 + ^
STACK CFI INIT 16d68 6 .cfa: sp 0 + .ra: lr
STACK CFI INIT 16d6e 1c .cfa: sp 0 + .ra: lr
STACK CFI 16d70 .cfa: sp 8 + .ra: .cfa -4 + ^ r3: .cfa -8 + ^
STACK CFI INIT 24f22 7a .cfa: sp 0 + .ra: lr
STACK CFI 24f24 .cfa: sp 12 + .ra: .cfa -4 + ^ r4: .cfa -12 + ^ r5: .cfa -8 + ^
STACK CFI INIT 16d8a 28 .cfa: sp 0 + .ra: lr
STACK CFI 16d8e .cfa: sp 16 + .ra: .cfa -4 + ^ r4: .cfa -16 + ^ r5: .cfa -12 + ^ r6: .cfa -8 + ^
STACK CFI INIT 24f9c 30 .cfa: sp 0 + .ra: lr
STACK CFI 24f9e .cfa: sp 16 + .ra: .cfa -4 + ^ r3: .cfa -16 + ^ r4: .cfa -12 + ^ r5: .cfa -8 + ^
STACK CFI INIT 24fcc 32 .cfa: sp 0 + .ra: lr
STACK CFI 24fd2 .cfa: sp 24 + .ra: .cfa -4 + ^ r4: .cfa -16 + ^ r5: .cfa -12 + ^ r6: .cfa -8 + ^
STACK CFI 24ffc .cfa: sp 16 +
STACK CFI INIT 0 30 .cfa: sp 0 + .ra: lr
STACK CFI 2 .cfa: sp 16 + .ra: .cfa -4 + ^ r4: .cfa -8 + ^
STACK CFI 28 .cfa: sp 8 +
STACK CFI INIT 16f58 30 .cfa: sp 0 + .ra: lr
STACK CFI 16f5a .cfa: sp 16 + .ra: .cfa -4 + ^ r4: .cfa -16 + ^ r5: .cfa -12 + ^ r6: .cfa -8 + ^
STACK CFI INIT 16f88 28 .cfa: sp 0 + .ra: lr
STACK CFI 16f8a .cfa: sp 16 + .ra: .cfa -4 + ^ r4: .cfa -16 + ^ r5: .cfa -12 + ^ r6: .cfa -8 + ^
STACK CFI INIT 0 b4 .cfa: sp 0 + .ra: lr
STACK CFI 4 .cfa: sp 32 + .ra: .cfa -4 + ^ r3: .cfa -32 + ^ r4: .cfa -28 + ^ r5: .cfa -24 + ^ r6: .cfa -20 + ^ r7: .cfa -16 + ^ r8: .cfa -12 + ^ r9: .cfa -8 + ^
STACK CFI INIT 0 7c .cfa: sp 0 + .ra: lr
STACK CFI 2 .cfa: sp 24 + .ra: .cfa -4 + ^ r3: .cfa -24 + ^ r4: .cfa -20 + ^ r5: .cfa -16 + ^ r6: .cfa -12 + ^ r7: .cfa -8 + ^
STACK CFI INIT 17044 16 .cfa: sp 0 + .ra: lr
STACK CFI 17046 .cfa: sp 8 + .ra: .cfa -4 + ^ r4: .cfa -8 + ^
STACK CFI 17056 .cfa: sp 0 + .ra: .ra r4: r4
STACK CFI INIT 1705c 54 .cfa: sp 0 + .ra: lr
STACK CFI 1705e .cfa: sp 16 + .ra: .cfa -4 + ^ r3: .cfa -16 + ^ r4: .cfa -12 + ^ r5: .cfa -8 + ^
STACK CFI INIT 170b0 8 .cfa: sp 0 + .ra: lr
STACK CFI INIT 170b8 c .cfa: sp 0 + .ra: lr
STACK CFI INIT 170c4 12 .cfa: sp 0 + .ra: lr
STACK CFI 170c6 .cfa: sp 8 + .ra: .cfa -4 + ^ r4: .cfa -8 + ^
STACK CFI INIT 170d6 c .cfa: sp 0 + .ra: lr
STACK CFI INIT 170e2 8 .cfa: sp 0 + .ra: lr
STACK CFI INIT 170ec 54 .cfa: sp 0 + .ra: lr
STACK CFI 170ee .cfa: sp 16 + .ra: .cfa -4 + ^ r3: .cfa -16 + ^ r4: .cfa -12 + ^ r5: .cfa -8 + ^
STACK CFI INIT 17140 8 .cfa: sp 0 + .ra: lr
STACK CFI INIT 17148 c .cfa: sp 0 + .ra: lr
STACK CFI INIT 17154 12 .cfa: sp 0 + .ra: lr
STACK CFI 17156 .cfa: sp 8 + .ra: .cfa -4 + ^ r4: .cfa -8 + ^
STACK CFI INIT 17166 c .cfa: sp 0 + .ra: lr
STACK CFI INIT 17172 8 .cfa: sp 0 + .ra: lr
STACK CFI INIT 1717c 8c .cfa: sp 0 + .ra: lr
STACK CFI 1717e .cfa: sp 24 + .ra: .cfa -4 + ^ r3: .cfa -24 + ^ r4: .cfa -20 + ^ r5: .cfa -16 + ^ r6: .cfa -12 + ^ r7: .cfa -8 + ^
STACK CFI INIT 17208 8 .cfa: sp 0 + .ra: lr
STACK CFI INIT 17210 80 .cfa: sp 0 + .ra: lr
STACK CFI 17212 .cfa: sp 24 + .ra: .cfa -4 + ^ r3: .cfa -24 + ^ r4: .cfa -20 + ^ r5: .cfa -16 + ^ r6: .cfa -12 + ^ r7: .cfa -8 + ^
STACK CFI INIT 17290 8 .cfa: sp 0 + .ra: lr
STACK CFI INIT 17298 8 .cfa: sp 0 + .ra: lr
STACK CFI INIT 172a0 8 .cfa: sp 0 + .ra: lr
STACK CFI INIT 172a8 c .cfa: sp 0 + .ra: lr
STACK CFI INIT 172b4 12 .cfa: sp 0 + .ra: lr
STACK CFI 172b6 .cfa: sp 8 + .ra: .cfa -4 + ^ r4: .cfa -8 + ^
STACK CFI INIT 172c6 8 .cfa: sp 0 + .ra: lr
STACK CFI INIT 172ce c .cfa: sp 0 + .ra: lr
STACK CFI INIT 1739c 8 .cfa: sp 0 + .ra: lr
STACK CFI INIT 173a4 8 .cfa: sp 0 + .ra: lr
STACK CFI INIT 173ac c .cfa: sp 0 + .ra: lr
STACK CFI INIT 173b8 12 .cfa: sp 0 + .ra: lr
STACK CFI 173ba .cfa: sp 8 + .ra: .cfa -4 + ^ r4: .cfa -8 + ^
STACK CFI INIT 173ca 8 .cfa: sp 0 + .ra: lr
STACK CFI INIT 173d2 c .cfa: sp 0 + .ra: lr
STACK CFI INIT 173de 2c .cfa: sp 0 + .ra: lr
STACK CFI 173e0 .cfa: sp 8 + .ra: .cfa -4 + ^ r4: .cfa -8 + ^
STACK CFI INIT 1740a 40 .cfa: sp 0 + .ra: lr
STACK CFI 1740c .cfa: sp 8 + .ra: .cfa -4 + ^ r4: .cfa -8 + ^
STACK CFI INIT 1744a 24 .cfa: sp 0 + .ra: lr
STACK CFI 1744c .cfa: sp 8 + .ra: .cfa -4 + ^ r4: .cfa -8 + ^
STACK CFI INIT 1746e b4 .cfa: sp 0 + .ra: lr
STACK CFI 17470 .cfa: sp 32 + .ra: .cfa -4 + ^ r4: .cfa -20 + ^ r5: .cfa -16 + ^ r6: .cfa -12 + ^ r7: .cfa -8 + ^
STACK CFI 17520 .cfa: sp 20 +
STACK CFI INIT 17522 90 .cfa: sp 0 + .ra: lr
STACK CFI 17524 .cfa: sp 20 + .ra: .cfa -4 + ^ r4: .cfa -20 + ^ r5: .cfa -16 + ^ r6: .cfa -12 + ^ r7: .cfa -8 + ^
STACK CFI 17526 .cfa: sp 80 +
STACK CFI 175b0 .cfa: sp 20 +
STACK CFI INIT 175b2 98 .cfa: sp 0 + .ra: lr
STACK CFI 175b6 .cfa: sp 40 + .ra: .cfa -4 + ^ r4: .cfa -28 + ^ r5: .cfa -24 + ^ r6: .cfa -20 + ^ r7: .cfa -16 + ^ r8: .cfa -12 + ^ r9: .cfa -8 + ^
STACK CFI 17646 .cfa: sp 28 +
STACK CFI INIT 176da 16 .cfa: sp 0 + .ra: lr
STACK CFI INIT 176f0 3c .cfa: sp 0 + .ra: lr
STACK CFI 176f2 .cfa: sp 8 + .ra: .cfa -4 + ^ r3: .cfa -8 + ^
STACK CFI INIT 0 d0 .cfa: sp 0 + .ra: lr
STACK CFI 6 .cfa: sp 32 + .ra: .cfa -4 + ^ r4: .cfa -24 + ^ r5: .cfa -20 + ^ r6: .cfa -16 + ^ r7: .cfa -12 + ^ r8: .cfa -8 + ^
STACK CFI cc .cfa: sp 24 +
STACK CFI INIT 24ffe 1a .cfa: sp 0 + .ra: lr
STACK CFI 25000 .cfa: sp 16 + .ra: .cfa -4 + ^ r3: .cfa -16 + ^ r4: .cfa -12 + ^ r5: .cfa -8 + ^
STACK CFI 25014 .cfa: sp 0 + .ra: .ra r3: r3 r4: r4 r5: r5
STACK CFI INIT 0 1e8 .cfa: sp 0 + .ra: lr
STACK CFI 4 .cfa: sp 32 + .ra: .cfa -4 + ^ r10: .cfa -8 + ^ r4: .cfa -32 + ^ r5: .cfa -28 + ^ r6: .cfa -24 + ^ r7: .cfa -20 + ^ r8: .cfa -16 + ^ r9: .cfa -12 + ^
STACK CFI 16 .cfa: sp 208 +
STACK CFI 1be .cfa: sp 32 +
STACK CFI INIT 0 74 .cfa: sp 0 + .ra: lr
STACK CFI 6 .cfa: sp 24 + .ra: .cfa -4 + ^ r4: .cfa -24 + ^ r5: .cfa -20 + ^ r6: .cfa -16 + ^ r7: .cfa -12 + ^ r8: .cfa -8 + ^
STACK CFI 10 .cfa: sp 56 +
STACK CFI 6a .cfa: sp 24 +
STACK CFI INIT 17a84 2c .cfa: sp 0 + .ra: lr
STACK CFI 17a86 .cfa: sp 24 + .ra: .cfa -4 + ^ r4: .cfa -16 + ^ r5: .cfa -12 + ^ r6: .cfa -8 + ^
STACK CFI 17aae .cfa: sp 16 +
STACK CFI INIT 17ab0 38 .cfa: sp 0 + .ra: lr
STACK CFI 17ab2 .cfa: sp 24 + .ra: .cfa -4 + ^ r4: .cfa -16 + ^ r5: .cfa -12 + ^ r6: .cfa -8 + ^
STACK CFI 17ae0 .cfa: sp 16 +
STACK CFI INIT 0 2c .cfa: sp 0 + .ra: lr
STACK CFI 2 .cfa: sp 24 + .ra: .cfa -4 + ^ r4: .cfa -16 + ^ r5: .cfa -12 + ^ r6: .cfa -8 + ^
STACK CFI 2a .cfa: sp 16 +
STACK CFI INIT 17ae8 2c .cfa: sp 0 + .ra: lr
STACK CFI 17aea .cfa: sp 24 + .ra: .cfa -4 + ^ r4: .cfa -16 + ^ r5: .cfa -12 + ^ r6: .cfa -8 + ^
STACK CFI 17b12 .cfa: sp 16 +
STACK CFI INIT 0 2c .cfa: sp 0 + .ra: lr
STACK CFI 2 .cfa: sp 24 + .ra: .cfa -4 + ^ r4: .cfa -16 + ^ r5: .cfa -12 + ^ r6: .cfa -8 + ^
STACK CFI 2a .cfa: sp 16 +
STACK CFI INIT 25018 22 .cfa: sp 0 + .ra: lr
STACK CFI 2501e .cfa: sp 16 +
STACK CFI 25038 .cfa: sp 0 +
STACK CFI INIT 2503a 1a .cfa: sp 0 + .ra: lr
STACK CFI 2503c .cfa: sp 16 + .ra: .cfa -4 + ^ r3: .cfa -16 + ^ r4: .cfa -12 + ^ r5: .cfa -8 + ^
STACK CFI INIT 25018 22 .cfa: sp 0 + .ra: lr
STACK CFI 2501e .cfa: sp 16 +
STACK CFI 25038 .cfa: sp 0 +
STACK CFI INIT 25054 1c .cfa: sp 0 + .ra: lr
STACK CFI 25056 .cfa: sp 16 + .ra: .cfa -4 + ^ r3: .cfa -16 + ^ r4: .cfa -12 + ^ r5: .cfa -8 + ^
STACK CFI INIT 25070 c0 .cfa: sp 0 + .ra: lr
STACK CFI 25074 .cfa: sp 36 + .ra: .cfa -4 + ^ r10: .cfa -12 + ^ r11: .cfa -8 + ^ r4: .cfa -36 + ^ r5: .cfa -32 + ^ r6: .cfa -28 + ^ r7: .cfa -24 + ^ r8: .cfa -20 + ^ r9: .cfa -16 + ^
STACK CFI 25078 .cfa: sp 264 +
STACK CFI 25124 .cfa: sp 36 +
STACK CFI INIT 25130 4a .cfa: sp 0 + .ra: lr
STACK CFI 25134 .cfa: sp 40 + .ra: .cfa -4 + ^ r10: .cfa -8 + ^ r4: .cfa -32 + ^ r5: .cfa -28 + ^ r6: .cfa -24 + ^ r7: .cfa -20 + ^ r8: .cfa -16 + ^ r9: .cfa -12 + ^
STACK CFI 25176 .cfa: sp 32 +
STACK CFI INIT 2517c a0 .cfa: sp 0 + .ra: lr
STACK CFI 25180 .cfa: sp 36 + .ra: .cfa -4 + ^ r10: .cfa -12 + ^ r11: .cfa -8 + ^ r4: .cfa -36 + ^ r5: .cfa -32 + ^ r6: .cfa -28 + ^ r7: .cfa -24 + ^ r8: .cfa -20 + ^ r9: .cfa -16 + ^
STACK CFI 2518a .cfa: sp 264 +
STACK CFI 25212 .cfa: sp 36 +
STACK CFI INIT 0 42 .cfa: sp 0 + .ra: lr
STACK CFI 4 .cfa: sp 40 + .ra: .cfa -4 + ^ r4: .cfa -28 + ^ r5: .cfa -24 + ^ r6: .cfa -20 + ^ r7: .cfa -16 + ^ r8: .cfa -12 + ^ r9: .cfa -8 + ^
STACK CFI 3e .cfa: sp 28 +
STACK CFI INIT 0 8a .cfa: sp 0 + .ra: lr
STACK CFI 6 .cfa: sp 32 + .ra: .cfa -4 + ^ r4: .cfa -24 + ^ r5: .cfa -20 + ^ r6: .cfa -16 + ^ r7: .cfa -12 + ^ r8: .cfa -8 + ^
STACK CFI 86 .cfa: sp 24 +
STACK CFI INIT 17ba4 46 .cfa: sp 0 + .ra: lr
STACK CFI 17ba6 .cfa: sp 32 + .ra: .cfa -4 + ^ r4: .cfa -20 + ^ r5: .cfa -16 + ^ r6: .cfa -12 + ^ r7: .cfa -8 + ^
STACK CFI 17be8 .cfa: sp 20 +
STACK CFI INIT 17bec 2c8 .cfa: sp 0 + .ra: lr
STACK CFI 17bf0 .cfa: sp 36 + .ra: .cfa -4 + ^ r10: .cfa -12 + ^ r11: .cfa -8 + ^ r4: .cfa -36 + ^ r5: .cfa -32 + ^ r6: .cfa -28 + ^ r7: .cfa -24 + ^ r8: .cfa -20 + ^ r9: .cfa -16 + ^
STACK CFI 17bf4 .cfa: sp 256 +
STACK CFI 17e60 .cfa: sp 36 +
STACK CFI INIT 17eb4 14 .cfa: sp 0 + .ra: lr
STACK CFI 17eb6 .cfa: sp 8 + .ra: .cfa -4 + ^ r4: .cfa -8 + ^
STACK CFI INIT 18134 a4 .cfa: sp 0 + .ra: lr
STACK CFI 18138 .cfa: sp 32 + .ra: .cfa -4 + ^ r4: .cfa -24 + ^ r5: .cfa -20 + ^ r6: .cfa -16 + ^ r7: .cfa -12 + ^ r8: .cfa -8 + ^
STACK CFI 181d4 .cfa: sp 24 +
STACK CFI INIT 181d8 48 .cfa: sp 0 + .ra: lr
STACK CFI 181da .cfa: sp 20 + .ra: .cfa -4 + ^ r4: .cfa -20 + ^ r5: .cfa -16 + ^ r6: .cfa -12 + ^ r7: .cfa -8 + ^
STACK CFI 181e6 .cfa: sp 184 +
STACK CFI 1821a .cfa: sp 20 +
STACK CFI INIT 18220 d4 .cfa: sp 0 + .ra: lr
STACK CFI 18224 .cfa: sp 28 + .ra: .cfa -4 + ^ r4: .cfa -28 + ^ r5: .cfa -24 + ^ r6: .cfa -20 + ^ r7: .cfa -16 + ^ r8: .cfa -12 + ^ r9: .cfa -8 + ^
STACK CFI 18228 .cfa: sp 112 +
STACK CFI 182d6 .cfa: sp 28 +
STACK CFI INIT 182f4 2c .cfa: sp 0 + .ra: lr
STACK CFI 182f6 .cfa: sp 32 + .ra: .cfa -4 + ^ r4: .cfa -20 + ^ r5: .cfa -16 + ^ r6: .cfa -12 + ^ r7: .cfa -8 + ^
STACK CFI 18318 .cfa: sp 20 +
STACK CFI INIT 18320 74 .cfa: sp 0 + .ra: lr
STACK CFI 18324 .cfa: sp 32 + .ra: .cfa -4 + ^ r10: .cfa -8 + ^ r4: .cfa -32 + ^ r5: .cfa -28 + ^ r6: .cfa -24 + ^ r7: .cfa -20 + ^ r8: .cfa -16 + ^ r9: .cfa -12 + ^
STACK CFI 18328 .cfa: sp 96 +
STACK CFI 1838c .cfa: sp 32 +
STACK CFI INIT 2521c d8 .cfa: sp 0 + .ra: lr
STACK CFI 25220 .cfa: sp 32 + .ra: .cfa -4 + ^ r10: .cfa -8 + ^ r4: .cfa -32 + ^ r5: .cfa -28 + ^ r6: .cfa -24 + ^ r7: .cfa -20 + ^ r8: .cfa -16 + ^ r9: .cfa -12 + ^
STACK CFI 2522a .cfa: sp 240 +
STACK CFI 252ec .cfa: sp 32 +
STACK CFI INIT 0 f4 .cfa: sp 0 + .ra: lr
STACK CFI 4 .cfa: sp 32 + .ra: .cfa -4 + ^ r10: .cfa -8 + ^ r4: .cfa -32 + ^ r5: .cfa -28 + ^ r6: .cfa -24 + ^ r7: .cfa -20 + ^ r8: .cfa -16 + ^ r9: .cfa -12 + ^
STACK CFI 12 .cfa: sp 104 +
STACK CFI d4 .cfa: sp 32 +
STACK CFI INIT 252f4 26c .cfa: sp 0 + .ra: lr
STACK CFI 252f8 .cfa: sp 36 + .ra: .cfa -4 + ^ r10: .cfa -12 + ^ r11: .cfa -8 + ^ r4: .cfa -36 + ^ r5: .cfa -32 + ^ r6: .cfa -28 + ^ r7: .cfa -24 + ^ r8: .cfa -20 + ^ r9: .cfa -16 + ^
STACK CFI 25300 .cfa: sp 1120 +
STACK CFI 25522 .cfa: sp 36 +
STACK CFI INIT 25560 274 .cfa: sp 0 + .ra: lr
STACK CFI 25564 .cfa: sp 36 + .ra: .cfa -4 + ^ r10: .cfa -12 + ^ r11: .cfa -8 + ^ r4: .cfa -36 + ^ r5: .cfa -32 + ^ r6: .cfa -28 + ^ r7: .cfa -24 + ^ r8: .cfa -20 + ^ r9: .cfa -16 + ^
STACK CFI 2556c .cfa: sp 1120 +
STACK CFI 25798 .cfa: sp 36 +
STACK CFI INIT 18c24 d8 .cfa: sp 0 + .ra: lr
STACK CFI 18c28 .cfa: sp 28 + .ra: .cfa -4 + ^ r4: .cfa -28 + ^ r5: .cfa -24 + ^ r6: .cfa -20 + ^ r7: .cfa -16 + ^ r8: .cfa -12 + ^ r9: .cfa -8 + ^
STACK CFI 18c32 .cfa: sp 240 +
STACK CFI 18cf4 .cfa: sp 28 +
STACK CFI INIT 18e58 11c .cfa: sp 0 + .ra: lr
STACK CFI 18e5c .cfa: sp 36 + .ra: .cfa -4 + ^ r10: .cfa -12 + ^ r11: .cfa -8 + ^ r4: .cfa -36 + ^ r5: .cfa -32 + ^ r6: .cfa -28 + ^ r7: .cfa -24 + ^ r8: .cfa -20 + ^ r9: .cfa -16 + ^
STACK CFI 18e6a .cfa: sp 296 +
STACK CFI 18f6a .cfa: sp 36 +
STACK CFI INIT 0 58 .cfa: sp 0 + .ra: lr
STACK CFI 2 .cfa: sp 32 + .ra: .cfa -4 + ^ r4: .cfa -20 + ^ r5: .cfa -16 + ^ r6: .cfa -12 + ^ r7: .cfa -8 + ^
STACK CFI 56 .cfa: sp 20 +
STACK CFI INIT 192a0 64 .cfa: sp 0 + .ra: lr
STACK CFI 192a2 .cfa: sp 16 + .ra: .cfa -4 + ^ r4: .cfa -16 + ^ r5: .cfa -12 + ^ r6: .cfa -8 + ^
STACK CFI INIT 19304 90 .cfa: sp 0 + .ra: lr
STACK CFI 19308 .cfa: sp 24 + .ra: .cfa -4 + ^ r4: .cfa -24 + ^ r5: .cfa -20 + ^ r6: .cfa -16 + ^ r7: .cfa -12 + ^ r8: .cfa -8 + ^
STACK CFI INIT 19212 30 .cfa: sp 0 + .ra: lr
STACK CFI 19214 .cfa: sp 16 + .ra: .cfa -4 + ^ r3: .cfa -16 + ^ r4: .cfa -12 + ^ r5: .cfa -8 + ^
STACK CFI INIT 19242 5e .cfa: sp 0 + .ra: lr
STACK CFI 19244 .cfa: sp 16 + .ra: .cfa -4 + ^ r4: .cfa -16 + ^ r5: .cfa -12 + ^ r6: .cfa -8 + ^
STACK CFI INIT 19394 84 .cfa: sp 0 + .ra: lr
STACK CFI 1939a .cfa: sp 24 + .ra: .cfa -4 + ^ r4: .cfa -24 + ^ r5: .cfa -20 + ^ r6: .cfa -16 + ^ r7: .cfa -12 + ^ r8: .cfa -8 + ^
STACK CFI INIT 149c8 200 .cfa: sp 0 + .ra: lr
STACK CFI 149ca .cfa: sp 20 + .ra: .cfa -4 + ^ r4: .cfa -20 + ^ r5: .cfa -16 + ^ r6: .cfa -12 + ^ r7: .cfa -8 + ^
STACK CFI 149cc .cfa: sp 40 +
STACK CFI 14b5a .cfa: sp 20 +
STACK CFI INIT 257d4 c70 .cfa: sp 0 + .ra: lr
STACK CFI 257d8 .cfa: sp 36 + .ra: .cfa -4 + ^ r10: .cfa -12 + ^ r11: .cfa -8 + ^ r4: .cfa -36 + ^ r5: .cfa -32 + ^ r6: .cfa -28 + ^ r7: .cfa -24 + ^ r8: .cfa -20 + ^ r9: .cfa -16 + ^
STACK CFI 257e0 .cfa: sp 1808 +
STACK CFI 262c6 .cfa: sp 36 +
STACK CFI INIT 26444 7d0 .cfa: sp 0 + .ra: lr
STACK CFI 26448 .cfa: sp 36 + .ra: .cfa -4 + ^ r10: .cfa -12 + ^ r11: .cfa -8 + ^ r4: .cfa -36 + ^ r5: .cfa -32 + ^ r6: .cfa -28 + ^ r7: .cfa -24 + ^ r8: .cfa -20 + ^ r9: .cfa -16 + ^
STACK CFI 26450 .cfa: sp 1824 +
STACK CFI 26b54 .cfa: sp 36 +
STACK CFI INIT 26c14 8a8 .cfa: sp 0 + .ra: lr
STACK CFI 26c18 .cfa: sp 36 + .ra: .cfa -4 + ^ r10: .cfa -12 + ^ r11: .cfa -8 + ^ r4: .cfa -36 + ^ r5: .cfa -32 + ^ r6: .cfa -28 + ^ r7: .cfa -24 + ^ r8: .cfa -20 + ^ r9: .cfa -16 + ^
STACK CFI 26c20 .cfa: sp 1424 +
STACK CFI 273ce .cfa: sp 36 +
STACK CFI INIT 274bc 298 .cfa: sp 0 + .ra: lr
STACK CFI 274c0 .cfa: sp 36 + .ra: .cfa -4 + ^ r10: .cfa -12 + ^ r11: .cfa -8 + ^ r4: .cfa -36 + ^ r5: .cfa -32 + ^ r6: .cfa -28 + ^ r7: .cfa -24 + ^ r8: .cfa -20 + ^ r9: .cfa -16 + ^
STACK CFI 274c8 .cfa: sp 1120 +
STACK CFI 27710 .cfa: sp 36 +
STACK CFI INIT 27754 5a4 .cfa: sp 0 + .ra: lr
STACK CFI 27758 .cfa: sp 36 + .ra: .cfa -4 + ^ r10: .cfa -12 + ^ r11: .cfa -8 + ^ r4: .cfa -36 + ^ r5: .cfa -32 + ^ r6: .cfa -28 + ^ r7: .cfa -24 + ^ r8: .cfa -20 + ^ r9: .cfa -16 + ^
STACK CFI 27760 .cfa: sp 1192 +
STACK CFI 27c70 .cfa: sp 36 +
STACK CFI INIT 27cf8 dec .cfa: sp 0 + .ra: lr
STACK CFI 27cfc .cfa: sp 36 + .ra: .cfa -4 + ^ r10: .cfa -12 + ^ r11: .cfa -8 + ^ r4: .cfa -36 + ^ r5: .cfa -32 + ^ r6: .cfa -28 + ^ r7: .cfa -24 + ^ r8: .cfa -20 + ^ r9: .cfa -16 + ^
STACK CFI 27d0a .cfa: sp 536 +
STACK CFI 28a1e .cfa: sp 36 +
STACK CFI INIT 1e00e 10 .cfa: sp 0 + .ra: lr
STACK CFI INIT 16ac0 18 .cfa: sp 0 + .ra: lr
STACK CFI 16ac6 .cfa: sp 8 + .ra: .cfa -4 + ^ r4: .cfa -8 + ^
STACK CFI INIT 16b0a 1e .cfa: sp 0 + .ra: lr
STACK CFI INIT 16d8a 28 .cfa: sp 0 + .ra: lr
STACK CFI 16d8e .cfa: sp 16 + .ra: .cfa -4 + ^ r4: .cfa -16 + ^ r5: .cfa -12 + ^ r6: .cfa -8 + ^
STACK CFI INIT 0 30 .cfa: sp 0 + .ra: lr
STACK CFI 2 .cfa: sp 16 + .ra: .cfa -4 + ^ r4: .cfa -8 + ^
STACK CFI 28 .cfa: sp 8 +
STACK CFI INIT 16f58 30 .cfa: sp 0 + .ra: lr
STACK CFI 16f5a .cfa: sp 16 + .ra: .cfa -4 + ^ r4: .cfa -16 + ^ r5: .cfa -12 + ^ r6: .cfa -8 + ^
STACK CFI INIT 176f0 3c .cfa: sp 0 + .ra: lr
STACK CFI 176f2 .cfa: sp 8 + .ra: .cfa -4 + ^ r3: .cfa -8 + ^
STACK CFI INIT 1772c d8 .cfa: sp 0 + .ra: lr
STACK CFI 17732 .cfa: sp 32 + .ra: .cfa -4 + ^ r4: .cfa -24 + ^ r5: .cfa -20 + ^ r6: .cfa -16 + ^ r7: .cfa -12 + ^ r8: .cfa -8 + ^
STACK CFI 17800 .cfa: sp 24 +
STACK CFI INIT 17804 44 .cfa: sp 0 + .ra: lr
STACK CFI 17806 .cfa: sp 24 + .ra: .cfa -4 + ^ r3: .cfa -24 + ^ r4: .cfa -20 + ^ r5: .cfa -16 + ^ r6: .cfa -12 + ^ r7: .cfa -8 + ^
STACK CFI INIT 28ae4 2a0 .cfa: sp 0 + .ra: lr
STACK CFI 28ae8 .cfa: sp 36 + .ra: .cfa -4 + ^ r10: .cfa -12 + ^ r11: .cfa -8 + ^ r4: .cfa -36 + ^ r5: .cfa -32 + ^ r6: .cfa -28 + ^ r7: .cfa -24 + ^ r8: .cfa -20 + ^ r9: .cfa -16 + ^
STACK CFI 28af6 .cfa: sp 4196 +
STACK CFI 28af8 .cfa: sp 4208 +
STACK CFI 28d5c .cfa: sp 36 +
STACK CFI INIT 15dc4 2 .cfa: sp 0 + .ra: lr
STACK CFI INIT 15dc6 2 .cfa: sp 0 + .ra: lr
STACK CFI INIT 15dc8 4 .cfa: sp 0 + .ra: lr
STACK CFI INIT 15ddc 6 .cfa: sp 0 + .ra: lr
STACK CFI INIT 15de2 2 .cfa: sp 0 + .ra: lr
STACK CFI INIT 0 4 .cfa: sp 0 + .ra: lr
STACK CFI INIT 15de2 2 .cfa: sp 0 + .ra: lr
STACK CFI INIT 15de2 2 .cfa: sp 0 + .ra: lr
STACK CFI INIT 15de2 2 .cfa: sp 0 + .ra: lr
STACK CFI INIT 15de2 2 .cfa: sp 0 + .ra: lr
STACK CFI INIT 15de2 2 .cfa: sp 0 + .ra: lr
STACK CFI INIT 15de2 2 .cfa: sp 0 + .ra: lr
STACK CFI INIT 15de2 2 .cfa: sp 0 + .ra: lr
STACK CFI INIT 15de2 2 .cfa: sp 0 + .ra: lr
STACK CFI INIT 15de2 2 .cfa: sp 0 + .ra: lr
STACK CFI INIT 15de2 2 .cfa: sp 0 + .ra: lr
STACK CFI INIT 15de4 ac .cfa: sp 0 + .ra: lr
STACK CFI 15de6 .cfa: sp 16 + .ra: .cfa -4 + ^ r4: .cfa -16 + ^ r5: .cfa -12 + ^ r6: .cfa -8 + ^
STACK CFI INIT 15e90 9e .cfa: sp 0 + .ra: lr
STACK CFI 15e92 .cfa: sp 20 + .ra: .cfa -4 + ^ r4: .cfa -20 + ^ r5: .cfa -16 + ^ r6: .cfa -12 + ^ r7: .cfa -8 + ^
STACK CFI 15e94 .cfa: sp 40 +
STACK CFI 15f2c .cfa: sp 20 +
STACK CFI INIT 0 4 .cfa: sp 0 + .ra: lr
STACK CFI INIT 15f2e 10 .cfa: sp 0 + .ra: lr
STACK CFI INIT 15f3e 16 .cfa: sp 0 + .ra: lr
STACK CFI INIT 15f54 3e .cfa: sp 0 + .ra: lr
STACK CFI 15f56 .cfa: sp 8 + .ra: .cfa -4 + ^ r4: .cfa -8 + ^
STACK CFI INIT 0 2 .cfa: sp 0 + .ra: lr
STACK CFI INIT 15f92 c .cfa: sp 0 + .ra: lr
STACK CFI INIT 15f9e 1a .cfa: sp 0 + .ra: lr
STACK CFI 15fa0 .cfa: sp 16 + .ra: .cfa -4 + ^
STACK CFI 15fb4 .cfa: sp 4 +
STACK CFI INIT 0 6 .cfa: sp 0 + .ra: lr
STACK CFI INIT 15fb8 18 .cfa: sp 0 + .ra: lr
STACK CFI 15fba .cfa: sp 8 + .ra: .cfa -4 + ^ r4: .cfa -8 + ^
STACK CFI INIT 0 6 .cfa: sp 0 + .ra: lr
STACK CFI INIT 15fd0 c .cfa: sp 0 + .ra: lr
STACK CFI 15fd2 .cfa: sp 8 + .ra: .cfa -4 + ^ r4: .cfa -8 + ^
STACK CFI INIT 15fd0 c .cfa: sp 0 + .ra: lr
STACK CFI 15fd2 .cfa: sp 8 + .ra: .cfa -4 + ^ r4: .cfa -8 + ^
STACK CFI INIT 15fd0 c .cfa: sp 0 + .ra: lr
STACK CFI 15fd2 .cfa: sp 8 + .ra: .cfa -4 + ^ r4: .cfa -8 + ^
STACK CFI INIT 15fd0 c .cfa: sp 0 + .ra: lr
STACK CFI 15fd2 .cfa: sp 8 + .ra: .cfa -4 + ^ r4: .cfa -8 + ^
STACK CFI INIT 15fd0 c .cfa: sp 0 + .ra: lr
STACK CFI 15fd2 .cfa: sp 8 + .ra: .cfa -4 + ^ r4: .cfa -8 + ^
STACK CFI INIT 15fd0 c .cfa: sp 0 + .ra: lr
STACK CFI 15fd2 .cfa: sp 8 + .ra: .cfa -4 + ^ r4: .cfa -8 + ^
STACK CFI INIT 15fd0 c .cfa: sp 0 + .ra: lr
STACK CFI 15fd2 .cfa: sp 8 + .ra: .cfa -4 + ^ r4: .cfa -8 + ^
STACK CFI INIT 15fd0 c .cfa: sp 0 + .ra: lr
STACK CFI 15fd2 .cfa: sp 8 + .ra: .cfa -4 + ^ r4: .cfa -8 + ^
STACK CFI INIT 15fd0 c .cfa: sp 0 + .ra: lr
STACK CFI 15fd2 .cfa: sp 8 + .ra: .cfa -4 + ^ r4: .cfa -8 + ^
STACK CFI INIT 15fd0 c .cfa: sp 0 + .ra: lr
STACK CFI 15fd2 .cfa: sp 8 + .ra: .cfa -4 + ^ r4: .cfa -8 + ^
STACK CFI INIT 16030 4c .cfa: sp 0 + .ra: lr
STACK CFI 16034 .cfa: sp 24 + .ra: .cfa -4 + ^ r4: .cfa -24 + ^ r5: .cfa -20 + ^ r6: .cfa -16 + ^ r7: .cfa -12 + ^ r8: .cfa -8 + ^
STACK CFI INIT 15fdc 54 .cfa: sp 0 + .ra: lr
STACK CFI 15fe0 .cfa: sp 24 + .ra: .cfa -4 + ^ r4: .cfa -24 + ^ r5: .cfa -20 + ^ r6: .cfa -16 + ^ r7: .cfa -12 + ^ r8: .cfa -8 + ^
STACK CFI INIT 1607c 1c .cfa: sp 0 + .ra: lr
STACK CFI 16080 .cfa: sp 8 + .ra: .cfa -4 + ^ r4: .cfa -8 + ^
STACK CFI INIT 16098 12 .cfa: sp 0 + .ra: lr
STACK CFI 1609a .cfa: sp 8 + .ra: .cfa -4 + ^ r4: .cfa -8 + ^
STACK CFI INIT 160ac 1c .cfa: sp 0 + .ra: lr
STACK CFI 160b0 .cfa: sp 8 + .ra: .cfa -4 + ^ r4: .cfa -8 + ^
STACK CFI INIT 160c8 12 .cfa: sp 0 + .ra: lr
STACK CFI 160ca .cfa: sp 8 + .ra: .cfa -4 + ^ r4: .cfa -8 + ^
STACK CFI INIT 28d84 18 .cfa: sp 0 + .ra: lr
STACK CFI 28d86 .cfa: sp 8 + .ra: .cfa -4 + ^ r4: .cfa -8 + ^
STACK CFI INIT 28d9c 12 .cfa: sp 0 + .ra: lr
STACK CFI 28d9e .cfa: sp 8 + .ra: .cfa -4 + ^ r4: .cfa -8 + ^
STACK CFI INIT 28db0 18 .cfa: sp 0 + .ra: lr
STACK CFI 28db2 .cfa: sp 8 + .ra: .cfa -4 + ^ r4: .cfa -8 + ^
STACK CFI INIT 28dc8 12 .cfa: sp 0 + .ra: lr
STACK CFI 28dca .cfa: sp 8 + .ra: .cfa -4 + ^ r4: .cfa -8 + ^
STACK CFI INIT 28ddc 18 .cfa: sp 0 + .ra: lr
STACK CFI 28dde .cfa: sp 8 + .ra: .cfa -4 + ^ r4: .cfa -8 + ^
STACK CFI INIT 28df4 12 .cfa: sp 0 + .ra: lr
STACK CFI 28df6 .cfa: sp 8 + .ra: .cfa -4 + ^ r4: .cfa -8 + ^
STACK CFI INIT 28e08 18 .cfa: sp 0 + .ra: lr
STACK CFI 28e0a .cfa: sp 8 + .ra: .cfa -4 + ^ r4: .cfa -8 + ^
STACK CFI INIT 28e20 12 .cfa: sp 0 + .ra: lr
STACK CFI 28e22 .cfa: sp 8 + .ra: .cfa -4 + ^ r4: .cfa -8 + ^
STACK CFI INIT 28e34 18 .cfa: sp 0 + .ra: lr
STACK CFI 28e36 .cfa: sp 8 + .ra: .cfa -4 + ^ r4: .cfa -8 + ^
STACK CFI INIT 28e4c 12 .cfa: sp 0 + .ra: lr
STACK CFI 28e4e .cfa: sp 8 + .ra: .cfa -4 + ^ r4: .cfa -8 + ^
STACK CFI INIT 28e60 18 .cfa: sp 0 + .ra: lr
STACK CFI 28e62 .cfa: sp 8 + .ra: .cfa -4 + ^ r4: .cfa -8 + ^
STACK CFI INIT 28e78 12 .cfa: sp 0 + .ra: lr
STACK CFI 28e7a .cfa: sp 8 + .ra: .cfa -4 + ^ r4: .cfa -8 + ^
STACK CFI INIT 28e8c 18 .cfa: sp 0 + .ra: lr
STACK CFI 28e8e .cfa: sp 8 + .ra: .cfa -4 + ^ r4: .cfa -8 + ^
STACK CFI INIT 28ea4 12 .cfa: sp 0 + .ra: lr
STACK CFI 28ea6 .cfa: sp 8 + .ra: .cfa -4 + ^ r4: .cfa -8 + ^
STACK CFI INIT 28eb8 18 .cfa: sp 0 + .ra: lr
STACK CFI 28eba .cfa: sp 8 + .ra: .cfa -4 + ^ r4: .cfa -8 + ^
STACK CFI INIT 28ed0 12 .cfa: sp 0 + .ra: lr
STACK CFI 28ed2 .cfa: sp 8 + .ra: .cfa -4 + ^ r4: .cfa -8 + ^
STACK CFI INIT 28ee4 18 .cfa: sp 0 + .ra: lr
STACK CFI 28ee6 .cfa: sp 8 + .ra: .cfa -4 + ^ r4: .cfa -8 + ^
STACK CFI INIT 28efc 12 .cfa: sp 0 + .ra: lr
STACK CFI 28efe .cfa: sp 8 + .ra: .cfa -4 + ^ r4: .cfa -8 + ^
STACK CFI INIT 28f10 18 .cfa: sp 0 + .ra: lr
STACK CFI 28f12 .cfa: sp 8 + .ra: .cfa -4 + ^ r4: .cfa -8 + ^
STACK CFI INIT 28f28 12 .cfa: sp 0 + .ra: lr
STACK CFI 28f2a .cfa: sp 8 + .ra: .cfa -4 + ^ r4: .cfa -8 + ^
STACK CFI INIT 28f3c 20 .cfa: sp 0 + .ra: lr
STACK CFI 28f3e .cfa: sp 8 + .ra: .cfa -4 + ^ r4: .cfa -8 + ^
STACK CFI INIT 28f5c 20 .cfa: sp 0 + .ra: lr
STACK CFI 28f5e .cfa: sp 8 + .ra: .cfa -4 + ^ r4: .cfa -8 + ^
STACK CFI INIT 28f7c 20 .cfa: sp 0 + .ra: lr
STACK CFI 28f7e .cfa: sp 8 + .ra: .cfa -4 + ^ r4: .cfa -8 + ^
STACK CFI INIT 28f9c 20 .cfa: sp 0 + .ra: lr
STACK CFI 28f9e .cfa: sp 8 + .ra: .cfa -4 + ^ r4: .cfa -8 + ^
STACK CFI INIT 28fbc 20 .cfa: sp 0 + .ra: lr
STACK CFI 28fbe .cfa: sp 8 + .ra: .cfa -4 + ^ r4: .cfa -8 + ^
STACK CFI INIT 28fdc 20 .cfa: sp 0 + .ra: lr
STACK CFI 28fde .cfa: sp 8 + .ra: .cfa -4 + ^ r4: .cfa -8 + ^
STACK CFI INIT 28ffc 20 .cfa: sp 0 + .ra: lr
STACK CFI 28ffe .cfa: sp 8 + .ra: .cfa -4 + ^ r4: .cfa -8 + ^
STACK CFI INIT 2901c 20 .cfa: sp 0 + .ra: lr
STACK CFI 2901e .cfa: sp 8 + .ra: .cfa -4 + ^ r4: .cfa -8 + ^
STACK CFI INIT 2903c 20 .cfa: sp 0 + .ra: lr
STACK CFI 2903e .cfa: sp 8 + .ra: .cfa -4 + ^ r4: .cfa -8 + ^
STACK CFI INIT 2905c 20 .cfa: sp 0 + .ra: lr
STACK CFI 2905e .cfa: sp 8 + .ra: .cfa -4 + ^ r4: .cfa -8 + ^
STACK CFI INIT 16a6c 54 .cfa: sp 0 + .ra: lr
STACK CFI 16a70 .cfa: sp 24 + .ra: .cfa -4 + ^ r4: .cfa -24 + ^ r5: .cfa -20 + ^ r6: .cfa -16 + ^ r7: .cfa -12 + ^ r8: .cfa -8 + ^
STACK CFI INIT 2907c 116 .cfa: sp 0 + .ra: lr
STACK CFI 29080 .cfa: sp 40 + .ra: .cfa -4 + ^ r10: .cfa -12 + ^ r11: .cfa -8 + ^ r3: .cfa -40 + ^ r4: .cfa -36 + ^ r5: .cfa -32 + ^ r6: .cfa -28 + ^ r7: .cfa -24 + ^ r8: .cfa -20 + ^ r9: .cfa -16 + ^
STACK CFI INIT 1e00e 10 .cfa: sp 0 + .ra: lr
STACK CFI INIT 16ac0 18 .cfa: sp 0 + .ra: lr
STACK CFI 16ac6 .cfa: sp 8 + .ra: .cfa -4 + ^ r4: .cfa -8 + ^
STACK CFI INIT 16ad8 14 .cfa: sp 0 + .ra: lr
STACK CFI INIT 1eca4 12 .cfa: sp 0 + .ra: lr
STACK CFI 1eca6 .cfa: sp 8 + .ra: .cfa -4 + ^ r4: .cfa -8 + ^
STACK CFI INIT 1ecb8 6c .cfa: sp 0 + .ra: lr
STACK CFI 1ecba .cfa: sp 16 + .ra: .cfa -4 + ^ r4: .cfa -16 + ^ r5: .cfa -12 + ^ r6: .cfa -8 + ^
STACK CFI 1ecc0 .cfa: sp 4112 +
STACK CFI 1ecc6 .cfa: sp 4120 +
STACK CFI 1ed1a .cfa: sp 16 +
STACK CFI INIT 29194 5c .cfa: sp 0 + .ra: lr
STACK CFI 29196 .cfa: sp 24 + .ra: .cfa -4 + ^ r3: .cfa -24 + ^ r4: .cfa -20 + ^ r5: .cfa -16 + ^ r6: .cfa -12 + ^ r7: .cfa -8 + ^
STACK CFI INIT 16aec 1e .cfa: sp 0 + .ra: lr
STACK CFI 16aee .cfa: sp 8 + .ra: .cfa -4 + ^ r4: .cfa -8 + ^
STACK CFI INIT 16b0a 1e .cfa: sp 0 + .ra: lr
STACK CFI INIT 16b40 24 .cfa: sp 0 + .ra: lr
STACK CFI 16b44 .cfa: sp 8 + .ra: .cfa -4 + ^ r4: .cfa -8 + ^
STACK CFI INIT 16b64 12 .cfa: sp 0 + .ra: lr
STACK CFI 16b66 .cfa: sp 8 + .ra: .cfa -4 + ^ r4: .cfa -8 + ^
STACK CFI INIT 0 24 .cfa: sp 0 + .ra: lr
STACK CFI 2 .cfa: sp 16 + .ra: .cfa -4 + ^ r3: .cfa -16 + ^ r4: .cfa -12 + ^ r5: .cfa -8 + ^
STACK CFI INIT 291f0 150 .cfa: sp 0 + .ra: lr
STACK CFI 291f4 .cfa: sp 28 + .ra: .cfa -4 + ^ r4: .cfa -28 + ^ r5: .cfa -24 + ^ r6: .cfa -20 + ^ r7: .cfa -16 + ^ r8: .cfa -12 + ^ r9: .cfa -8 + ^
STACK CFI 291fa .cfa: sp 632 +
STACK CFI 29312 .cfa: sp 28 +
STACK CFI INIT 29340 230 .cfa: sp 0 + .ra: lr
STACK CFI 29344 .cfa: sp 32 + .ra: .cfa -4 + ^ r10: .cfa -8 + ^ r4: .cfa -32 + ^ r5: .cfa -28 + ^ r6: .cfa -24 + ^ r7: .cfa -20 + ^ r8: .cfa -16 + ^ r9: .cfa -12 + ^
STACK CFI 2934a .cfa: sp 632 +
STACK CFI 29514 .cfa: sp 32 +
STACK CFI INIT 29570 30c .cfa: sp 0 + .ra: lr
STACK CFI 29574 .cfa: sp 36 + .ra: .cfa -4 + ^ r10: .cfa -12 + ^ r11: .cfa -8 + ^ r4: .cfa -36 + ^ r5: .cfa -32 + ^ r6: .cfa -28 + ^ r7: .cfa -24 + ^ r8: .cfa -20 + ^ r9: .cfa -16 + ^
STACK CFI 2957a .cfa: sp 648 +
STACK CFI 297f6 .cfa: sp 36 +
STACK CFI INIT 2987c 230 .cfa: sp 0 + .ra: lr
STACK CFI 29880 .cfa: sp 32 + .ra: .cfa -4 + ^ r10: .cfa -8 + ^ r4: .cfa -32 + ^ r5: .cfa -28 + ^ r6: .cfa -24 + ^ r7: .cfa -20 + ^ r8: .cfa -16 + ^ r9: .cfa -12 + ^
STACK CFI 29886 .cfa: sp 632 +
STACK CFI 29a50 .cfa: sp 32 +
STACK CFI INIT 29aac 230 .cfa: sp 0 + .ra: lr
STACK CFI 29ab0 .cfa: sp 32 + .ra: .cfa -4 + ^ r10: .cfa -8 + ^ r4: .cfa -32 + ^ r5: .cfa -28 + ^ r6: .cfa -24 + ^ r7: .cfa -20 + ^ r8: .cfa -16 + ^ r9: .cfa -12 + ^
STACK CFI 29ab6 .cfa: sp 632 +
STACK CFI 29c80 .cfa: sp 32 +
STACK CFI INIT 29cdc 230 .cfa: sp 0 + .ra: lr
STACK CFI 29ce0 .cfa: sp 32 + .ra: .cfa -4 + ^ r10: .cfa -8 + ^ r4: .cfa -32 + ^ r5: .cfa -28 + ^ r6: .cfa -24 + ^ r7: .cfa -20 + ^ r8: .cfa -16 + ^ r9: .cfa -12 + ^
STACK CFI 29ce6 .cfa: sp 632 +
STACK CFI 29eb0 .cfa: sp 32 +
STACK CFI INIT 29f0c 300 .cfa: sp 0 + .ra: lr
STACK CFI 29f10 .cfa: sp 36 + .ra: .cfa -4 + ^ r10: .cfa -12 + ^ r11: .cfa -8 + ^ r4: .cfa -36 + ^ r5: .cfa -32 + ^ r6: .cfa -28 + ^ r7: .cfa -24 + ^ r8: .cfa -20 + ^ r9: .cfa -16 + ^
STACK CFI 29f16 .cfa: sp 664 +
STACK CFI 2a196 .cfa: sp 36 +
STACK CFI INIT 2a20c 230 .cfa: sp 0 + .ra: lr
STACK CFI 2a210 .cfa: sp 32 + .ra: .cfa -4 + ^ r10: .cfa -8 + ^ r4: .cfa -32 + ^ r5: .cfa -28 + ^ r6: .cfa -24 + ^ r7: .cfa -20 + ^ r8: .cfa -16 + ^ r9: .cfa -12 + ^
STACK CFI 2a216 .cfa: sp 632 +
STACK CFI 2a3e0 .cfa: sp 32 +
STACK CFI INIT 16bac 9c .cfa: sp 0 + .ra: lr
STACK CFI 16bb0 .cfa: sp 28 + .ra: .cfa -4 + ^ r4: .cfa -28 + ^ r5: .cfa -24 + ^ r6: .cfa -20 + ^ r7: .cfa -16 + ^ r8: .cfa -12 + ^ r9: .cfa -8 + ^
STACK CFI 16bbc .cfa: sp 48 +
STACK CFI 16c3e .cfa: sp 28 +
STACK CFI INIT 16c48 78 .cfa: sp 0 + .ra: lr
STACK CFI 16c4a .cfa: sp 16 + .ra: .cfa -4 + ^ r4: .cfa -16 + ^ r5: .cfa -12 + ^ r6: .cfa -8 + ^
STACK CFI INIT 16cc0 66 .cfa: sp 0 + .ra: lr
STACK CFI 16cc2 .cfa: sp 16 + .ra: .cfa -4 + ^ r4: .cfa -16 + ^ r5: .cfa -12 + ^ r6: .cfa -8 + ^
STACK CFI INIT 0 30 .cfa: sp 0 + .ra: lr
STACK CFI 2 .cfa: sp 16 + .ra: .cfa -4 + ^ r4: .cfa -8 + ^
STACK CFI 28 .cfa: sp 8 +
STACK CFI INIT 0 b4 .cfa: sp 0 + .ra: lr
STACK CFI 4 .cfa: sp 32 + .ra: .cfa -4 + ^ r3: .cfa -32 + ^ r4: .cfa -28 + ^ r5: .cfa -24 + ^ r6: .cfa -20 + ^ r7: .cfa -16 + ^ r8: .cfa -12 + ^ r9: .cfa -8 + ^
STACK CFI INIT 0 7c .cfa: sp 0 + .ra: lr
STACK CFI 2 .cfa: sp 24 + .ra: .cfa -4 + ^ r3: .cfa -24 + ^ r4: .cfa -20 + ^ r5: .cfa -16 + ^ r6: .cfa -12 + ^ r7: .cfa -8 + ^
STACK CFI INIT 1705c 54 .cfa: sp 0 + .ra: lr
STACK CFI 1705e .cfa: sp 16 + .ra: .cfa -4 + ^ r3: .cfa -16 + ^ r4: .cfa -12 + ^ r5: .cfa -8 + ^
STACK CFI INIT 170b0 8 .cfa: sp 0 + .ra: lr
STACK CFI INIT 170b8 c .cfa: sp 0 + .ra: lr
STACK CFI INIT 170c4 12 .cfa: sp 0 + .ra: lr
STACK CFI 170c6 .cfa: sp 8 + .ra: .cfa -4 + ^ r4: .cfa -8 + ^
STACK CFI INIT 170d6 c .cfa: sp 0 + .ra: lr
STACK CFI INIT 170e2 8 .cfa: sp 0 + .ra: lr
STACK CFI INIT 170ec 54 .cfa: sp 0 + .ra: lr
STACK CFI 170ee .cfa: sp 16 + .ra: .cfa -4 + ^ r3: .cfa -16 + ^ r4: .cfa -12 + ^ r5: .cfa -8 + ^
STACK CFI INIT 17140 8 .cfa: sp 0 + .ra: lr
STACK CFI INIT 17148 c .cfa: sp 0 + .ra: lr
STACK CFI INIT 17154 12 .cfa: sp 0 + .ra: lr
STACK CFI 17156 .cfa: sp 8 + .ra: .cfa -4 + ^ r4: .cfa -8 + ^
STACK CFI INIT 17166 c .cfa: sp 0 + .ra: lr
STACK CFI INIT 17172 8 .cfa: sp 0 + .ra: lr
STACK CFI INIT 1717c 8c .cfa: sp 0 + .ra: lr
STACK CFI 1717e .cfa: sp 24 + .ra: .cfa -4 + ^ r3: .cfa -24 + ^ r4: .cfa -20 + ^ r5: .cfa -16 + ^ r6: .cfa -12 + ^ r7: .cfa -8 + ^
STACK CFI INIT 17208 8 .cfa: sp 0 + .ra: lr
STACK CFI INIT 17210 80 .cfa: sp 0 + .ra: lr
STACK CFI 17212 .cfa: sp 24 + .ra: .cfa -4 + ^ r3: .cfa -24 + ^ r4: .cfa -20 + ^ r5: .cfa -16 + ^ r6: .cfa -12 + ^ r7: .cfa -8 + ^
STACK CFI INIT 17290 8 .cfa: sp 0 + .ra: lr
STACK CFI INIT 17298 8 .cfa: sp 0 + .ra: lr
STACK CFI INIT 172a0 8 .cfa: sp 0 + .ra: lr
STACK CFI INIT 172a8 c .cfa: sp 0 + .ra: lr
STACK CFI INIT 172b4 12 .cfa: sp 0 + .ra: lr
STACK CFI 172b6 .cfa: sp 8 + .ra: .cfa -4 + ^ r4: .cfa -8 + ^
STACK CFI INIT 172c6 8 .cfa: sp 0 + .ra: lr
STACK CFI INIT 172ce c .cfa: sp 0 + .ra: lr
STACK CFI INIT 1739c 8 .cfa: sp 0 + .ra: lr
STACK CFI INIT 173a4 8 .cfa: sp 0 + .ra: lr
STACK CFI INIT 173ac c .cfa: sp 0 + .ra: lr
STACK CFI INIT 173b8 12 .cfa: sp 0 + .ra: lr
STACK CFI 173ba .cfa: sp 8 + .ra: .cfa -4 + ^ r4: .cfa -8 + ^
STACK CFI INIT 173ca 8 .cfa: sp 0 + .ra: lr
STACK CFI INIT 173d2 c .cfa: sp 0 + .ra: lr
STACK CFI INIT 0 38 .cfa: sp 0 + .ra: lr
STACK CFI 2 .cfa: sp 8 + .ra: .cfa -4 + ^ r4: .cfa -8 + ^
STACK CFI INIT 176f0 3c .cfa: sp 0 + .ra: lr
STACK CFI 176f2 .cfa: sp 8 + .ra: .cfa -4 + ^ r3: .cfa -8 + ^
STACK CFI INIT 0 dc .cfa: sp 0 + .ra: lr
STACK CFI 2 .cfa: sp 20 + .ra: .cfa -4 + ^ r4: .cfa -20 + ^ r5: .cfa -16 + ^ r6: .cfa -12 + ^ r7: .cfa -8 + ^
STACK CFI 8 .cfa: sp 72 +
STACK CFI da .cfa: sp 20 +
STACK CFI INIT 0 dc .cfa: sp 0 + .ra: lr
STACK CFI 4 .cfa: sp 36 + .ra: .cfa -4 + ^ r10: .cfa -12 + ^ r11: .cfa -8 + ^ r4: .cfa -36 + ^ r5: .cfa -32 + ^ r6: .cfa -28 + ^ r7: .cfa -24 + ^ r8: .cfa -20 + ^ r9: .cfa -16 + ^
STACK CFI e .cfa: sp 264 +
STACK CFI d2 .cfa: sp 36 +
STACK CFI INIT 2a43c 294 .cfa: sp 0 + .ra: lr
STACK CFI 2a440 .cfa: sp 36 + .ra: .cfa -4 + ^ r10: .cfa -12 + ^ r11: .cfa -8 + ^ r4: .cfa -36 + ^ r5: .cfa -32 + ^ r6: .cfa -28 + ^ r7: .cfa -24 + ^ r8: .cfa -20 + ^ r9: .cfa -16 + ^
STACK CFI 2a448 .cfa: sp 640 +
STACK CFI 2a668 .cfa: sp 36 +
STACK CFI INIT 2a6d0 294 .cfa: sp 0 + .ra: lr
STACK CFI 2a6d4 .cfa: sp 36 + .ra: .cfa -4 + ^ r10: .cfa -12 + ^ r11: .cfa -8 + ^ r4: .cfa -36 + ^ r5: .cfa -32 + ^ r6: .cfa -28 + ^ r7: .cfa -24 + ^ r8: .cfa -20 + ^ r9: .cfa -16 + ^
STACK CFI 2a6dc .cfa: sp 640 +
STACK CFI 2a8fc .cfa: sp 36 +
STACK CFI INIT 0 94 .cfa: sp 0 + .ra: lr
STACK CFI 6 .cfa: sp 32 + .ra: .cfa -4 + ^ r4: .cfa -24 + ^ r5: .cfa -20 + ^ r6: .cfa -16 + ^ r7: .cfa -12 + ^ r8: .cfa -8 + ^
STACK CFI 90 .cfa: sp 24 +
STACK CFI INIT 18134 a4 .cfa: sp 0 + .ra: lr
STACK CFI 18138 .cfa: sp 32 + .ra: .cfa -4 + ^ r4: .cfa -24 + ^ r5: .cfa -20 + ^ r6: .cfa -16 + ^ r7: .cfa -12 + ^ r8: .cfa -8 + ^
STACK CFI 181d4 .cfa: sp 24 +
STACK CFI INIT 0 58 .cfa: sp 0 + .ra: lr
STACK CFI 2 .cfa: sp 32 + .ra: .cfa -4 + ^ r4: .cfa -20 + ^ r5: .cfa -16 + ^ r6: .cfa -12 + ^ r7: .cfa -8 + ^
STACK CFI 56 .cfa: sp 20 +
STACK CFI INIT 0 3c .cfa: sp 0 + .ra: lr
STACK CFI 2 .cfa: sp 16 + .ra: .cfa -4 + ^ r3: .cfa -16 + ^ r4: .cfa -12 + ^ r5: .cfa -8 + ^
STACK CFI INIT 19242 5e .cfa: sp 0 + .ra: lr
STACK CFI 19244 .cfa: sp 16 + .ra: .cfa -4 + ^ r4: .cfa -16 + ^ r5: .cfa -12 + ^ r6: .cfa -8 + ^
STACK CFI INIT 0 6c .cfa: sp 0 + .ra: lr
STACK CFI 2 .cfa: sp 16 + .ra: .cfa -4 + ^ r4: .cfa -16 + ^ r5: .cfa -12 + ^ r6: .cfa -8 + ^
STACK CFI INIT 19304 90 .cfa: sp 0 + .ra: lr
STACK CFI 19308 .cfa: sp 24 + .ra: .cfa -4 + ^ r4: .cfa -24 + ^ r5: .cfa -20 + ^ r6: .cfa -16 + ^ r7: .cfa -12 + ^ r8: .cfa -8 + ^
STACK CFI INIT 19394 84 .cfa: sp 0 + .ra: lr
STACK CFI 1939a .cfa: sp 24 + .ra: .cfa -4 + ^ r4: .cfa -24 + ^ r5: .cfa -20 + ^ r6: .cfa -16 + ^ r7: .cfa -12 + ^ r8: .cfa -8 + ^
STACK CFI INIT 14bc8 294 .cfa: sp 0 + .ra: lr
STACK CFI 14bcc .cfa: sp 40 + .ra: .cfa -4 + ^ r4: .cfa -24 + ^ r5: .cfa -20 + ^ r6: .cfa -16 + ^ r7: .cfa -12 + ^ r8: .cfa -8 + ^
STACK CFI 14dd0 .cfa: sp 24 +
STACK CFI INIT 15dc4 2 .cfa: sp 0 + .ra: lr
STACK CFI INIT 15dc6 2 .cfa: sp 0 + .ra: lr
STACK CFI INIT 15dc8 4 .cfa: sp 0 + .ra: lr
STACK CFI INIT 15ddc 6 .cfa: sp 0 + .ra: lr
STACK CFI INIT 15de2 2 .cfa: sp 0 + .ra: lr
STACK CFI INIT 0 4 .cfa: sp 0 + .ra: lr
STACK CFI INIT 15de2 2 .cfa: sp 0 + .ra: lr
STACK CFI INIT 15de2 2 .cfa: sp 0 + .ra: lr
STACK CFI INIT 15de2 2 .cfa: sp 0 + .ra: lr
STACK CFI INIT 15de4 ac .cfa: sp 0 + .ra: lr
STACK CFI 15de6 .cfa: sp 16 + .ra: .cfa -4 + ^ r4: .cfa -16 + ^ r5: .cfa -12 + ^ r6: .cfa -8 + ^
STACK CFI INIT 15e90 9e .cfa: sp 0 + .ra: lr
STACK CFI 15e92 .cfa: sp 20 + .ra: .cfa -4 + ^ r4: .cfa -20 + ^ r5: .cfa -16 + ^ r6: .cfa -12 + ^ r7: .cfa -8 + ^
STACK CFI 15e94 .cfa: sp 40 +
STACK CFI 15f2c .cfa: sp 20 +
STACK CFI INIT 0 4 .cfa: sp 0 + .ra: lr
STACK CFI INIT 15f2e 10 .cfa: sp 0 + .ra: lr
STACK CFI INIT 15f3e 16 .cfa: sp 0 + .ra: lr
STACK CFI INIT 15f54 3e .cfa: sp 0 + .ra: lr
STACK CFI 15f56 .cfa: sp 8 + .ra: .cfa -4 + ^ r4: .cfa -8 + ^
STACK CFI INIT 0 2 .cfa: sp 0 + .ra: lr
STACK CFI INIT 15f92 c .cfa: sp 0 + .ra: lr
STACK CFI INIT 15f9e 1a .cfa: sp 0 + .ra: lr
STACK CFI 15fa0 .cfa: sp 16 + .ra: .cfa -4 + ^
STACK CFI 15fb4 .cfa: sp 4 +
STACK CFI INIT 0 6 .cfa: sp 0 + .ra: lr
STACK CFI INIT 15fb8 18 .cfa: sp 0 + .ra: lr
STACK CFI 15fba .cfa: sp 8 + .ra: .cfa -4 + ^ r4: .cfa -8 + ^
STACK CFI INIT 0 6 .cfa: sp 0 + .ra: lr
STACK CFI INIT 15fd0 c .cfa: sp 0 + .ra: lr
STACK CFI 15fd2 .cfa: sp 8 + .ra: .cfa -4 + ^ r4: .cfa -8 + ^
STACK CFI INIT 15fd0 c .cfa: sp 0 + .ra: lr
STACK CFI 15fd2 .cfa: sp 8 + .ra: .cfa -4 + ^ r4: .cfa -8 + ^
STACK CFI INIT 15fd0 c .cfa: sp 0 + .ra: lr
STACK CFI 15fd2 .cfa: sp 8 + .ra: .cfa -4 + ^ r4: .cfa -8 + ^
STACK CFI INIT 16030 4c .cfa: sp 0 + .ra: lr
STACK CFI 16034 .cfa: sp 24 + .ra: .cfa -4 + ^ r4: .cfa -24 + ^ r5: .cfa -20 + ^ r6: .cfa -16 + ^ r7: .cfa -12 + ^ r8: .cfa -8 + ^
STACK CFI INIT 15fdc 54 .cfa: sp 0 + .ra: lr
STACK CFI 15fe0 .cfa: sp 24 + .ra: .cfa -4 + ^ r4: .cfa -24 + ^ r5: .cfa -20 + ^ r6: .cfa -16 + ^ r7: .cfa -12 + ^ r8: .cfa -8 + ^
STACK CFI INIT 1607c 1c .cfa: sp 0 + .ra: lr
STACK CFI 16080 .cfa: sp 8 + .ra: .cfa -4 + ^ r4: .cfa -8 + ^
STACK CFI INIT 16098 12 .cfa: sp 0 + .ra: lr
STACK CFI 1609a .cfa: sp 8 + .ra: .cfa -4 + ^ r4: .cfa -8 + ^
STACK CFI INIT 160ac 1c .cfa: sp 0 + .ra: lr
STACK CFI 160b0 .cfa: sp 8 + .ra: .cfa -4 + ^ r4: .cfa -8 + ^
STACK CFI INIT 160c8 12 .cfa: sp 0 + .ra: lr
STACK CFI 160ca .cfa: sp 8 + .ra: .cfa -4 + ^ r4: .cfa -8 + ^
STACK CFI INIT 2a964 18 .cfa: sp 0 + .ra: lr
STACK CFI 2a966 .cfa: sp 8 + .ra: .cfa -4 + ^ r4: .cfa -8 + ^
STACK CFI INIT 2a97c 12 .cfa: sp 0 + .ra: lr
STACK CFI 2a97e .cfa: sp 8 + .ra: .cfa -4 + ^ r4: .cfa -8 + ^
STACK CFI INIT 2a990 18 .cfa: sp 0 + .ra: lr
STACK CFI 2a992 .cfa: sp 8 + .ra: .cfa -4 + ^ r4: .cfa -8 + ^
STACK CFI INIT 2a9a8 12 .cfa: sp 0 + .ra: lr
STACK CFI 2a9aa .cfa: sp 8 + .ra: .cfa -4 + ^ r4: .cfa -8 + ^
STACK CFI INIT 2a9bc 18 .cfa: sp 0 + .ra: lr
STACK CFI 2a9be .cfa: sp 8 + .ra: .cfa -4 + ^ r4: .cfa -8 + ^
STACK CFI INIT 2a9d4 12 .cfa: sp 0 + .ra: lr
STACK CFI 2a9d6 .cfa: sp 8 + .ra: .cfa -4 + ^ r4: .cfa -8 + ^
STACK CFI INIT 2a9e8 20 .cfa: sp 0 + .ra: lr
STACK CFI 2a9ea .cfa: sp 8 + .ra: .cfa -4 + ^ r4: .cfa -8 + ^
STACK CFI INIT 2aa08 20 .cfa: sp 0 + .ra: lr
STACK CFI 2aa0a .cfa: sp 8 + .ra: .cfa -4 + ^ r4: .cfa -8 + ^
STACK CFI INIT 2aa28 20 .cfa: sp 0 + .ra: lr
STACK CFI 2aa2a .cfa: sp 8 + .ra: .cfa -4 + ^ r4: .cfa -8 + ^
STACK CFI INIT 16a6c 54 .cfa: sp 0 + .ra: lr
STACK CFI 16a70 .cfa: sp 24 + .ra: .cfa -4 + ^ r4: .cfa -24 + ^ r5: .cfa -20 + ^ r6: .cfa -16 + ^ r7: .cfa -12 + ^ r8: .cfa -8 + ^
STACK CFI INIT 1e00e 10 .cfa: sp 0 + .ra: lr
STACK CFI INIT 16ac0 18 .cfa: sp 0 + .ra: lr
STACK CFI 16ac6 .cfa: sp 8 + .ra: .cfa -4 + ^ r4: .cfa -8 + ^
STACK CFI INIT 16ad8 14 .cfa: sp 0 + .ra: lr
STACK CFI INIT 16aec 1e .cfa: sp 0 + .ra: lr
STACK CFI 16aee .cfa: sp 8 + .ra: .cfa -4 + ^ r4: .cfa -8 + ^
STACK CFI INIT 2aa48 30 .cfa: sp 0 + .ra: lr
STACK CFI 2aa4a .cfa: sp 12 + .ra: .cfa -4 + ^ r4: .cfa -12 + ^ r5: .cfa -8 + ^
STACK CFI 2aa4e .cfa: sp 48 +
STACK CFI 2aa76 .cfa: sp 12 +
STACK CFI INIT 2aa78 74 .cfa: sp 0 + .ra: lr
STACK CFI 2aa7a .cfa: sp 12 + .ra: .cfa -4 + ^ r4: .cfa -12 + ^ r5: .cfa -8 + ^
STACK CFI INIT 16b0a 1e .cfa: sp 0 + .ra: lr
STACK CFI INIT 16b40 24 .cfa: sp 0 + .ra: lr
STACK CFI 16b44 .cfa: sp 8 + .ra: .cfa -4 + ^ r4: .cfa -8 + ^
STACK CFI INIT 16b64 12 .cfa: sp 0 + .ra: lr
STACK CFI 16b66 .cfa: sp 8 + .ra: .cfa -4 + ^ r4: .cfa -8 + ^
STACK CFI INIT 0 24 .cfa: sp 0 + .ra: lr
STACK CFI 2 .cfa: sp 16 + .ra: .cfa -4 + ^ r3: .cfa -16 + ^ r4: .cfa -12 + ^ r5: .cfa -8 + ^
STACK CFI INIT 16bac 9c .cfa: sp 0 + .ra: lr
STACK CFI 16bb0 .cfa: sp 28 + .ra: .cfa -4 + ^ r4: .cfa -28 + ^ r5: .cfa -24 + ^ r6: .cfa -20 + ^ r7: .cfa -16 + ^ r8: .cfa -12 + ^ r9: .cfa -8 + ^
STACK CFI 16bbc .cfa: sp 48 +
STACK CFI 16c3e .cfa: sp 28 +
STACK CFI INIT 16c48 78 .cfa: sp 0 + .ra: lr
STACK CFI 16c4a .cfa: sp 16 + .ra: .cfa -4 + ^ r4: .cfa -16 + ^ r5: .cfa -12 + ^ r6: .cfa -8 + ^
STACK CFI INIT 16cc0 66 .cfa: sp 0 + .ra: lr
STACK CFI 16cc2 .cfa: sp 16 + .ra: .cfa -4 + ^ r4: .cfa -16 + ^ r5: .cfa -12 + ^ r6: .cfa -8 + ^
STACK CFI INIT 16d6e 1c .cfa: sp 0 + .ra: lr
STACK CFI 16d70 .cfa: sp 8 + .ra: .cfa -4 + ^ r3: .cfa -8 + ^
STACK CFI INIT 0 30 .cfa: sp 0 + .ra: lr
STACK CFI 2 .cfa: sp 16 + .ra: .cfa -4 + ^ r4: .cfa -8 + ^
STACK CFI 28 .cfa: sp 8 +
STACK CFI INIT 16f88 28 .cfa: sp 0 + .ra: lr
STACK CFI 16f8a .cfa: sp 16 + .ra: .cfa -4 + ^ r4: .cfa -16 + ^ r5: .cfa -12 + ^ r6: .cfa -8 + ^
STACK CFI INIT 0 7c .cfa: sp 0 + .ra: lr
STACK CFI 2 .cfa: sp 24 + .ra: .cfa -4 + ^ r3: .cfa -24 + ^ r4: .cfa -20 + ^ r5: .cfa -16 + ^ r6: .cfa -12 + ^ r7: .cfa -8 + ^
STACK CFI INIT 0 b4 .cfa: sp 0 + .ra: lr
STACK CFI 4 .cfa: sp 32 + .ra: .cfa -4 + ^ r3: .cfa -32 + ^ r4: .cfa -28 + ^ r5: .cfa -24 + ^ r6: .cfa -20 + ^ r7: .cfa -16 + ^ r8: .cfa -12 + ^ r9: .cfa -8 + ^
STACK CFI INIT 1705c 54 .cfa: sp 0 + .ra: lr
STACK CFI 1705e .cfa: sp 16 + .ra: .cfa -4 + ^ r3: .cfa -16 + ^ r4: .cfa -12 + ^ r5: .cfa -8 + ^
STACK CFI INIT 170b0 8 .cfa: sp 0 + .ra: lr
STACK CFI INIT 170b8 c .cfa: sp 0 + .ra: lr
STACK CFI INIT 170c4 12 .cfa: sp 0 + .ra: lr
STACK CFI 170c6 .cfa: sp 8 + .ra: .cfa -4 + ^ r4: .cfa -8 + ^
STACK CFI INIT 170d6 c .cfa: sp 0 + .ra: lr
STACK CFI INIT 170e2 8 .cfa: sp 0 + .ra: lr
STACK CFI INIT 170ec 54 .cfa: sp 0 + .ra: lr
STACK CFI 170ee .cfa: sp 16 + .ra: .cfa -4 + ^ r3: .cfa -16 + ^ r4: .cfa -12 + ^ r5: .cfa -8 + ^
STACK CFI INIT 17140 8 .cfa: sp 0 + .ra: lr
STACK CFI INIT 17148 c .cfa: sp 0 + .ra: lr
STACK CFI INIT 17154 12 .cfa: sp 0 + .ra: lr
STACK CFI 17156 .cfa: sp 8 + .ra: .cfa -4 + ^ r4: .cfa -8 + ^
STACK CFI INIT 17166 c .cfa: sp 0 + .ra: lr
STACK CFI INIT 17172 8 .cfa: sp 0 + .ra: lr
STACK CFI INIT 1717c 8c .cfa: sp 0 + .ra: lr
STACK CFI 1717e .cfa: sp 24 + .ra: .cfa -4 + ^ r3: .cfa -24 + ^ r4: .cfa -20 + ^ r5: .cfa -16 + ^ r6: .cfa -12 + ^ r7: .cfa -8 + ^
STACK CFI INIT 17208 8 .cfa: sp 0 + .ra: lr
STACK CFI INIT 17210 80 .cfa: sp 0 + .ra: lr
STACK CFI 17212 .cfa: sp 24 + .ra: .cfa -4 + ^ r3: .cfa -24 + ^ r4: .cfa -20 + ^ r5: .cfa -16 + ^ r6: .cfa -12 + ^ r7: .cfa -8 + ^
STACK CFI INIT 17290 8 .cfa: sp 0 + .ra: lr
STACK CFI INIT 17298 8 .cfa: sp 0 + .ra: lr
STACK CFI INIT 172a0 8 .cfa: sp 0 + .ra: lr
STACK CFI INIT 172a8 c .cfa: sp 0 + .ra: lr
STACK CFI INIT 172b4 12 .cfa: sp 0 + .ra: lr
STACK CFI 172b6 .cfa: sp 8 + .ra: .cfa -4 + ^ r4: .cfa -8 + ^
STACK CFI INIT 172c6 8 .cfa: sp 0 + .ra: lr
STACK CFI INIT 172ce c .cfa: sp 0 + .ra: lr
STACK CFI INIT 1739c 8 .cfa: sp 0 + .ra: lr
STACK CFI INIT 173a4 8 .cfa: sp 0 + .ra: lr
STACK CFI INIT 173ac c .cfa: sp 0 + .ra: lr
STACK CFI INIT 173b8 12 .cfa: sp 0 + .ra: lr
STACK CFI 173ba .cfa: sp 8 + .ra: .cfa -4 + ^ r4: .cfa -8 + ^
STACK CFI INIT 173ca 8 .cfa: sp 0 + .ra: lr
STACK CFI INIT 173d2 c .cfa: sp 0 + .ra: lr
STACK CFI INIT 173de 2c .cfa: sp 0 + .ra: lr
STACK CFI 173e0 .cfa: sp 8 + .ra: .cfa -4 + ^ r4: .cfa -8 + ^
STACK CFI INIT 1740a 40 .cfa: sp 0 + .ra: lr
STACK CFI 1740c .cfa: sp 8 + .ra: .cfa -4 + ^ r4: .cfa -8 + ^
STACK CFI INIT 1744a 24 .cfa: sp 0 + .ra: lr
STACK CFI 1744c .cfa: sp 8 + .ra: .cfa -4 + ^ r4: .cfa -8 + ^
STACK CFI INIT 0 b8 .cfa: sp 0 + .ra: lr
STACK CFI 2 .cfa: sp 32 + .ra: .cfa -4 + ^ r4: .cfa -20 + ^ r5: .cfa -16 + ^ r6: .cfa -12 + ^ r7: .cfa -8 + ^
STACK CFI b6 .cfa: sp 20 +
STACK CFI INIT 0 98 .cfa: sp 0 + .ra: lr
STACK CFI 2 .cfa: sp 20 + .ra: .cfa -4 + ^ r4: .cfa -20 + ^ r5: .cfa -16 + ^ r6: .cfa -12 + ^ r7: .cfa -8 + ^
STACK CFI 4 .cfa: sp 80 +
STACK CFI 96 .cfa: sp 20 +
STACK CFI INIT 2aaec 2c .cfa: sp 0 + .ra: lr
STACK CFI 2aaee .cfa: sp 16 + .ra: .cfa -4 + ^ r3: .cfa -16 + ^ r4: .cfa -12 + ^ r5: .cfa -8 + ^
STACK CFI 2aaf8 .cfa: sp 0 + .ra: .ra r3: r3 r4: r4 r5: r5
STACK CFI 2ab02 .cfa: sp 16 + .ra: .cfa -4 + ^ r3: .cfa -16 + ^ r4: .cfa -12 + ^ r5: .cfa -8 + ^
STACK CFI 2ab10 .cfa: sp 0 + .ra: .ra r3: r3 r4: r4 r5: r5
STACK CFI INIT 2aaec 2c .cfa: sp 0 + .ra: lr
STACK CFI 2aaee .cfa: sp 16 + .ra: .cfa -4 + ^ r3: .cfa -16 + ^ r4: .cfa -12 + ^ r5: .cfa -8 + ^
STACK CFI 2aaf8 .cfa: sp 0 + .ra: .ra r3: r3 r4: r4 r5: r5
STACK CFI 2ab02 .cfa: sp 16 + .ra: .cfa -4 + ^ r3: .cfa -16 + ^ r4: .cfa -12 + ^ r5: .cfa -8 + ^
STACK CFI 2ab10 .cfa: sp 0 + .ra: .ra r3: r3 r4: r4 r5: r5
STACK CFI INIT 0 98 .cfa: sp 0 + .ra: lr
STACK CFI 2 .cfa: sp 20 + .ra: .cfa -4 + ^ r4: .cfa -20 + ^ r5: .cfa -16 + ^ r6: .cfa -12 + ^ r7: .cfa -8 + ^
STACK CFI 4 .cfa: sp 80 +
STACK CFI 96 .cfa: sp 20 +
STACK CFI INIT 176da 16 .cfa: sp 0 + .ra: lr
STACK CFI INIT 176f0 3c .cfa: sp 0 + .ra: lr
STACK CFI 176f2 .cfa: sp 8 + .ra: .cfa -4 + ^ r3: .cfa -8 + ^
STACK CFI INIT 0 d0 .cfa: sp 0 + .ra: lr
STACK CFI 6 .cfa: sp 32 + .ra: .cfa -4 + ^ r4: .cfa -24 + ^ r5: .cfa -20 + ^ r6: .cfa -16 + ^ r7: .cfa -12 + ^ r8: .cfa -8 + ^
STACK CFI cc .cfa: sp 24 +
STACK CFI INIT 0 1ec .cfa: sp 0 + .ra: lr
STACK CFI 4 .cfa: sp 32 + .ra: .cfa -4 + ^ r10: .cfa -8 + ^ r4: .cfa -32 + ^ r5: .cfa -28 + ^ r6: .cfa -24 + ^ r7: .cfa -20 + ^ r8: .cfa -16 + ^ r9: .cfa -12 + ^
STACK CFI 16 .cfa: sp 208 +
STACK CFI 1c2 .cfa: sp 32 +
STACK CFI INIT 20330 98 .cfa: sp 0 + .ra: lr
STACK CFI 20332 .cfa: sp 20 + .ra: .cfa -4 + ^ r4: .cfa -20 + ^ r5: .cfa -16 + ^ r6: .cfa -12 + ^ r7: .cfa -8 + ^
STACK CFI 20334 .cfa: sp 80 +
STACK CFI 203c6 .cfa: sp 20 +
STACK CFI INIT 2ab18 a0 .cfa: sp 0 + .ra: lr
STACK CFI 2ab1c .cfa: sp 36 + .ra: .cfa -4 + ^ r10: .cfa -12 + ^ r11: .cfa -8 + ^ r4: .cfa -36 + ^ r5: .cfa -32 + ^ r6: .cfa -28 + ^ r7: .cfa -24 + ^ r8: .cfa -20 + ^ r9: .cfa -16 + ^
STACK CFI 2ab26 .cfa: sp 264 +
STACK CFI 2abb0 .cfa: sp 36 +
STACK CFI INIT 2127c a0 .cfa: sp 0 + .ra: lr
STACK CFI 21280 .cfa: sp 36 + .ra: .cfa -4 + ^ r10: .cfa -12 + ^ r11: .cfa -8 + ^ r4: .cfa -36 + ^ r5: .cfa -32 + ^ r6: .cfa -28 + ^ r7: .cfa -24 + ^ r8: .cfa -20 + ^ r9: .cfa -16 + ^
STACK CFI 2128a .cfa: sp 264 +
STACK CFI 21314 .cfa: sp 36 +
STACK CFI INIT 0 20 .cfa: sp 0 + .ra: lr
STACK CFI 2 .cfa: sp 32 + .ra: .cfa -4 + ^ r4: .cfa -20 + ^ r5: .cfa -16 + ^ r6: .cfa -12 + ^ r7: .cfa -8 + ^
STACK CFI 1e .cfa: sp 20 +
STACK CFI INIT 2ab18 a0 .cfa: sp 0 + .ra: lr
STACK CFI 2ab1c .cfa: sp 36 + .ra: .cfa -4 + ^ r10: .cfa -12 + ^ r11: .cfa -8 + ^ r4: .cfa -36 + ^ r5: .cfa -32 + ^ r6: .cfa -28 + ^ r7: .cfa -24 + ^ r8: .cfa -20 + ^ r9: .cfa -16 + ^
STACK CFI 2ab26 .cfa: sp 264 +
STACK CFI 2abb0 .cfa: sp 36 +
STACK CFI INIT 2abb8 2fc .cfa: sp 0 + .ra: lr
STACK CFI 2abbc .cfa: sp 28 + .ra: .cfa -4 + ^ r4: .cfa -28 + ^ r5: .cfa -24 + ^ r6: .cfa -20 + ^ r7: .cfa -16 + ^ r8: .cfa -12 + ^ r9: .cfa -8 + ^
STACK CFI 2abc2 .cfa: sp 112 +
STACK CFI 2ae5a .cfa: sp 28 +
STACK CFI INIT 2aeb4 20 .cfa: sp 0 + .ra: lr
STACK CFI 2aeb6 .cfa: sp 16 + .ra: .cfa -4 + ^ r4: .cfa -16 + ^ r5: .cfa -12 + ^ r6: .cfa -8 + ^
STACK CFI INIT 2aed4 1a .cfa: sp 0 + .ra: lr
STACK CFI 2aed8 .cfa: sp 8 + .ra: .cfa -4 + ^ r4: .cfa -8 + ^
STACK CFI INIT 0 a0 .cfa: sp 0 + .ra: lr
STACK CFI 4 .cfa: sp 36 + .ra: .cfa -4 + ^ r10: .cfa -12 + ^ r11: .cfa -8 + ^ r4: .cfa -36 + ^ r5: .cfa -32 + ^ r6: .cfa -28 + ^ r7: .cfa -24 + ^ r8: .cfa -20 + ^ r9: .cfa -16 + ^
STACK CFI e .cfa: sp 264 +
STACK CFI 98 .cfa: sp 36 +
STACK CFI INIT 0 8a .cfa: sp 0 + .ra: lr
STACK CFI 6 .cfa: sp 32 + .ra: .cfa -4 + ^ r4: .cfa -24 + ^ r5: .cfa -20 + ^ r6: .cfa -16 + ^ r7: .cfa -12 + ^ r8: .cfa -8 + ^
STACK CFI 86 .cfa: sp 24 +
STACK CFI INIT 17ba4 46 .cfa: sp 0 + .ra: lr
STACK CFI 17ba6 .cfa: sp 32 + .ra: .cfa -4 + ^ r4: .cfa -20 + ^ r5: .cfa -16 + ^ r6: .cfa -12 + ^ r7: .cfa -8 + ^
STACK CFI 17be8 .cfa: sp 20 +
STACK CFI INIT 17bec 2c8 .cfa: sp 0 + .ra: lr
STACK CFI 17bf0 .cfa: sp 36 + .ra: .cfa -4 + ^ r10: .cfa -12 + ^ r11: .cfa -8 + ^ r4: .cfa -36 + ^ r5: .cfa -32 + ^ r6: .cfa -28 + ^ r7: .cfa -24 + ^ r8: .cfa -20 + ^ r9: .cfa -16 + ^
STACK CFI 17bf4 .cfa: sp 256 +
STACK CFI 17e60 .cfa: sp 36 +
STACK CFI INIT 2aef0 f5c .cfa: sp 0 + .ra: lr
STACK CFI 2aef4 .cfa: sp 36 + .ra: .cfa -4 + ^ r10: .cfa -12 + ^ r11: .cfa -8 + ^ r4: .cfa -36 + ^ r5: .cfa -32 + ^ r6: .cfa -28 + ^ r7: .cfa -24 + ^ r8: .cfa -20 + ^ r9: .cfa -16 + ^
STACK CFI 2aefa .cfa: sp 240 +
STACK CFI 2be36 .cfa: sp 36 +
STACK CFI INIT 18134 a4 .cfa: sp 0 + .ra: lr
STACK CFI 18138 .cfa: sp 32 + .ra: .cfa -4 + ^ r4: .cfa -24 + ^ r5: .cfa -20 + ^ r6: .cfa -16 + ^ r7: .cfa -12 + ^ r8: .cfa -8 + ^
STACK CFI 181d4 .cfa: sp 24 +
STACK CFI INIT 20424 2c .cfa: sp 0 + .ra: lr
STACK CFI INIT 20450 2c .cfa: sp 0 + .ra: lr
STACK CFI INIT 2047c 9e .cfa: sp 0 + .ra: lr
STACK CFI 20480 .cfa: sp 24 + .ra: .cfa -4 + ^ r4: .cfa -24 + ^ r5: .cfa -20 + ^ r6: .cfa -16 + ^ r7: .cfa -12 + ^ r8: .cfa -8 + ^
STACK CFI INIT 2be4c 98 .cfa: sp 0 + .ra: lr
STACK CFI 2be50 .cfa: sp 32 + .ra: .cfa -4 + ^ r4: .cfa -24 + ^ r5: .cfa -20 + ^ r6: .cfa -16 + ^ r7: .cfa -12 + ^ r8: .cfa -8 + ^
STACK CFI 2bee0 .cfa: sp 24 +
STACK CFI INIT 2bee4 8e .cfa: sp 0 + .ra: lr
STACK CFI 2bee6 .cfa: sp 32 + .ra: .cfa -4 + ^ r4: .cfa -16 + ^ r5: .cfa -12 + ^ r6: .cfa -8 + ^
STACK CFI 2bf70 .cfa: sp 16 +
STACK CFI INIT 2bf74 858 .cfa: sp 0 + .ra: lr
STACK CFI 2bf78 .cfa: sp 36 + .ra: .cfa -4 + ^ r10: .cfa -12 + ^ r11: .cfa -8 + ^ r4: .cfa -36 + ^ r5: .cfa -32 + ^ r6: .cfa -28 + ^ r7: .cfa -24 + ^ r8: .cfa -20 + ^ r9: .cfa -16 + ^
STACK CFI 2bf88 .cfa: sp 384 +
STACK CFI 2c6ec .cfa: sp 36 +
STACK CFI INIT 0 58 .cfa: sp 0 + .ra: lr
STACK CFI 2 .cfa: sp 32 + .ra: .cfa -4 + ^ r4: .cfa -20 + ^ r5: .cfa -16 + ^ r6: .cfa -12 + ^ r7: .cfa -8 + ^
STACK CFI 56 .cfa: sp 20 +
STACK CFI INIT 19212 30 .cfa: sp 0 + .ra: lr
STACK CFI 19214 .cfa: sp 16 + .ra: .cfa -4 + ^ r3: .cfa -16 + ^ r4: .cfa -12 + ^ r5: .cfa -8 + ^
STACK CFI INIT 19242 5e .cfa: sp 0 + .ra: lr
STACK CFI 19244 .cfa: sp 16 + .ra: .cfa -4 + ^ r4: .cfa -16 + ^ r5: .cfa -12 + ^ r6: .cfa -8 + ^
STACK CFI INIT 192a0 64 .cfa: sp 0 + .ra: lr
STACK CFI 192a2 .cfa: sp 16 + .ra: .cfa -4 + ^ r4: .cfa -16 + ^ r5: .cfa -12 + ^ r6: .cfa -8 + ^
STACK CFI INIT 19304 90 .cfa: sp 0 + .ra: lr
STACK CFI 19308 .cfa: sp 24 + .ra: .cfa -4 + ^ r4: .cfa -24 + ^ r5: .cfa -20 + ^ r6: .cfa -16 + ^ r7: .cfa -12 + ^ r8: .cfa -8 + ^
STACK CFI INIT 19394 84 .cfa: sp 0 + .ra: lr
STACK CFI 1939a .cfa: sp 24 + .ra: .cfa -4 + ^ r4: .cfa -24 + ^ r5: .cfa -20 + ^ r6: .cfa -16 + ^ r7: .cfa -12 + ^ r8: .cfa -8 + ^
STACK CFI INIT 14e5c dc .cfa: sp 0 + .ra: lr
STACK CFI 14e5e .cfa: sp 20 + .ra: .cfa -4 + ^ r4: .cfa -20 + ^ r5: .cfa -16 + ^ r6: .cfa -12 + ^ r7: .cfa -8 + ^
STACK CFI 14e60 .cfa: sp 40 +
STACK CFI 14f04 .cfa: sp 20 +
STACK CFI INIT 15dc4 2 .cfa: sp 0 + .ra: lr
STACK CFI INIT 15dc6 2 .cfa: sp 0 + .ra: lr
STACK CFI INIT 15dc8 4 .cfa: sp 0 + .ra: lr
STACK CFI INIT 15ddc 6 .cfa: sp 0 + .ra: lr
STACK CFI INIT 15de2 2 .cfa: sp 0 + .ra: lr
STACK CFI INIT 0 4 .cfa: sp 0 + .ra: lr
STACK CFI INIT 15de2 2 .cfa: sp 0 + .ra: lr
STACK CFI INIT 15de2 2 .cfa: sp 0 + .ra: lr
STACK CFI INIT 15de2 2 .cfa: sp 0 + .ra: lr
STACK CFI INIT 15de2 2 .cfa: sp 0 + .ra: lr
STACK CFI INIT 15de2 2 .cfa: sp 0 + .ra: lr
STACK CFI INIT 15de2 2 .cfa: sp 0 + .ra: lr
STACK CFI INIT 15de2 2 .cfa: sp 0 + .ra: lr
STACK CFI INIT 15de2 2 .cfa: sp 0 + .ra: lr
STACK CFI INIT 15de4 ac .cfa: sp 0 + .ra: lr
STACK CFI 15de6 .cfa: sp 16 + .ra: .cfa -4 + ^ r4: .cfa -16 + ^ r5: .cfa -12 + ^ r6: .cfa -8 + ^
STACK CFI INIT 15e90 9e .cfa: sp 0 + .ra: lr
STACK CFI 15e92 .cfa: sp 20 + .ra: .cfa -4 + ^ r4: .cfa -20 + ^ r5: .cfa -16 + ^ r6: .cfa -12 + ^ r7: .cfa -8 + ^
STACK CFI 15e94 .cfa: sp 40 +
STACK CFI 15f2c .cfa: sp 20 +
STACK CFI INIT 0 4 .cfa: sp 0 + .ra: lr
STACK CFI INIT 15f2e 10 .cfa: sp 0 + .ra: lr
STACK CFI INIT 15f3e 16 .cfa: sp 0 + .ra: lr
STACK CFI INIT 15f54 3e .cfa: sp 0 + .ra: lr
STACK CFI 15f56 .cfa: sp 8 + .ra: .cfa -4 + ^ r4: .cfa -8 + ^
STACK CFI INIT 0 2 .cfa: sp 0 + .ra: lr
STACK CFI INIT 15f92 c .cfa: sp 0 + .ra: lr
STACK CFI INIT 15f9e 1a .cfa: sp 0 + .ra: lr
STACK CFI 15fa0 .cfa: sp 16 + .ra: .cfa -4 + ^
STACK CFI 15fb4 .cfa: sp 4 +
STACK CFI INIT 0 6 .cfa: sp 0 + .ra: lr
STACK CFI INIT 15fb8 18 .cfa: sp 0 + .ra: lr
STACK CFI 15fba .cfa: sp 8 + .ra: .cfa -4 + ^ r4: .cfa -8 + ^
STACK CFI INIT 0 6 .cfa: sp 0 + .ra: lr
STACK CFI INIT 15fdc 54 .cfa: sp 0 + .ra: lr
STACK CFI 15fe0 .cfa: sp 24 + .ra: .cfa -4 + ^ r4: .cfa -24 + ^ r5: .cfa -20 + ^ r6: .cfa -16 + ^ r7: .cfa -12 + ^ r8: .cfa -8 + ^
STACK CFI INIT 15fd0 c .cfa: sp 0 + .ra: lr
STACK CFI 15fd2 .cfa: sp 8 + .ra: .cfa -4 + ^ r4: .cfa -8 + ^
STACK CFI INIT 15fd0 c .cfa: sp 0 + .ra: lr
STACK CFI 15fd2 .cfa: sp 8 + .ra: .cfa -4 + ^ r4: .cfa -8 + ^
STACK CFI INIT 15fd0 c .cfa: sp 0 + .ra: lr
STACK CFI 15fd2 .cfa: sp 8 + .ra: .cfa -4 + ^ r4: .cfa -8 + ^
STACK CFI INIT 15fd0 c .cfa: sp 0 + .ra: lr
STACK CFI 15fd2 .cfa: sp 8 + .ra: .cfa -4 + ^ r4: .cfa -8 + ^
STACK CFI INIT 15fd0 c .cfa: sp 0 + .ra: lr
STACK CFI 15fd2 .cfa: sp 8 + .ra: .cfa -4 + ^ r4: .cfa -8 + ^
STACK CFI INIT 15fd0 c .cfa: sp 0 + .ra: lr
STACK CFI 15fd2 .cfa: sp 8 + .ra: .cfa -4 + ^ r4: .cfa -8 + ^
STACK CFI INIT 15fd0 c .cfa: sp 0 + .ra: lr
STACK CFI 15fd2 .cfa: sp 8 + .ra: .cfa -4 + ^ r4: .cfa -8 + ^
STACK CFI INIT 15fd0 c .cfa: sp 0 + .ra: lr
STACK CFI 15fd2 .cfa: sp 8 + .ra: .cfa -4 + ^ r4: .cfa -8 + ^
STACK CFI INIT 1607c 1c .cfa: sp 0 + .ra: lr
STACK CFI 16080 .cfa: sp 8 + .ra: .cfa -4 + ^ r4: .cfa -8 + ^
STACK CFI INIT 16098 12 .cfa: sp 0 + .ra: lr
STACK CFI 1609a .cfa: sp 8 + .ra: .cfa -4 + ^ r4: .cfa -8 + ^
STACK CFI INIT 16030 4c .cfa: sp 0 + .ra: lr
STACK CFI 16034 .cfa: sp 24 + .ra: .cfa -4 + ^ r4: .cfa -24 + ^ r5: .cfa -20 + ^ r6: .cfa -16 + ^ r7: .cfa -12 + ^ r8: .cfa -8 + ^
STACK CFI INIT 160ac 1c .cfa: sp 0 + .ra: lr
STACK CFI 160b0 .cfa: sp 8 + .ra: .cfa -4 + ^ r4: .cfa -8 + ^
STACK CFI INIT 160c8 12 .cfa: sp 0 + .ra: lr
STACK CFI 160ca .cfa: sp 8 + .ra: .cfa -4 + ^ r4: .cfa -8 + ^
STACK CFI INIT 2c7cc 28 .cfa: sp 0 + .ra: lr
STACK CFI 2c7ce .cfa: sp 8 + .ra: .cfa -4 + ^ r4: .cfa -8 + ^
STACK CFI INIT 2c7f4 28 .cfa: sp 0 + .ra: lr
STACK CFI 2c7f6 .cfa: sp 8 + .ra: .cfa -4 + ^ r4: .cfa -8 + ^
STACK CFI INIT 2c81c 28 .cfa: sp 0 + .ra: lr
STACK CFI 2c81e .cfa: sp 8 + .ra: .cfa -4 + ^ r4: .cfa -8 + ^
STACK CFI INIT 2c844 28 .cfa: sp 0 + .ra: lr
STACK CFI 2c846 .cfa: sp 8 + .ra: .cfa -4 + ^ r4: .cfa -8 + ^
STACK CFI INIT 2c86c 28 .cfa: sp 0 + .ra: lr
STACK CFI 2c86e .cfa: sp 8 + .ra: .cfa -4 + ^ r4: .cfa -8 + ^
STACK CFI INIT 2c894 28 .cfa: sp 0 + .ra: lr
STACK CFI 2c896 .cfa: sp 8 + .ra: .cfa -4 + ^ r4: .cfa -8 + ^
STACK CFI INIT 2c8bc 28 .cfa: sp 0 + .ra: lr
STACK CFI 2c8be .cfa: sp 8 + .ra: .cfa -4 + ^ r4: .cfa -8 + ^
STACK CFI INIT 2c8e4 28 .cfa: sp 0 + .ra: lr
STACK CFI 2c8e6 .cfa: sp 8 + .ra: .cfa -4 + ^ r4: .cfa -8 + ^
STACK CFI INIT 16a6c 54 .cfa: sp 0 + .ra: lr
STACK CFI 16a70 .cfa: sp 24 + .ra: .cfa -4 + ^ r4: .cfa -24 + ^ r5: .cfa -20 + ^ r6: .cfa -16 + ^ r7: .cfa -12 + ^ r8: .cfa -8 + ^
STACK CFI INIT 2c90c 18 .cfa: sp 0 + .ra: lr
STACK CFI 2c910 .cfa: sp 8 + .ra: .cfa -4 + ^ r4: .cfa -8 + ^
STACK CFI INIT 1e00e 10 .cfa: sp 0 + .ra: lr
STACK CFI INIT 2c924 c .cfa: sp 0 + .ra: lr
STACK CFI INIT 16ac0 18 .cfa: sp 0 + .ra: lr
STACK CFI 16ac6 .cfa: sp 8 + .ra: .cfa -4 + ^ r4: .cfa -8 + ^
STACK CFI INIT 2c930 f8 .cfa: sp 0 + .ra: lr
STACK CFI 2c936 .cfa: sp 48 + .ra: .cfa -4 + ^ r10: .cfa -12 + ^ r11: .cfa -8 + ^ r4: .cfa -36 + ^ r5: .cfa -32 + ^ r6: .cfa -28 + ^ r7: .cfa -24 + ^ r8: .cfa -20 + ^ r9: .cfa -16 + ^
STACK CFI 2ca1e .cfa: sp 36 +
STACK CFI INIT 16aec 1e .cfa: sp 0 + .ra: lr
STACK CFI 16aee .cfa: sp 8 + .ra: .cfa -4 + ^ r4: .cfa -8 + ^
STACK CFI INIT 0 14 .cfa: sp 0 + .ra: lr
STACK CFI INIT 16b40 24 .cfa: sp 0 + .ra: lr
STACK CFI 16b44 .cfa: sp 8 + .ra: .cfa -4 + ^ r4: .cfa -8 + ^
STACK CFI INIT 16b64 12 .cfa: sp 0 + .ra: lr
STACK CFI 16b66 .cfa: sp 8 + .ra: .cfa -4 + ^ r4: .cfa -8 + ^
STACK CFI INIT 16b76 28 .cfa: sp 0 + .ra: lr
STACK CFI 16b78 .cfa: sp 16 + .ra: .cfa -4 + ^ r4: .cfa -16 + ^ r5: .cfa -12 + ^ r6: .cfa -8 + ^
STACK CFI INIT 16b9e e .cfa: sp 0 + .ra: lr
STACK CFI 16ba0 .cfa: sp 8 + .ra: .cfa -4 + ^ r4: .cfa -8 + ^
STACK CFI INIT 2ca28 4c .cfa: sp 0 + .ra: lr
STACK CFI 2ca2c .cfa: sp 24 + .ra: .cfa -4 + ^ r4: .cfa -16 + ^ r5: .cfa -12 + ^ r6: .cfa -8 + ^
STACK CFI 2ca6e .cfa: sp 16 +
STACK CFI INIT 2ca74 12 .cfa: sp 0 + .ra: lr
STACK CFI 2ca76 .cfa: sp 8 + .ra: .cfa -4 + ^ r4: .cfa -8 + ^
STACK CFI INIT 2ca88 1c .cfa: sp 0 + .ra: lr
STACK CFI 2ca8c .cfa: sp 8 + .ra: .cfa -4 + ^ r4: .cfa -8 + ^
STACK CFI INIT 2caa4 12 .cfa: sp 0 + .ra: lr
STACK CFI 2caa6 .cfa: sp 8 + .ra: .cfa -4 + ^ r4: .cfa -8 + ^
STACK CFI INIT 176da 16 .cfa: sp 0 + .ra: lr
STACK CFI INIT 0 58 .cfa: sp 0 + .ra: lr
STACK CFI 2 .cfa: sp 32 + .ra: .cfa -4 + ^ r4: .cfa -20 + ^ r5: .cfa -16 + ^ r6: .cfa -12 + ^ r7: .cfa -8 + ^
STACK CFI 56 .cfa: sp 20 +
STACK CFI INIT 19394 84 .cfa: sp 0 + .ra: lr
STACK CFI 1939a .cfa: sp 24 + .ra: .cfa -4 + ^ r4: .cfa -24 + ^ r5: .cfa -20 + ^ r6: .cfa -16 + ^ r7: .cfa -12 + ^ r8: .cfa -8 + ^
STACK CFI INIT 176f0 3c .cfa: sp 0 + .ra: lr
STACK CFI 176f2 .cfa: sp 8 + .ra: .cfa -4 + ^ r3: .cfa -8 + ^
STACK CFI INIT 0 d0 .cfa: sp 0 + .ra: lr
STACK CFI 6 .cfa: sp 32 + .ra: .cfa -4 + ^ r4: .cfa -24 + ^ r5: .cfa -20 + ^ r6: .cfa -16 + ^ r7: .cfa -12 + ^ r8: .cfa -8 + ^
STACK CFI cc .cfa: sp 24 +
STACK CFI INIT 192a0 64 .cfa: sp 0 + .ra: lr
STACK CFI 192a2 .cfa: sp 16 + .ra: .cfa -4 + ^ r4: .cfa -16 + ^ r5: .cfa -12 + ^ r6: .cfa -8 + ^
STACK CFI INIT 2cab8 40 .cfa: sp 0 + .ra: lr
STACK CFI 2caba .cfa: sp 24 + .ra: .cfa -4 + ^ r3: .cfa -24 + ^ r4: .cfa -20 + ^ r5: .cfa -16 + ^ r6: .cfa -12 + ^ r7: .cfa -8 + ^
STACK CFI INIT 19304 90 .cfa: sp 0 + .ra: lr
STACK CFI 19308 .cfa: sp 24 + .ra: .cfa -4 + ^ r4: .cfa -24 + ^ r5: .cfa -20 + ^ r6: .cfa -16 + ^ r7: .cfa -12 + ^ r8: .cfa -8 + ^
STACK CFI INIT 19212 30 .cfa: sp 0 + .ra: lr
STACK CFI 19214 .cfa: sp 16 + .ra: .cfa -4 + ^ r3: .cfa -16 + ^ r4: .cfa -12 + ^ r5: .cfa -8 + ^
STACK CFI INIT 19242 5e .cfa: sp 0 + .ra: lr
STACK CFI 19244 .cfa: sp 16 + .ra: .cfa -4 + ^ r4: .cfa -16 + ^ r5: .cfa -12 + ^ r6: .cfa -8 + ^
STACK CFI INIT 16bac 9c .cfa: sp 0 + .ra: lr
STACK CFI 16bb0 .cfa: sp 28 + .ra: .cfa -4 + ^ r4: .cfa -28 + ^ r5: .cfa -24 + ^ r6: .cfa -20 + ^ r7: .cfa -16 + ^ r8: .cfa -12 + ^ r9: .cfa -8 + ^
STACK CFI 16bbc .cfa: sp 48 +
STACK CFI 16c3e .cfa: sp 28 +
STACK CFI INIT 16d26 42 .cfa: sp 0 + .ra: lr
STACK CFI 16d28 .cfa: sp 24 + .ra: .cfa -4 + ^ r3: .cfa -24 + ^ r4: .cfa -20 + ^ r5: .cfa -16 + ^ r6: .cfa -12 + ^ r7: .cfa -8 + ^
STACK CFI INIT 16d68 6 .cfa: sp 0 + .ra: lr
STACK CFI INIT 16d6e 1c .cfa: sp 0 + .ra: lr
STACK CFI 16d70 .cfa: sp 8 + .ra: .cfa -4 + ^ r3: .cfa -8 + ^
STACK CFI INIT 0 30 .cfa: sp 0 + .ra: lr
STACK CFI 2 .cfa: sp 16 + .ra: .cfa -4 + ^ r4: .cfa -8 + ^
STACK CFI 28 .cfa: sp 8 +
STACK CFI INIT 16f58 30 .cfa: sp 0 + .ra: lr
STACK CFI 16f5a .cfa: sp 16 + .ra: .cfa -4 + ^ r4: .cfa -16 + ^ r5: .cfa -12 + ^ r6: .cfa -8 + ^
STACK CFI INIT 16dec 18 .cfa: sp 0 + .ra: lr
STACK CFI 16dee .cfa: sp 8 + .ra: .cfa -4 + ^ r4: .cfa -8 + ^
STACK CFI INIT 2caf8 34 .cfa: sp 0 + .ra: lr
STACK CFI 2cafc .cfa: sp 16 + .ra: .cfa -4 + ^ r4: .cfa -8 + ^
STACK CFI 2cb24 .cfa: sp 8 +
STACK CFI INIT 17a18 6c .cfa: sp 0 + .ra: lr
STACK CFI 17a1e .cfa: sp 24 + .ra: .cfa -4 + ^ r4: .cfa -24 + ^ r5: .cfa -20 + ^ r6: .cfa -16 + ^ r7: .cfa -12 + ^ r8: .cfa -8 + ^
STACK CFI 17a26 .cfa: sp 56 +
STACK CFI 17a7a .cfa: sp 24 +
STACK CFI INIT 2cb2c 42 .cfa: sp 0 + .ra: lr
STACK CFI 2cb2e .cfa: sp 24 + .ra: .cfa -4 + ^ r4: .cfa -16 + ^ r5: .cfa -12 + ^ r6: .cfa -8 + ^
STACK CFI 2cb6c .cfa: sp 16 +
STACK CFI INIT 16f88 28 .cfa: sp 0 + .ra: lr
STACK CFI 16f8a .cfa: sp 16 + .ra: .cfa -4 + ^ r4: .cfa -16 + ^ r5: .cfa -12 + ^ r6: .cfa -8 + ^
STACK CFI INIT 2cb70 4c .cfa: sp 0 + .ra: lr
STACK CFI 2cb72 .cfa: sp 16 + .ra: .cfa -4 + ^ r4: .cfa -16 + ^ r5: .cfa -12 + ^ r6: .cfa -8 + ^
STACK CFI INIT 2cbbc 3e .cfa: sp 0 + .ra: lr
STACK CFI 2cbbe .cfa: sp 16 + .ra: .cfa -4 + ^ r4: .cfa -16 + ^ r5: .cfa -12 + ^ r6: .cfa -8 + ^
STACK CFI INIT 2cbfa 32 .cfa: sp 0 + .ra: lr
STACK CFI 2cbfc .cfa: sp 24 + .ra: .cfa -4 + ^ r3: .cfa -24 + ^ r4: .cfa -20 + ^ r5: .cfa -16 + ^ r6: .cfa -12 + ^ r7: .cfa -8 + ^
STACK CFI INIT 2cc2c 30 .cfa: sp 0 + .ra: lr
STACK CFI 2cc30 .cfa: sp 8 + .ra: .cfa -4 + ^ r4: .cfa -8 + ^
STACK CFI INIT 2cc5c 12 .cfa: sp 0 + .ra: lr
STACK CFI 2cc5e .cfa: sp 8 + .ra: .cfa -4 + ^ r4: .cfa -8 + ^
STACK CFI INIT 2cc70 90 .cfa: sp 0 + .ra: lr
STACK CFI 2cc74 .cfa: sp 24 + .ra: .cfa -4 + ^ r4: .cfa -16 + ^ r5: .cfa -12 + ^ r6: .cfa -8 + ^
STACK CFI 2ccfa .cfa: sp 16 +
STACK CFI INIT 2cd00 12 .cfa: sp 0 + .ra: lr
STACK CFI 2cd02 .cfa: sp 8 + .ra: .cfa -4 + ^ r4: .cfa -8 + ^
STACK CFI INIT 1705c 54 .cfa: sp 0 + .ra: lr
STACK CFI 1705e .cfa: sp 16 + .ra: .cfa -4 + ^ r3: .cfa -16 + ^ r4: .cfa -12 + ^ r5: .cfa -8 + ^
STACK CFI INIT 170b0 8 .cfa: sp 0 + .ra: lr
STACK CFI INIT 170b8 c .cfa: sp 0 + .ra: lr
STACK CFI INIT 170c4 12 .cfa: sp 0 + .ra: lr
STACK CFI 170c6 .cfa: sp 8 + .ra: .cfa -4 + ^ r4: .cfa -8 + ^
STACK CFI INIT 170d6 c .cfa: sp 0 + .ra: lr
STACK CFI INIT 170e2 8 .cfa: sp 0 + .ra: lr
STACK CFI INIT 170ec 54 .cfa: sp 0 + .ra: lr
STACK CFI 170ee .cfa: sp 16 + .ra: .cfa -4 + ^ r3: .cfa -16 + ^ r4: .cfa -12 + ^ r5: .cfa -8 + ^
STACK CFI INIT 17140 8 .cfa: sp 0 + .ra: lr
STACK CFI INIT 17148 c .cfa: sp 0 + .ra: lr
STACK CFI INIT 17154 12 .cfa: sp 0 + .ra: lr
STACK CFI 17156 .cfa: sp 8 + .ra: .cfa -4 + ^ r4: .cfa -8 + ^
STACK CFI INIT 17166 c .cfa: sp 0 + .ra: lr
STACK CFI INIT 17172 8 .cfa: sp 0 + .ra: lr
STACK CFI INIT 1717c 8c .cfa: sp 0 + .ra: lr
STACK CFI 1717e .cfa: sp 24 + .ra: .cfa -4 + ^ r3: .cfa -24 + ^ r4: .cfa -20 + ^ r5: .cfa -16 + ^ r6: .cfa -12 + ^ r7: .cfa -8 + ^
STACK CFI INIT 17208 8 .cfa: sp 0 + .ra: lr
STACK CFI INIT 17210 80 .cfa: sp 0 + .ra: lr
STACK CFI 17212 .cfa: sp 24 + .ra: .cfa -4 + ^ r3: .cfa -24 + ^ r4: .cfa -20 + ^ r5: .cfa -16 + ^ r6: .cfa -12 + ^ r7: .cfa -8 + ^
STACK CFI INIT 17290 8 .cfa: sp 0 + .ra: lr
STACK CFI INIT 17298 8 .cfa: sp 0 + .ra: lr
STACK CFI INIT 172a0 8 .cfa: sp 0 + .ra: lr
STACK CFI INIT 172a8 c .cfa: sp 0 + .ra: lr
STACK CFI INIT 172b4 12 .cfa: sp 0 + .ra: lr
STACK CFI 172b6 .cfa: sp 8 + .ra: .cfa -4 + ^ r4: .cfa -8 + ^
STACK CFI INIT 172c6 8 .cfa: sp 0 + .ra: lr
STACK CFI INIT 172ce c .cfa: sp 0 + .ra: lr
STACK CFI INIT 1739c 8 .cfa: sp 0 + .ra: lr
STACK CFI INIT 173a4 8 .cfa: sp 0 + .ra: lr
STACK CFI INIT 173ac c .cfa: sp 0 + .ra: lr
STACK CFI INIT 173b8 12 .cfa: sp 0 + .ra: lr
STACK CFI 173ba .cfa: sp 8 + .ra: .cfa -4 + ^ r4: .cfa -8 + ^
STACK CFI INIT 173ca 8 .cfa: sp 0 + .ra: lr
STACK CFI INIT 173d2 c .cfa: sp 0 + .ra: lr
STACK CFI INIT 173de 2c .cfa: sp 0 + .ra: lr
STACK CFI 173e0 .cfa: sp 8 + .ra: .cfa -4 + ^ r4: .cfa -8 + ^
STACK CFI INIT 1740a 40 .cfa: sp 0 + .ra: lr
STACK CFI 1740c .cfa: sp 8 + .ra: .cfa -4 + ^ r4: .cfa -8 + ^
STACK CFI INIT 1744a 24 .cfa: sp 0 + .ra: lr
STACK CFI 1744c .cfa: sp 8 + .ra: .cfa -4 + ^ r4: .cfa -8 + ^
STACK CFI INIT 2cd12 c6 .cfa: sp 0 + .ra: lr
STACK CFI 2cd16 .cfa: sp 28 + .ra: .cfa -4 + ^ r4: .cfa -28 + ^ r5: .cfa -24 + ^ r6: .cfa -20 + ^ r7: .cfa -16 + ^ r8: .cfa -12 + ^ r9: .cfa -8 + ^
STACK CFI 2cd1a .cfa: sp 88 +
STACK CFI 2cdd4 .cfa: sp 28 +
STACK CFI INIT 1746e b4 .cfa: sp 0 + .ra: lr
STACK CFI 17470 .cfa: sp 32 + .ra: .cfa -4 + ^ r4: .cfa -20 + ^ r5: .cfa -16 + ^ r6: .cfa -12 + ^ r7: .cfa -8 + ^
STACK CFI 17520 .cfa: sp 20 +
STACK CFI INIT 175b2 98 .cfa: sp 0 + .ra: lr
STACK CFI 175b6 .cfa: sp 40 + .ra: .cfa -4 + ^ r4: .cfa -28 + ^ r5: .cfa -24 + ^ r6: .cfa -20 + ^ r7: .cfa -16 + ^ r8: .cfa -12 + ^ r9: .cfa -8 + ^
STACK CFI 17646 .cfa: sp 28 +
STACK CFI INIT 0 8a .cfa: sp 0 + .ra: lr
STACK CFI 6 .cfa: sp 32 + .ra: .cfa -4 + ^ r4: .cfa -24 + ^ r5: .cfa -20 + ^ r6: .cfa -16 + ^ r7: .cfa -12 + ^ r8: .cfa -8 + ^
STACK CFI 86 .cfa: sp 24 +
STACK CFI INIT 17ba4 46 .cfa: sp 0 + .ra: lr
STACK CFI 17ba6 .cfa: sp 32 + .ra: .cfa -4 + ^ r4: .cfa -20 + ^ r5: .cfa -16 + ^ r6: .cfa -12 + ^ r7: .cfa -8 + ^
STACK CFI 17be8 .cfa: sp 20 +
STACK CFI INIT 2cdd8 148 .cfa: sp 0 + .ra: lr
STACK CFI 2cddc .cfa: sp 36 + .ra: .cfa -4 + ^ r10: .cfa -12 + ^ r11: .cfa -8 + ^ r4: .cfa -36 + ^ r5: .cfa -32 + ^ r6: .cfa -28 + ^ r7: .cfa -24 + ^ r8: .cfa -20 + ^ r9: .cfa -16 + ^
STACK CFI 2cde6 .cfa: sp 312 +
STACK CFI 2cef8 .cfa: sp 36 +
STACK CFI INIT 2cf20 158 .cfa: sp 0 + .ra: lr
STACK CFI 2cf24 .cfa: sp 36 + .ra: .cfa -4 + ^ r10: .cfa -12 + ^ r11: .cfa -8 + ^ r4: .cfa -36 + ^ r5: .cfa -32 + ^ r6: .cfa -28 + ^ r7: .cfa -24 + ^ r8: .cfa -20 + ^ r9: .cfa -16 + ^
STACK CFI 2cf2e .cfa: sp 328 +
STACK CFI 2d04e .cfa: sp 36 +
STACK CFI INIT 2d078 148 .cfa: sp 0 + .ra: lr
STACK CFI 2d07c .cfa: sp 36 + .ra: .cfa -4 + ^ r10: .cfa -12 + ^ r11: .cfa -8 + ^ r4: .cfa -36 + ^ r5: .cfa -32 + ^ r6: .cfa -28 + ^ r7: .cfa -24 + ^ r8: .cfa -20 + ^ r9: .cfa -16 + ^
STACK CFI 2d086 .cfa: sp 312 +
STACK CFI 2d198 .cfa: sp 36 +
STACK CFI INIT 2d1c0 158 .cfa: sp 0 + .ra: lr
STACK CFI 2d1c4 .cfa: sp 36 + .ra: .cfa -4 + ^ r10: .cfa -12 + ^ r11: .cfa -8 + ^ r4: .cfa -36 + ^ r5: .cfa -32 + ^ r6: .cfa -28 + ^ r7: .cfa -24 + ^ r8: .cfa -20 + ^ r9: .cfa -16 + ^
STACK CFI 2d1ce .cfa: sp 328 +
STACK CFI 2d2ee .cfa: sp 36 +
STACK CFI INIT 2d318 148 .cfa: sp 0 + .ra: lr
STACK CFI 2d31c .cfa: sp 36 + .ra: .cfa -4 + ^ r10: .cfa -12 + ^ r11: .cfa -8 + ^ r4: .cfa -36 + ^ r5: .cfa -32 + ^ r6: .cfa -28 + ^ r7: .cfa -24 + ^ r8: .cfa -20 + ^ r9: .cfa -16 + ^
STACK CFI 2d326 .cfa: sp 312 +
STACK CFI 2d438 .cfa: sp 36 +
STACK CFI INIT 2d460 158 .cfa: sp 0 + .ra: lr
STACK CFI 2d464 .cfa: sp 36 + .ra: .cfa -4 + ^ r10: .cfa -12 + ^ r11: .cfa -8 + ^ r4: .cfa -36 + ^ r5: .cfa -32 + ^ r6: .cfa -28 + ^ r7: .cfa -24 + ^ r8: .cfa -20 + ^ r9: .cfa -16 + ^
STACK CFI 2d46e .cfa: sp 328 +
STACK CFI 2d58e .cfa: sp 36 +
STACK CFI INIT 2d5b8 148 .cfa: sp 0 + .ra: lr
STACK CFI 2d5bc .cfa: sp 36 + .ra: .cfa -4 + ^ r10: .cfa -12 + ^ r11: .cfa -8 + ^ r4: .cfa -36 + ^ r5: .cfa -32 + ^ r6: .cfa -28 + ^ r7: .cfa -24 + ^ r8: .cfa -20 + ^ r9: .cfa -16 + ^
STACK CFI 2d5c6 .cfa: sp 312 +
STACK CFI 2d6d8 .cfa: sp 36 +
STACK CFI INIT 2d700 158 .cfa: sp 0 + .ra: lr
STACK CFI 2d704 .cfa: sp 36 + .ra: .cfa -4 + ^ r10: .cfa -12 + ^ r11: .cfa -8 + ^ r4: .cfa -36 + ^ r5: .cfa -32 + ^ r6: .cfa -28 + ^ r7: .cfa -24 + ^ r8: .cfa -20 + ^ r9: .cfa -16 + ^
STACK CFI 2d70e .cfa: sp 328 +
STACK CFI 2d82e .cfa: sp 36 +
STACK CFI INIT 18134 a4 .cfa: sp 0 + .ra: lr
STACK CFI 18138 .cfa: sp 32 + .ra: .cfa -4 + ^ r4: .cfa -24 + ^ r5: .cfa -20 + ^ r6: .cfa -16 + ^ r7: .cfa -12 + ^ r8: .cfa -8 + ^
STACK CFI 181d4 .cfa: sp 24 +
STACK CFI INIT 2d858 28 .cfa: sp 0 + .ra: lr
STACK CFI 2d85c .cfa: sp 8 + .ra: .cfa -4 + ^ r4: .cfa -8 + ^
STACK CFI INIT 2d880 1c .cfa: sp 0 + .ra: lr
STACK CFI 2d884 .cfa: sp 8 + .ra: .cfa -4 + ^ r4: .cfa -8 + ^
STACK CFI INIT 2d89c 12 .cfa: sp 0 + .ra: lr
STACK CFI 2d89e .cfa: sp 8 + .ra: .cfa -4 + ^ r4: .cfa -8 + ^
STACK CFI INIT 2d8b0 1c .cfa: sp 0 + .ra: lr
STACK CFI 2d8b4 .cfa: sp 8 + .ra: .cfa -4 + ^ r4: .cfa -8 + ^
STACK CFI INIT 2d8cc 12 .cfa: sp 0 + .ra: lr
STACK CFI 2d8ce .cfa: sp 8 + .ra: .cfa -4 + ^ r4: .cfa -8 + ^
STACK CFI INIT 2d8e0 1c .cfa: sp 0 + .ra: lr
STACK CFI 2d8e4 .cfa: sp 8 + .ra: .cfa -4 + ^ r4: .cfa -8 + ^
STACK CFI INIT 2d8fc 12 .cfa: sp 0 + .ra: lr
STACK CFI 2d8fe .cfa: sp 8 + .ra: .cfa -4 + ^ r4: .cfa -8 + ^
STACK CFI INIT 2d910 1c .cfa: sp 0 + .ra: lr
STACK CFI 2d914 .cfa: sp 8 + .ra: .cfa -4 + ^ r4: .cfa -8 + ^
STACK CFI INIT 2d92c 12 .cfa: sp 0 + .ra: lr
STACK CFI 2d92e .cfa: sp 8 + .ra: .cfa -4 + ^ r4: .cfa -8 + ^
STACK CFI INIT 0 12 .cfa: sp 0 + .ra: lr
STACK CFI 2 .cfa: sp 8 + .ra: .cfa -4 + ^ r4: .cfa -8 + ^
STACK CFI INIT 2d940 28 .cfa: sp 0 + .ra: lr
STACK CFI 2d944 .cfa: sp 8 + .ra: .cfa -4 + ^ r4: .cfa -8 + ^
STACK CFI INIT 2d968 1c .cfa: sp 0 + .ra: lr
STACK CFI 2d96c .cfa: sp 8 + .ra: .cfa -4 + ^ r4: .cfa -8 + ^
STACK CFI INIT 2d984 12 .cfa: sp 0 + .ra: lr
STACK CFI 2d986 .cfa: sp 8 + .ra: .cfa -4 + ^ r4: .cfa -8 + ^
STACK CFI INIT 2d998 1c .cfa: sp 0 + .ra: lr
STACK CFI 2d99c .cfa: sp 8 + .ra: .cfa -4 + ^ r4: .cfa -8 + ^
STACK CFI INIT 2d9b4 12 .cfa: sp 0 + .ra: lr
STACK CFI 2d9b6 .cfa: sp 8 + .ra: .cfa -4 + ^ r4: .cfa -8 + ^
STACK CFI INIT 2d9c8 1c .cfa: sp 0 + .ra: lr
STACK CFI 2d9cc .cfa: sp 8 + .ra: .cfa -4 + ^ r4: .cfa -8 + ^
STACK CFI INIT 2d9e4 12 .cfa: sp 0 + .ra: lr
STACK CFI 2d9e6 .cfa: sp 8 + .ra: .cfa -4 + ^ r4: .cfa -8 + ^
STACK CFI INIT 2d9f8 1c .cfa: sp 0 + .ra: lr
STACK CFI 2d9fc .cfa: sp 8 + .ra: .cfa -4 + ^ r4: .cfa -8 + ^
STACK CFI INIT 2da14 12 .cfa: sp 0 + .ra: lr
STACK CFI 2da16 .cfa: sp 8 + .ra: .cfa -4 + ^ r4: .cfa -8 + ^
STACK CFI INIT 0 12 .cfa: sp 0 + .ra: lr
STACK CFI 2 .cfa: sp 8 + .ra: .cfa -4 + ^ r4: .cfa -8 + ^
STACK CFI INIT 17ab0 38 .cfa: sp 0 + .ra: lr
STACK CFI 17ab2 .cfa: sp 24 + .ra: .cfa -4 + ^ r4: .cfa -16 + ^ r5: .cfa -12 + ^ r6: .cfa -8 + ^
STACK CFI 17ae0 .cfa: sp 16 +
STACK CFI INIT 0 1a0 .cfa: sp 0 + .ra: lr
STACK CFI 4 .cfa: sp 36 + .ra: .cfa -4 + ^ r10: .cfa -12 + ^ r11: .cfa -8 + ^ r4: .cfa -36 + ^ r5: .cfa -32 + ^ r6: .cfa -28 + ^ r7: .cfa -24 + ^ r8: .cfa -20 + ^ r9: .cfa -16 + ^
STACK CFI e .cfa: sp 248 +
STACK CFI 17e .cfa: sp 36 +
STACK CFI INIT 2da28 180 .cfa: sp 0 + .ra: lr
STACK CFI 2da2c .cfa: sp 32 + .ra: .cfa -4 + ^ r10: .cfa -8 + ^ r4: .cfa -32 + ^ r5: .cfa -28 + ^ r6: .cfa -24 + ^ r7: .cfa -20 + ^ r8: .cfa -16 + ^ r9: .cfa -12 + ^
STACK CFI 2da30 .cfa: sp 112 +
STACK CFI 2db8c .cfa: sp 32 +
STACK CFI INIT 2dba8 178 .cfa: sp 0 + .ra: lr
STACK CFI 2dbac .cfa: sp 28 + .ra: .cfa -4 + ^ r4: .cfa -28 + ^ r5: .cfa -24 + ^ r6: .cfa -20 + ^ r7: .cfa -16 + ^ r8: .cfa -12 + ^ r9: .cfa -8 + ^
STACK CFI 2dbb6 .cfa: sp 112 +
STACK CFI 2dcf4 .cfa: sp 28 +
STACK CFI INIT 2dd20 1c4 .cfa: sp 0 + .ra: lr
STACK CFI 2dd26 .cfa: sp 36 + .ra: .cfa -4 + ^ r10: .cfa -12 + ^ r11: .cfa -8 + ^ r4: .cfa -36 + ^ r5: .cfa -32 + ^ r6: .cfa -28 + ^ r7: .cfa -24 + ^ r8: .cfa -20 + ^ r9: .cfa -16 + ^
STACK CFI 2dd2c .cfa: sp 520 +
STACK CFI 2deb4 .cfa: sp 36 +
STACK CFI INIT 2dee4 274 .cfa: sp 0 + .ra: lr
STACK CFI 2deea .cfa: sp 36 + .ra: .cfa -4 + ^ r10: .cfa -12 + ^ r11: .cfa -8 + ^ r4: .cfa -36 + ^ r5: .cfa -32 + ^ r6: .cfa -28 + ^ r7: .cfa -24 + ^ r8: .cfa -20 + ^ r9: .cfa -16 + ^
STACK CFI 2def6 .cfa: sp 584 +
STACK CFI 2e116 .cfa: sp 36 +
STACK CFI INIT 2e158 2a8 .cfa: sp 0 + .ra: lr
STACK CFI 2e15e .cfa: sp 36 + .ra: .cfa -4 + ^ r10: .cfa -12 + ^ r11: .cfa -8 + ^ r4: .cfa -36 + ^ r5: .cfa -32 + ^ r6: .cfa -28 + ^ r7: .cfa -24 + ^ r8: .cfa -20 + ^ r9: .cfa -16 + ^
STACK CFI 2e168 .cfa: sp 584 +
STACK CFI 2e3b6 .cfa: sp 36 +
STACK CFI INIT 2e400 390 .cfa: sp 0 + .ra: lr
STACK CFI 2e406 .cfa: sp 36 + .ra: .cfa -4 + ^ r10: .cfa -12 + ^ r11: .cfa -8 + ^ r4: .cfa -36 + ^ r5: .cfa -32 + ^ r6: .cfa -28 + ^ r7: .cfa -24 + ^ r8: .cfa -20 + ^ r9: .cfa -16 + ^
STACK CFI 2e410 .cfa: sp 592 +
STACK CFI 2e73e .cfa: sp 36 +
STACK CFI INIT 2dba8 178 .cfa: sp 0 + .ra: lr
STACK CFI 2dbac .cfa: sp 28 + .ra: .cfa -4 + ^ r4: .cfa -28 + ^ r5: .cfa -24 + ^ r6: .cfa -20 + ^ r7: .cfa -16 + ^ r8: .cfa -12 + ^ r9: .cfa -8 + ^
STACK CFI 2dbb6 .cfa: sp 112 +
STACK CFI 2dcf4 .cfa: sp 28 +
STACK CFI INIT 2e790 1c4 .cfa: sp 0 + .ra: lr
STACK CFI 2e796 .cfa: sp 36 + .ra: .cfa -4 + ^ r10: .cfa -12 + ^ r11: .cfa -8 + ^ r4: .cfa -36 + ^ r5: .cfa -32 + ^ r6: .cfa -28 + ^ r7: .cfa -24 + ^ r8: .cfa -20 + ^ r9: .cfa -16 + ^
STACK CFI 2e79c .cfa: sp 520 +
STACK CFI 2e924 .cfa: sp 36 +
STACK CFI INIT 2e954 274 .cfa: sp 0 + .ra: lr
STACK CFI 2e95a .cfa: sp 36 + .ra: .cfa -4 + ^ r10: .cfa -12 + ^ r11: .cfa -8 + ^ r4: .cfa -36 + ^ r5: .cfa -32 + ^ r6: .cfa -28 + ^ r7: .cfa -24 + ^ r8: .cfa -20 + ^ r9: .cfa -16 + ^
STACK CFI 2e966 .cfa: sp 584 +
STACK CFI 2eb86 .cfa: sp 36 +
STACK CFI INIT 2ebc8 2a8 .cfa: sp 0 + .ra: lr
STACK CFI 2ebce .cfa: sp 36 + .ra: .cfa -4 + ^ r10: .cfa -12 + ^ r11: .cfa -8 + ^ r4: .cfa -36 + ^ r5: .cfa -32 + ^ r6: .cfa -28 + ^ r7: .cfa -24 + ^ r8: .cfa -20 + ^ r9: .cfa -16 + ^
STACK CFI 2ebd8 .cfa: sp 584 +
STACK CFI 2ee26 .cfa: sp 36 +
STACK CFI INIT 2ee70 390 .cfa: sp 0 + .ra: lr
STACK CFI 2ee76 .cfa: sp 36 + .ra: .cfa -4 + ^ r10: .cfa -12 + ^ r11: .cfa -8 + ^ r4: .cfa -36 + ^ r5: .cfa -32 + ^ r6: .cfa -28 + ^ r7: .cfa -24 + ^ r8: .cfa -20 + ^ r9: .cfa -16 + ^
STACK CFI 2ee80 .cfa: sp 592 +
STACK CFI 2f1ae .cfa: sp 36 +
STACK CFI INIT 14f38 84 .cfa: sp 0 + .ra: lr
STACK CFI 14f3a .cfa: sp 16 + .ra: .cfa -4 + ^ r3: .cfa -16 + ^ r4: .cfa -12 + ^ r5: .cfa -8 + ^
STACK CFI INIT 15dc4 2 .cfa: sp 0 + .ra: lr
STACK CFI INIT 15dc6 2 .cfa: sp 0 + .ra: lr
STACK CFI INIT 15dc8 4 .cfa: sp 0 + .ra: lr
STACK CFI INIT 15ddc 6 .cfa: sp 0 + .ra: lr
STACK CFI INIT 15de2 2 .cfa: sp 0 + .ra: lr
STACK CFI INIT 0 4 .cfa: sp 0 + .ra: lr
STACK CFI INIT 15de2 2 .cfa: sp 0 + .ra: lr
STACK CFI INIT 15de2 2 .cfa: sp 0 + .ra: lr
STACK CFI INIT 15de2 2 .cfa: sp 0 + .ra: lr
STACK CFI INIT 15de2 2 .cfa: sp 0 + .ra: lr
STACK CFI INIT 15de2 2 .cfa: sp 0 + .ra: lr
STACK CFI INIT 15de2 2 .cfa: sp 0 + .ra: lr
STACK CFI INIT 15de2 2 .cfa: sp 0 + .ra: lr
STACK CFI INIT 15de2 2 .cfa: sp 0 + .ra: lr
STACK CFI INIT 15de2 2 .cfa: sp 0 + .ra: lr
STACK CFI INIT 15de2 2 .cfa: sp 0 + .ra: lr
STACK CFI INIT 15de4 ac .cfa: sp 0 + .ra: lr
STACK CFI 15de6 .cfa: sp 16 + .ra: .cfa -4 + ^ r4: .cfa -16 + ^ r5: .cfa -12 + ^ r6: .cfa -8 + ^
STACK CFI INIT 15e90 9e .cfa: sp 0 + .ra: lr
STACK CFI 15e92 .cfa: sp 20 + .ra: .cfa -4 + ^ r4: .cfa -20 + ^ r5: .cfa -16 + ^ r6: .cfa -12 + ^ r7: .cfa -8 + ^
STACK CFI 15e94 .cfa: sp 40 +
STACK CFI 15f2c .cfa: sp 20 +
STACK CFI INIT 0 4 .cfa: sp 0 + .ra: lr
STACK CFI INIT 15f2e 10 .cfa: sp 0 + .ra: lr
STACK CFI INIT 15f3e 16 .cfa: sp 0 + .ra: lr
STACK CFI INIT 15f54 3e .cfa: sp 0 + .ra: lr
STACK CFI 15f56 .cfa: sp 8 + .ra: .cfa -4 + ^ r4: .cfa -8 + ^
STACK CFI INIT 0 2 .cfa: sp 0 + .ra: lr
STACK CFI INIT 15f92 c .cfa: sp 0 + .ra: lr
STACK CFI INIT 15f9e 1a .cfa: sp 0 + .ra: lr
STACK CFI 15fa0 .cfa: sp 16 + .ra: .cfa -4 + ^
STACK CFI 15fb4 .cfa: sp 4 +
STACK CFI INIT 0 6 .cfa: sp 0 + .ra: lr
STACK CFI INIT 15fb8 18 .cfa: sp 0 + .ra: lr
STACK CFI 15fba .cfa: sp 8 + .ra: .cfa -4 + ^ r4: .cfa -8 + ^
STACK CFI INIT 0 6 .cfa: sp 0 + .ra: lr
STACK CFI INIT 15fd0 c .cfa: sp 0 + .ra: lr
STACK CFI 15fd2 .cfa: sp 8 + .ra: .cfa -4 + ^ r4: .cfa -8 + ^
STACK CFI INIT 15fd0 c .cfa: sp 0 + .ra: lr
STACK CFI 15fd2 .cfa: sp 8 + .ra: .cfa -4 + ^ r4: .cfa -8 + ^
STACK CFI INIT 15fd0 c .cfa: sp 0 + .ra: lr
STACK CFI 15fd2 .cfa: sp 8 + .ra: .cfa -4 + ^ r4: .cfa -8 + ^
STACK CFI INIT 15fd0 c .cfa: sp 0 + .ra: lr
STACK CFI 15fd2 .cfa: sp 8 + .ra: .cfa -4 + ^ r4: .cfa -8 + ^
STACK CFI INIT 15fd0 c .cfa: sp 0 + .ra: lr
STACK CFI 15fd2 .cfa: sp 8 + .ra: .cfa -4 + ^ r4: .cfa -8 + ^
STACK CFI INIT 15fd0 c .cfa: sp 0 + .ra: lr
STACK CFI 15fd2 .cfa: sp 8 + .ra: .cfa -4 + ^ r4: .cfa -8 + ^
STACK CFI INIT 15fd0 c .cfa: sp 0 + .ra: lr
STACK CFI 15fd2 .cfa: sp 8 + .ra: .cfa -4 + ^ r4: .cfa -8 + ^
STACK CFI INIT 15fd0 c .cfa: sp 0 + .ra: lr
STACK CFI 15fd2 .cfa: sp 8 + .ra: .cfa -4 + ^ r4: .cfa -8 + ^
STACK CFI INIT 15fd0 c .cfa: sp 0 + .ra: lr
STACK CFI 15fd2 .cfa: sp 8 + .ra: .cfa -4 + ^ r4: .cfa -8 + ^
STACK CFI INIT 15fd0 c .cfa: sp 0 + .ra: lr
STACK CFI 15fd2 .cfa: sp 8 + .ra: .cfa -4 + ^ r4: .cfa -8 + ^
STACK CFI INIT 16030 4c .cfa: sp 0 + .ra: lr
STACK CFI 16034 .cfa: sp 24 + .ra: .cfa -4 + ^ r4: .cfa -24 + ^ r5: .cfa -20 + ^ r6: .cfa -16 + ^ r7: .cfa -12 + ^ r8: .cfa -8 + ^
STACK CFI INIT 15fdc 54 .cfa: sp 0 + .ra: lr
STACK CFI 15fe0 .cfa: sp 24 + .ra: .cfa -4 + ^ r4: .cfa -24 + ^ r5: .cfa -20 + ^ r6: .cfa -16 + ^ r7: .cfa -12 + ^ r8: .cfa -8 + ^
STACK CFI INIT 1607c 1c .cfa: sp 0 + .ra: lr
STACK CFI 16080 .cfa: sp 8 + .ra: .cfa -4 + ^ r4: .cfa -8 + ^
STACK CFI INIT 16098 12 .cfa: sp 0 + .ra: lr
STACK CFI 1609a .cfa: sp 8 + .ra: .cfa -4 + ^ r4: .cfa -8 + ^
STACK CFI INIT 160ac 1c .cfa: sp 0 + .ra: lr
STACK CFI 160b0 .cfa: sp 8 + .ra: .cfa -4 + ^ r4: .cfa -8 + ^
STACK CFI INIT 160c8 12 .cfa: sp 0 + .ra: lr
STACK CFI 160ca .cfa: sp 8 + .ra: .cfa -4 + ^ r4: .cfa -8 + ^
STACK CFI INIT 2f200 18 .cfa: sp 0 + .ra: lr
STACK CFI 2f202 .cfa: sp 8 + .ra: .cfa -4 + ^ r4: .cfa -8 + ^
STACK CFI INIT 2f218 12 .cfa: sp 0 + .ra: lr
STACK CFI 2f21a .cfa: sp 8 + .ra: .cfa -4 + ^ r4: .cfa -8 + ^
STACK CFI INIT 2f22c 18 .cfa: sp 0 + .ra: lr
STACK CFI 2f22e .cfa: sp 8 + .ra: .cfa -4 + ^ r4: .cfa -8 + ^
STACK CFI INIT 2f244 12 .cfa: sp 0 + .ra: lr
STACK CFI 2f246 .cfa: sp 8 + .ra: .cfa -4 + ^ r4: .cfa -8 + ^
STACK CFI INIT 2f258 18 .cfa: sp 0 + .ra: lr
STACK CFI 2f25a .cfa: sp 8 + .ra: .cfa -4 + ^ r4: .cfa -8 + ^
STACK CFI INIT 2f270 12 .cfa: sp 0 + .ra: lr
STACK CFI 2f272 .cfa: sp 8 + .ra: .cfa -4 + ^ r4: .cfa -8 + ^
STACK CFI INIT 2f284 18 .cfa: sp 0 + .ra: lr
STACK CFI 2f286 .cfa: sp 8 + .ra: .cfa -4 + ^ r4: .cfa -8 + ^
STACK CFI INIT 2f29c 12 .cfa: sp 0 + .ra: lr
STACK CFI 2f29e .cfa: sp 8 + .ra: .cfa -4 + ^ r4: .cfa -8 + ^
STACK CFI INIT 2f2b0 18 .cfa: sp 0 + .ra: lr
STACK CFI 2f2b2 .cfa: sp 8 + .ra: .cfa -4 + ^ r4: .cfa -8 + ^
STACK CFI INIT 2f2c8 12 .cfa: sp 0 + .ra: lr
STACK CFI 2f2ca .cfa: sp 8 + .ra: .cfa -4 + ^ r4: .cfa -8 + ^
STACK CFI INIT 2f2dc 18 .cfa: sp 0 + .ra: lr
STACK CFI 2f2de .cfa: sp 8 + .ra: .cfa -4 + ^ r4: .cfa -8 + ^
STACK CFI INIT 2f2f4 12 .cfa: sp 0 + .ra: lr
STACK CFI 2f2f6 .cfa: sp 8 + .ra: .cfa -4 + ^ r4: .cfa -8 + ^
STACK CFI INIT 2f308 18 .cfa: sp 0 + .ra: lr
STACK CFI 2f30a .cfa: sp 8 + .ra: .cfa -4 + ^ r4: .cfa -8 + ^
STACK CFI INIT 2f320 12 .cfa: sp 0 + .ra: lr
STACK CFI 2f322 .cfa: sp 8 + .ra: .cfa -4 + ^ r4: .cfa -8 + ^
STACK CFI INIT 2f334 18 .cfa: sp 0 + .ra: lr
STACK CFI 2f336 .cfa: sp 8 + .ra: .cfa -4 + ^ r4: .cfa -8 + ^
STACK CFI INIT 2f34c 12 .cfa: sp 0 + .ra: lr
STACK CFI 2f34e .cfa: sp 8 + .ra: .cfa -4 + ^ r4: .cfa -8 + ^
STACK CFI INIT 2f360 18 .cfa: sp 0 + .ra: lr
STACK CFI 2f362 .cfa: sp 8 + .ra: .cfa -4 + ^ r4: .cfa -8 + ^
STACK CFI INIT 2f378 12 .cfa: sp 0 + .ra: lr
STACK CFI 2f37a .cfa: sp 8 + .ra: .cfa -4 + ^ r4: .cfa -8 + ^
STACK CFI INIT 2f38c 18 .cfa: sp 0 + .ra: lr
STACK CFI 2f38e .cfa: sp 8 + .ra: .cfa -4 + ^ r4: .cfa -8 + ^
STACK CFI INIT 2f3a4 12 .cfa: sp 0 + .ra: lr
STACK CFI 2f3a6 .cfa: sp 8 + .ra: .cfa -4 + ^ r4: .cfa -8 + ^
STACK CFI INIT 2f3b8 20 .cfa: sp 0 + .ra: lr
STACK CFI 2f3ba .cfa: sp 8 + .ra: .cfa -4 + ^ r4: .cfa -8 + ^
STACK CFI INIT 2f3d8 20 .cfa: sp 0 + .ra: lr
STACK CFI 2f3da .cfa: sp 8 + .ra: .cfa -4 + ^ r4: .cfa -8 + ^
STACK CFI INIT 2f3f8 20 .cfa: sp 0 + .ra: lr
STACK CFI 2f3fa .cfa: sp 8 + .ra: .cfa -4 + ^ r4: .cfa -8 + ^
STACK CFI INIT 2f418 20 .cfa: sp 0 + .ra: lr
STACK CFI 2f41a .cfa: sp 8 + .ra: .cfa -4 + ^ r4: .cfa -8 + ^
STACK CFI INIT 2f438 20 .cfa: sp 0 + .ra: lr
STACK CFI 2f43a .cfa: sp 8 + .ra: .cfa -4 + ^ r4: .cfa -8 + ^
STACK CFI INIT 2f458 20 .cfa: sp 0 + .ra: lr
STACK CFI 2f45a .cfa: sp 8 + .ra: .cfa -4 + ^ r4: .cfa -8 + ^
STACK CFI INIT 2f478 20 .cfa: sp 0 + .ra: lr
STACK CFI 2f47a .cfa: sp 8 + .ra: .cfa -4 + ^ r4: .cfa -8 + ^
STACK CFI INIT 2f498 20 .cfa: sp 0 + .ra: lr
STACK CFI 2f49a .cfa: sp 8 + .ra: .cfa -4 + ^ r4: .cfa -8 + ^
STACK CFI INIT 2f4b8 20 .cfa: sp 0 + .ra: lr
STACK CFI 2f4ba .cfa: sp 8 + .ra: .cfa -4 + ^ r4: .cfa -8 + ^
STACK CFI INIT 2f4d8 20 .cfa: sp 0 + .ra: lr
STACK CFI 2f4da .cfa: sp 8 + .ra: .cfa -4 + ^ r4: .cfa -8 + ^
STACK CFI INIT 16a6c 54 .cfa: sp 0 + .ra: lr
STACK CFI 16a70 .cfa: sp 24 + .ra: .cfa -4 + ^ r4: .cfa -24 + ^ r5: .cfa -20 + ^ r6: .cfa -16 + ^ r7: .cfa -12 + ^ r8: .cfa -8 + ^
STACK CFI INIT 1e00e 10 .cfa: sp 0 + .ra: lr
STACK CFI INIT 16ac0 18 .cfa: sp 0 + .ra: lr
STACK CFI 16ac6 .cfa: sp 8 + .ra: .cfa -4 + ^ r4: .cfa -8 + ^
STACK CFI INIT 16ad8 14 .cfa: sp 0 + .ra: lr
STACK CFI INIT 16aec 1e .cfa: sp 0 + .ra: lr
STACK CFI 16aee .cfa: sp 8 + .ra: .cfa -4 + ^ r4: .cfa -8 + ^
STACK CFI INIT 16b0a 1e .cfa: sp 0 + .ra: lr
STACK CFI INIT 16b40 24 .cfa: sp 0 + .ra: lr
STACK CFI 16b44 .cfa: sp 8 + .ra: .cfa -4 + ^ r4: .cfa -8 + ^
STACK CFI INIT 16b64 12 .cfa: sp 0 + .ra: lr
STACK CFI 16b66 .cfa: sp 8 + .ra: .cfa -4 + ^ r4: .cfa -8 + ^
STACK CFI INIT 0 24 .cfa: sp 0 + .ra: lr
STACK CFI 2 .cfa: sp 16 + .ra: .cfa -4 + ^ r3: .cfa -16 + ^ r4: .cfa -12 + ^ r5: .cfa -8 + ^
STACK CFI INIT 16bac 9c .cfa: sp 0 + .ra: lr
STACK CFI 16bb0 .cfa: sp 28 + .ra: .cfa -4 + ^ r4: .cfa -28 + ^ r5: .cfa -24 + ^ r6: .cfa -20 + ^ r7: .cfa -16 + ^ r8: .cfa -12 + ^ r9: .cfa -8 + ^
STACK CFI 16bbc .cfa: sp 48 +
STACK CFI 16c3e .cfa: sp 28 +
STACK CFI INIT 16c48 78 .cfa: sp 0 + .ra: lr
STACK CFI 16c4a .cfa: sp 16 + .ra: .cfa -4 + ^ r4: .cfa -16 + ^ r5: .cfa -12 + ^ r6: .cfa -8 + ^
STACK CFI INIT 16cc0 66 .cfa: sp 0 + .ra: lr
STACK CFI 16cc2 .cfa: sp 16 + .ra: .cfa -4 + ^ r4: .cfa -16 + ^ r5: .cfa -12 + ^ r6: .cfa -8 + ^
STACK CFI INIT 16d6e 1c .cfa: sp 0 + .ra: lr
STACK CFI 16d70 .cfa: sp 8 + .ra: .cfa -4 + ^ r3: .cfa -8 + ^
STACK CFI INIT 0 30 .cfa: sp 0 + .ra: lr
STACK CFI 2 .cfa: sp 16 + .ra: .cfa -4 + ^ r4: .cfa -8 + ^
STACK CFI 28 .cfa: sp 8 +
STACK CFI INIT 16f88 28 .cfa: sp 0 + .ra: lr
STACK CFI 16f8a .cfa: sp 16 + .ra: .cfa -4 + ^ r4: .cfa -16 + ^ r5: .cfa -12 + ^ r6: .cfa -8 + ^
STACK CFI INIT 0 b4 .cfa: sp 0 + .ra: lr
STACK CFI 4 .cfa: sp 32 + .ra: .cfa -4 + ^ r3: .cfa -32 + ^ r4: .cfa -28 + ^ r5: .cfa -24 + ^ r6: .cfa -20 + ^ r7: .cfa -16 + ^ r8: .cfa -12 + ^ r9: .cfa -8 + ^
STACK CFI INIT 0 7c .cfa: sp 0 + .ra: lr
STACK CFI 2 .cfa: sp 24 + .ra: .cfa -4 + ^ r3: .cfa -24 + ^ r4: .cfa -20 + ^ r5: .cfa -16 + ^ r6: .cfa -12 + ^ r7: .cfa -8 + ^
STACK CFI INIT 1705c 54 .cfa: sp 0 + .ra: lr
STACK CFI 1705e .cfa: sp 16 + .ra: .cfa -4 + ^ r3: .cfa -16 + ^ r4: .cfa -12 + ^ r5: .cfa -8 + ^
STACK CFI INIT 170b0 8 .cfa: sp 0 + .ra: lr
STACK CFI INIT 170b8 c .cfa: sp 0 + .ra: lr
STACK CFI INIT 170c4 12 .cfa: sp 0 + .ra: lr
STACK CFI 170c6 .cfa: sp 8 + .ra: .cfa -4 + ^ r4: .cfa -8 + ^
STACK CFI INIT 170d6 c .cfa: sp 0 + .ra: lr
STACK CFI INIT 170e2 8 .cfa: sp 0 + .ra: lr
STACK CFI INIT 170ec 54 .cfa: sp 0 + .ra: lr
STACK CFI 170ee .cfa: sp 16 + .ra: .cfa -4 + ^ r3: .cfa -16 + ^ r4: .cfa -12 + ^ r5: .cfa -8 + ^
STACK CFI INIT 17140 8 .cfa: sp 0 + .ra: lr
STACK CFI INIT 17148 c .cfa: sp 0 + .ra: lr
STACK CFI INIT 17154 12 .cfa: sp 0 + .ra: lr
STACK CFI 17156 .cfa: sp 8 + .ra: .cfa -4 + ^ r4: .cfa -8 + ^
STACK CFI INIT 17166 c .cfa: sp 0 + .ra: lr
STACK CFI INIT 17172 8 .cfa: sp 0 + .ra: lr
STACK CFI INIT 1717c 8c .cfa: sp 0 + .ra: lr
STACK CFI 1717e .cfa: sp 24 + .ra: .cfa -4 + ^ r3: .cfa -24 + ^ r4: .cfa -20 + ^ r5: .cfa -16 + ^ r6: .cfa -12 + ^ r7: .cfa -8 + ^
STACK CFI INIT 17208 8 .cfa: sp 0 + .ra: lr
STACK CFI INIT 17210 80 .cfa: sp 0 + .ra: lr
STACK CFI 17212 .cfa: sp 24 + .ra: .cfa -4 + ^ r3: .cfa -24 + ^ r4: .cfa -20 + ^ r5: .cfa -16 + ^ r6: .cfa -12 + ^ r7: .cfa -8 + ^
STACK CFI INIT 17290 8 .cfa: sp 0 + .ra: lr
STACK CFI INIT 17298 8 .cfa: sp 0 + .ra: lr
STACK CFI INIT 172a0 8 .cfa: sp 0 + .ra: lr
STACK CFI INIT 172a8 c .cfa: sp 0 + .ra: lr
STACK CFI INIT 172b4 12 .cfa: sp 0 + .ra: lr
STACK CFI 172b6 .cfa: sp 8 + .ra: .cfa -4 + ^ r4: .cfa -8 + ^
STACK CFI INIT 172c6 8 .cfa: sp 0 + .ra: lr
STACK CFI INIT 172ce c .cfa: sp 0 + .ra: lr
STACK CFI INIT 1739c 8 .cfa: sp 0 + .ra: lr
STACK CFI INIT 173a4 8 .cfa: sp 0 + .ra: lr
STACK CFI INIT 173ac c .cfa: sp 0 + .ra: lr
STACK CFI INIT 173b8 12 .cfa: sp 0 + .ra: lr
STACK CFI 173ba .cfa: sp 8 + .ra: .cfa -4 + ^ r4: .cfa -8 + ^
STACK CFI INIT 173ca 8 .cfa: sp 0 + .ra: lr
STACK CFI INIT 173d2 c .cfa: sp 0 + .ra: lr
STACK CFI INIT 173de 2c .cfa: sp 0 + .ra: lr
STACK CFI 173e0 .cfa: sp 8 + .ra: .cfa -4 + ^ r4: .cfa -8 + ^
STACK CFI INIT 1740a 40 .cfa: sp 0 + .ra: lr
STACK CFI 1740c .cfa: sp 8 + .ra: .cfa -4 + ^ r4: .cfa -8 + ^
STACK CFI INIT 1744a 24 .cfa: sp 0 + .ra: lr
STACK CFI 1744c .cfa: sp 8 + .ra: .cfa -4 + ^ r4: .cfa -8 + ^
STACK CFI INIT 0 b8 .cfa: sp 0 + .ra: lr
STACK CFI 2 .cfa: sp 32 + .ra: .cfa -4 + ^ r4: .cfa -20 + ^ r5: .cfa -16 + ^ r6: .cfa -12 + ^ r7: .cfa -8 + ^
STACK CFI b6 .cfa: sp 20 +
STACK CFI INIT 0 98 .cfa: sp 0 + .ra: lr
STACK CFI 2 .cfa: sp 20 + .ra: .cfa -4 + ^ r4: .cfa -20 + ^ r5: .cfa -16 + ^ r6: .cfa -12 + ^ r7: .cfa -8 + ^
STACK CFI 4 .cfa: sp 80 +
STACK CFI 96 .cfa: sp 20 +
STACK CFI INIT 176f0 3c .cfa: sp 0 + .ra: lr
STACK CFI 176f2 .cfa: sp 8 + .ra: .cfa -4 + ^ r3: .cfa -8 + ^
STACK CFI INIT 20330 98 .cfa: sp 0 + .ra: lr
STACK CFI 20332 .cfa: sp 20 + .ra: .cfa -4 + ^ r4: .cfa -20 + ^ r5: .cfa -16 + ^ r6: .cfa -12 + ^ r7: .cfa -8 + ^
STACK CFI 20334 .cfa: sp 80 +
STACK CFI 203c6 .cfa: sp 20 +
STACK CFI INIT 2127c a0 .cfa: sp 0 + .ra: lr
STACK CFI 21280 .cfa: sp 36 + .ra: .cfa -4 + ^ r10: .cfa -12 + ^ r11: .cfa -8 + ^ r4: .cfa -36 + ^ r5: .cfa -32 + ^ r6: .cfa -28 + ^ r7: .cfa -24 + ^ r8: .cfa -20 + ^ r9: .cfa -16 + ^
STACK CFI 2128a .cfa: sp 264 +
STACK CFI 21314 .cfa: sp 36 +
STACK CFI INIT 0 20 .cfa: sp 0 + .ra: lr
STACK CFI 2 .cfa: sp 32 + .ra: .cfa -4 + ^ r4: .cfa -20 + ^ r5: .cfa -16 + ^ r6: .cfa -12 + ^ r7: .cfa -8 + ^
STACK CFI 1e .cfa: sp 20 +
STACK CFI INIT 2f4f8 a4 .cfa: sp 0 + .ra: lr
STACK CFI 2f4fc .cfa: sp 32 + .ra: .cfa -4 + ^ r10: .cfa -8 + ^ r4: .cfa -32 + ^ r5: .cfa -28 + ^ r6: .cfa -24 + ^ r7: .cfa -20 + ^ r8: .cfa -16 + ^ r9: .cfa -12 + ^
STACK CFI 2f508 .cfa: sp 56 +
STACK CFI 2f586 .cfa: sp 32 +
STACK CFI INIT 2f59c 328 .cfa: sp 0 + .ra: lr
STACK CFI 2f5a0 .cfa: sp 32 + .ra: .cfa -4 + ^ r10: .cfa -8 + ^ r4: .cfa -32 + ^ r5: .cfa -28 + ^ r6: .cfa -24 + ^ r7: .cfa -20 + ^ r8: .cfa -16 + ^ r9: .cfa -12 + ^
STACK CFI 2f5a4 .cfa: sp 56 +
STACK CFI 2f85c .cfa: sp 32 +
STACK CFI INIT 0 e0 .cfa: sp 0 + .ra: lr
STACK CFI 4 .cfa: sp 28 + .ra: .cfa -4 + ^ r4: .cfa -28 + ^ r5: .cfa -24 + ^ r6: .cfa -20 + ^ r7: .cfa -16 + ^ r8: .cfa -12 + ^ r9: .cfa -8 + ^
STACK CFI e .cfa: sp 240 +
STACK CFI d8 .cfa: sp 28 +
STACK CFI INIT 18320 74 .cfa: sp 0 + .ra: lr
STACK CFI 18324 .cfa: sp 32 + .ra: .cfa -4 + ^ r10: .cfa -8 + ^ r4: .cfa -32 + ^ r5: .cfa -28 + ^ r6: .cfa -24 + ^ r7: .cfa -20 + ^ r8: .cfa -16 + ^ r9: .cfa -12 + ^
STACK CFI 18328 .cfa: sp 96 +
STACK CFI 1838c .cfa: sp 32 +
STACK CFI INIT 2f8c4 c4 .cfa: sp 0 + .ra: lr
STACK CFI 2f8c8 .cfa: sp 32 + .ra: .cfa -4 + ^ r10: .cfa -8 + ^ r4: .cfa -32 + ^ r5: .cfa -28 + ^ r6: .cfa -24 + ^ r7: .cfa -20 + ^ r8: .cfa -16 + ^ r9: .cfa -12 + ^
STACK CFI 2f8d8 .cfa: sp 64 +
STACK CFI 2f974 .cfa: sp 32 +
STACK CFI INIT 2f988 558 .cfa: sp 0 + .ra: lr
STACK CFI 2f98c .cfa: sp 36 + .ra: .cfa -4 + ^ r10: .cfa -12 + ^ r11: .cfa -8 + ^ r4: .cfa -36 + ^ r5: .cfa -32 + ^ r6: .cfa -28 + ^ r7: .cfa -24 + ^ r8: .cfa -20 + ^ r9: .cfa -16 + ^
STACK CFI 2f992 .cfa: sp 104 +
STACK CFI 2fdf0 .cfa: sp 36 +
STACK CFI INIT 2fee0 280 .cfa: sp 0 + .ra: lr
STACK CFI 2fee4 .cfa: sp 36 + .ra: .cfa -4 + ^ r10: .cfa -12 + ^ r11: .cfa -8 + ^ r4: .cfa -36 + ^ r5: .cfa -32 + ^ r6: .cfa -28 + ^ r7: .cfa -24 + ^ r8: .cfa -20 + ^ r9: .cfa -16 + ^
STACK CFI 2fef4 .cfa: sp 112 +
STACK CFI 30114 .cfa: sp 36 +
STACK CFI INIT 1e020 6c .cfa: sp 0 + .ra: lr
STACK CFI 1e024 .cfa: sp 24 + .ra: .cfa -4 + ^ r4: .cfa -24 + ^ r5: .cfa -20 + ^ r6: .cfa -16 + ^ r7: .cfa -12 + ^ r8: .cfa -8 + ^
STACK CFI 1e02e .cfa: sp 184 +
STACK CFI 1e07e .cfa: sp 24 +
STACK CFI INIT 30160 7c .cfa: sp 0 + .ra: lr
STACK CFI 30164 .cfa: sp 32 + .ra: .cfa -4 + ^ r10: .cfa -8 + ^ r4: .cfa -32 + ^ r5: .cfa -28 + ^ r6: .cfa -24 + ^ r7: .cfa -20 + ^ r8: .cfa -16 + ^ r9: .cfa -12 + ^
STACK CFI 30168 .cfa: sp 96 +
STACK CFI 301d2 .cfa: sp 32 +
STACK CFI INIT 301dc 338 .cfa: sp 0 + .ra: lr
STACK CFI 301e0 .cfa: sp 36 + .ra: .cfa -4 + ^ r10: .cfa -12 + ^ r11: .cfa -8 + ^ r4: .cfa -36 + ^ r5: .cfa -32 + ^ r6: .cfa -28 + ^ r7: .cfa -24 + ^ r8: .cfa -20 + ^ r9: .cfa -16 + ^
STACK CFI 301f6 .cfa: sp 104 +
STACK CFI 30486 .cfa: sp 36 +
STACK CFI INIT 30514 380 .cfa: sp 0 + .ra: lr
STACK CFI 30518 .cfa: sp 36 + .ra: .cfa -4 + ^ r10: .cfa -12 + ^ r11: .cfa -8 + ^ r4: .cfa -36 + ^ r5: .cfa -32 + ^ r6: .cfa -28 + ^ r7: .cfa -24 + ^ r8: .cfa -20 + ^ r9: .cfa -16 + ^
STACK CFI 3052e .cfa: sp 128 +
STACK CFI 30806 .cfa: sp 36 +
STACK CFI INIT 18ae4 6c .cfa: sp 0 + .ra: lr
STACK CFI 18ae8 .cfa: sp 24 + .ra: .cfa -4 + ^ r4: .cfa -24 + ^ r5: .cfa -20 + ^ r6: .cfa -16 + ^ r7: .cfa -12 + ^ r8: .cfa -8 + ^
STACK CFI 18af2 .cfa: sp 184 +
STACK CFI 18b42 .cfa: sp 24 +
STACK CFI INIT 30894 64 .cfa: sp 0 + .ra: lr
STACK CFI 30898 .cfa: sp 32 + .ra: .cfa -4 + ^ r10: .cfa -8 + ^ r4: .cfa -32 + ^ r5: .cfa -28 + ^ r6: .cfa -24 + ^ r7: .cfa -20 + ^ r8: .cfa -16 + ^ r9: .cfa -12 + ^
STACK CFI 3089c .cfa: sp 96 +
STACK CFI 308f0 .cfa: sp 32 +
STACK CFI INIT 308f8 74 .cfa: sp 0 + .ra: lr
STACK CFI 308fc .cfa: sp 32 + .ra: .cfa -4 + ^ r10: .cfa -8 + ^ r4: .cfa -32 + ^ r5: .cfa -28 + ^ r6: .cfa -24 + ^ r7: .cfa -20 + ^ r8: .cfa -16 + ^ r9: .cfa -12 + ^
STACK CFI 30900 .cfa: sp 96 +
STACK CFI 30964 .cfa: sp 32 +
STACK CFI INIT 3096c 78 .cfa: sp 0 + .ra: lr
STACK CFI 30970 .cfa: sp 32 + .ra: .cfa -4 + ^ r10: .cfa -8 + ^ r4: .cfa -32 + ^ r5: .cfa -28 + ^ r6: .cfa -24 + ^ r7: .cfa -20 + ^ r8: .cfa -16 + ^ r9: .cfa -12 + ^
STACK CFI 30974 .cfa: sp 96 +
STACK CFI 309da .cfa: sp 32 +
STACK CFI INIT 309e4 290 .cfa: sp 0 + .ra: lr
STACK CFI 309e8 .cfa: sp 28 + .ra: .cfa -4 + ^ r4: .cfa -28 + ^ r5: .cfa -24 + ^ r6: .cfa -20 + ^ r7: .cfa -16 + ^ r8: .cfa -12 + ^ r9: .cfa -8 + ^
STACK CFI 309ec .cfa: sp 72 +
STACK CFI 30c10 .cfa: sp 28 +
STACK CFI INIT 30c74 48 .cfa: sp 0 + .ra: lr
STACK CFI 30c76 .cfa: sp 20 + .ra: .cfa -4 + ^ r4: .cfa -20 + ^ r5: .cfa -16 + ^ r6: .cfa -12 + ^ r7: .cfa -8 + ^
STACK CFI 30c82 .cfa: sp 184 +
STACK CFI 30cb6 .cfa: sp 20 +
STACK CFI INIT 0 74 .cfa: sp 0 + .ra: lr
STACK CFI 4 .cfa: sp 32 + .ra: .cfa -4 + ^ r10: .cfa -8 + ^ r4: .cfa -32 + ^ r5: .cfa -28 + ^ r6: .cfa -24 + ^ r7: .cfa -20 + ^ r8: .cfa -16 + ^ r9: .cfa -12 + ^
STACK CFI 8 .cfa: sp 96 +
STACK CFI 6c .cfa: sp 32 +
STACK CFI INIT 30cbc 74 .cfa: sp 0 + .ra: lr
STACK CFI 30cc0 .cfa: sp 32 + .ra: .cfa -4 + ^ r10: .cfa -8 + ^ r4: .cfa -32 + ^ r5: .cfa -28 + ^ r6: .cfa -24 + ^ r7: .cfa -20 + ^ r8: .cfa -16 + ^ r9: .cfa -12 + ^
STACK CFI 30cc4 .cfa: sp 96 +
STACK CFI 30d28 .cfa: sp 32 +
STACK CFI INIT 30d30 30c .cfa: sp 0 + .ra: lr
STACK CFI 30d34 .cfa: sp 36 + .ra: .cfa -4 + ^ r10: .cfa -12 + ^ r11: .cfa -8 + ^ r4: .cfa -36 + ^ r5: .cfa -32 + ^ r6: .cfa -28 + ^ r7: .cfa -24 + ^ r8: .cfa -20 + ^ r9: .cfa -16 + ^
STACK CFI 30d38 .cfa: sp 80 +
STACK CFI 30fe4 .cfa: sp 36 +
STACK CFI INIT 3103c 26c .cfa: sp 0 + .ra: lr
STACK CFI 31040 .cfa: sp 36 + .ra: .cfa -4 + ^ r10: .cfa -12 + ^ r11: .cfa -8 + ^ r4: .cfa -36 + ^ r5: .cfa -32 + ^ r6: .cfa -28 + ^ r7: .cfa -24 + ^ r8: .cfa -20 + ^ r9: .cfa -16 + ^
STACK CFI 31046 .cfa: sp 80 +
STACK CFI 3125a .cfa: sp 36 +
STACK CFI INIT 0 58 .cfa: sp 0 + .ra: lr
STACK CFI 2 .cfa: sp 32 + .ra: .cfa -4 + ^ r4: .cfa -20 + ^ r5: .cfa -16 + ^ r6: .cfa -12 + ^ r7: .cfa -8 + ^
STACK CFI 56 .cfa: sp 20 +
STACK CFI INIT 0 3c .cfa: sp 0 + .ra: lr
STACK CFI 2 .cfa: sp 16 + .ra: .cfa -4 + ^ r3: .cfa -16 + ^ r4: .cfa -12 + ^ r5: .cfa -8 + ^
STACK CFI INIT 19242 5e .cfa: sp 0 + .ra: lr
STACK CFI 19244 .cfa: sp 16 + .ra: .cfa -4 + ^ r4: .cfa -16 + ^ r5: .cfa -12 + ^ r6: .cfa -8 + ^
STACK CFI INIT 0 6c .cfa: sp 0 + .ra: lr
STACK CFI 2 .cfa: sp 16 + .ra: .cfa -4 + ^ r4: .cfa -16 + ^ r5: .cfa -12 + ^ r6: .cfa -8 + ^
STACK CFI INIT 19304 90 .cfa: sp 0 + .ra: lr
STACK CFI 19308 .cfa: sp 24 + .ra: .cfa -4 + ^ r4: .cfa -24 + ^ r5: .cfa -20 + ^ r6: .cfa -16 + ^ r7: .cfa -12 + ^ r8: .cfa -8 + ^
STACK CFI INIT 19394 84 .cfa: sp 0 + .ra: lr
STACK CFI 1939a .cfa: sp 24 + .ra: .cfa -4 + ^ r4: .cfa -24 + ^ r5: .cfa -20 + ^ r6: .cfa -16 + ^ r7: .cfa -12 + ^ r8: .cfa -8 + ^
STACK CFI INIT 0 94 .cfa: sp 0 + .ra: lr
STACK CFI 6 .cfa: sp 32 + .ra: .cfa -4 + ^ r4: .cfa -24 + ^ r5: .cfa -20 + ^ r6: .cfa -16 + ^ r7: .cfa -12 + ^ r8: .cfa -8 + ^
STACK CFI 90 .cfa: sp 24 +
STACK CFI INIT 18134 a4 .cfa: sp 0 + .ra: lr
STACK CFI 18138 .cfa: sp 32 + .ra: .cfa -4 + ^ r4: .cfa -24 + ^ r5: .cfa -20 + ^ r6: .cfa -16 + ^ r7: .cfa -12 + ^ r8: .cfa -8 + ^
STACK CFI 181d4 .cfa: sp 24 +
STACK CFI INIT 14fbc 294 .cfa: sp 0 + .ra: lr
STACK CFI 14fc0 .cfa: sp 40 + .ra: .cfa -4 + ^ r4: .cfa -24 + ^ r5: .cfa -20 + ^ r6: .cfa -16 + ^ r7: .cfa -12 + ^ r8: .cfa -8 + ^
STACK CFI 151c4 .cfa: sp 24 +
STACK CFI INIT 1e00e 10 .cfa: sp 0 + .ra: lr
STACK CFI INIT 2c924 c .cfa: sp 0 + .ra: lr
STACK CFI INIT 312a8 2e .cfa: sp 0 + .ra: lr
STACK CFI 312aa .cfa: sp 24 + .ra: .cfa -4 + ^ r4: .cfa -16 + ^ r5: .cfa -12 + ^ r6: .cfa -8 + ^
STACK CFI 312d4 .cfa: sp 16 +
STACK CFI INIT 312d6 3e .cfa: sp 0 + .ra: lr
STACK CFI 312d8 .cfa: sp 16 + .ra: .cfa -4 + ^ r4: .cfa -16 + ^ r5: .cfa -12 + ^ r6: .cfa -8 + ^
STACK CFI 312f6 .cfa: sp 0 + .ra: .ra r4: r4 r5: r5 r6: r6
STACK CFI 312fa .cfa: sp 16 + .ra: .cfa -4 + ^ r4: .cfa -16 + ^ r5: .cfa -12 + ^ r6: .cfa -8 + ^
STACK CFI 3130c .cfa: sp 0 + .ra: .ra r4: r4 r5: r5 r6: r6
STACK CFI INIT 31314 d6 .cfa: sp 0 + .ra: lr
STACK CFI 31318 .cfa: sp 40 + .ra: .cfa -4 + ^ r10: .cfa -8 + ^ r4: .cfa -32 + ^ r5: .cfa -28 + ^ r6: .cfa -24 + ^ r7: .cfa -20 + ^ r8: .cfa -16 + ^ r9: .cfa -12 + ^
STACK CFI 313e6 .cfa: sp 32 +
STACK CFI INIT 0 14 .cfa: sp 0 + .ra: lr
STACK CFI INIT 2ca28 4c .cfa: sp 0 + .ra: lr
STACK CFI 2ca2c .cfa: sp 24 + .ra: .cfa -4 + ^ r4: .cfa -16 + ^ r5: .cfa -12 + ^ r6: .cfa -8 + ^
STACK CFI 2ca6e .cfa: sp 16 +
STACK CFI INIT 2ca74 12 .cfa: sp 0 + .ra: lr
STACK CFI 2ca76 .cfa: sp 8 + .ra: .cfa -4 + ^ r4: .cfa -8 + ^
STACK CFI INIT 313ec 24 .cfa: sp 0 + .ra: lr
STACK CFI 313f0 .cfa: sp 8 + .ra: .cfa -4 + ^ r4: .cfa -8 + ^
STACK CFI INIT 31410 12 .cfa: sp 0 + .ra: lr
STACK CFI 31412 .cfa: sp 8 + .ra: .cfa -4 + ^ r4: .cfa -8 + ^
STACK CFI INIT 31424 1c .cfa: sp 0 + .ra: lr
STACK CFI 31428 .cfa: sp 8 + .ra: .cfa -4 + ^ r4: .cfa -8 + ^
STACK CFI INIT 31440 12 .cfa: sp 0 + .ra: lr
STACK CFI 31442 .cfa: sp 8 + .ra: .cfa -4 + ^ r4: .cfa -8 + ^
STACK CFI INIT 0 58 .cfa: sp 0 + .ra: lr
STACK CFI 2 .cfa: sp 32 + .ra: .cfa -4 + ^ r4: .cfa -20 + ^ r5: .cfa -16 + ^ r6: .cfa -12 + ^ r7: .cfa -8 + ^
STACK CFI 56 .cfa: sp 20 +
STACK CFI INIT 176f0 3c .cfa: sp 0 + .ra: lr
STACK CFI 176f2 .cfa: sp 8 + .ra: .cfa -4 + ^ r3: .cfa -8 + ^
STACK CFI INIT 1772c d8 .cfa: sp 0 + .ra: lr
STACK CFI 17732 .cfa: sp 32 + .ra: .cfa -4 + ^ r4: .cfa -24 + ^ r5: .cfa -20 + ^ r6: .cfa -16 + ^ r7: .cfa -12 + ^ r8: .cfa -8 + ^
STACK CFI 17800 .cfa: sp 24 +
STACK CFI INIT 0 3c .cfa: sp 0 + .ra: lr
STACK CFI 2 .cfa: sp 16 + .ra: .cfa -4 + ^ r3: .cfa -16 + ^ r4: .cfa -12 + ^ r5: .cfa -8 + ^
STACK CFI INIT 31452 70 .cfa: sp 0 + .ra: lr
STACK CFI 31456 .cfa: sp 48 + .ra: .cfa -4 + ^ r10: .cfa -8 + ^ r4: .cfa -32 + ^ r5: .cfa -28 + ^ r6: .cfa -24 + ^ r7: .cfa -20 + ^ r8: .cfa -16 + ^ r9: .cfa -12 + ^
STACK CFI 314be .cfa: sp 32 +
STACK CFI INIT 314c4 a8 .cfa: sp 0 + .ra: lr
STACK CFI 314c8 .cfa: sp 40 + .ra: .cfa -4 + ^ r4: .cfa -28 + ^ r5: .cfa -24 + ^ r6: .cfa -20 + ^ r7: .cfa -16 + ^ r8: .cfa -12 + ^ r9: .cfa -8 + ^
STACK CFI 31562 .cfa: sp 28 +
STACK CFI INIT 0 30 .cfa: sp 0 + .ra: lr
STACK CFI 2 .cfa: sp 16 + .ra: .cfa -4 + ^ r4: .cfa -8 + ^
STACK CFI 28 .cfa: sp 8 +
STACK CFI INIT 0 32 .cfa: sp 0 + .ra: lr
STACK CFI 2 .cfa: sp 16 + .ra: .cfa -4 + ^ r4: .cfa -16 + ^ r5: .cfa -12 + ^ r6: .cfa -8 + ^
STACK CFI INIT 0 2e .cfa: sp 0 + .ra: lr
STACK CFI 2 .cfa: sp 24 + .ra: .cfa -4 + ^ r3: .cfa -24 + ^ r4: .cfa -20 + ^ r5: .cfa -16 + ^ r6: .cfa -12 + ^ r7: .cfa -8 + ^
STACK CFI INIT 3156c 34 .cfa: sp 0 + .ra: lr
STACK CFI 3156e .cfa: sp 24 + .ra: .cfa -4 + ^ r4: .cfa -12 + ^ r5: .cfa -8 + ^
STACK CFI 3159e .cfa: sp 12 +
STACK CFI INIT 0 38 .cfa: sp 0 + .ra: lr
STACK CFI 4 .cfa: sp 8 + .ra: .cfa -4 + ^ r4: .cfa -8 + ^
STACK CFI INIT 315a0 24 .cfa: sp 0 + .ra: lr
STACK CFI 315a2 .cfa: sp 16 + .ra: .cfa -4 + ^ r4: .cfa -16 + ^ r5: .cfa -12 + ^ r6: .cfa -8 + ^
STACK CFI INIT 2cbfa 32 .cfa: sp 0 + .ra: lr
STACK CFI 2cbfc .cfa: sp 24 + .ra: .cfa -4 + ^ r3: .cfa -24 + ^ r4: .cfa -20 + ^ r5: .cfa -16 + ^ r6: .cfa -12 + ^ r7: .cfa -8 + ^
STACK CFI INIT 2cc2c 30 .cfa: sp 0 + .ra: lr
STACK CFI 2cc30 .cfa: sp 8 + .ra: .cfa -4 + ^ r4: .cfa -8 + ^
STACK CFI INIT 2cc5c 12 .cfa: sp 0 + .ra: lr
STACK CFI 2cc5e .cfa: sp 8 + .ra: .cfa -4 + ^ r4: .cfa -8 + ^
STACK CFI INIT 2cc70 90 .cfa: sp 0 + .ra: lr
STACK CFI 2cc74 .cfa: sp 24 + .ra: .cfa -4 + ^ r4: .cfa -16 + ^ r5: .cfa -12 + ^ r6: .cfa -8 + ^
STACK CFI 2ccfa .cfa: sp 16 +
STACK CFI INIT 2cd00 12 .cfa: sp 0 + .ra: lr
STACK CFI 2cd02 .cfa: sp 8 + .ra: .cfa -4 + ^ r4: .cfa -8 + ^
STACK CFI INIT 203f0 34 .cfa: sp 0 + .ra: lr
STACK CFI 203f2 .cfa: sp 16 + .ra: .cfa -4 + ^ r3: .cfa -16 + ^ r4: .cfa -12 + ^ r5: .cfa -8 + ^
STACK CFI INIT 315c4 68 .cfa: sp 0 + .ra: lr
STACK CFI 315c6 .cfa: sp 16 + .ra: .cfa -4 + ^ r3: .cfa -16 + ^ r4: .cfa -12 + ^ r5: .cfa -8 + ^
STACK CFI INIT 3162c 170 .cfa: sp 0 + .ra: lr
STACK CFI 31630 .cfa: sp 36 + .ra: .cfa -4 + ^ r10: .cfa -12 + ^ r11: .cfa -8 + ^ r4: .cfa -36 + ^ r5: .cfa -32 + ^ r6: .cfa -28 + ^ r7: .cfa -24 + ^ r8: .cfa -20 + ^ r9: .cfa -16 + ^
STACK CFI 31632 .cfa: sp 56 +
STACK CFI 31782 .cfa: sp 36 +
STACK CFI 31786 .cfa: sp 56 +
STACK CFI INIT 3179c 2e .cfa: sp 0 + .ra: lr
STACK CFI INIT 20424 2c .cfa: sp 0 + .ra: lr
STACK CFI INIT 20450 2c .cfa: sp 0 + .ra: lr
STACK CFI INIT 2047c 9e .cfa: sp 0 + .ra: lr
STACK CFI 20480 .cfa: sp 24 + .ra: .cfa -4 + ^ r4: .cfa -24 + ^ r5: .cfa -20 + ^ r6: .cfa -16 + ^ r7: .cfa -12 + ^ r8: .cfa -8 + ^
STACK CFI INIT 317ca 6e .cfa: sp 0 + .ra: lr
STACK CFI 317ce .cfa: sp 24 + .ra: .cfa -4 + ^ r3: .cfa -24 + ^ r4: .cfa -20 + ^ r5: .cfa -16 + ^ r6: .cfa -12 + ^ r7: .cfa -8 + ^
STACK CFI INIT 31838 78 .cfa: sp 0 + .ra: lr
STACK CFI 3183c .cfa: sp 40 + .ra: .cfa -4 + ^ r4: .cfa -24 + ^ r5: .cfa -20 + ^ r6: .cfa -16 + ^ r7: .cfa -12 + ^ r8: .cfa -8 + ^
STACK CFI 318ac .cfa: sp 24 +
STACK CFI INIT 318b0 174 .cfa: sp 0 + .ra: lr
STACK CFI 318b4 .cfa: sp 36 + .ra: .cfa -4 + ^ r10: .cfa -12 + ^ r11: .cfa -8 + ^ r4: .cfa -36 + ^ r5: .cfa -32 + ^ r6: .cfa -28 + ^ r7: .cfa -24 + ^ r8: .cfa -20 + ^ r9: .cfa -16 + ^
STACK CFI 318bc .cfa: sp 56 +
STACK CFI 31a20 .cfa: sp 36 +
STACK CFI INIT 31a24 ac .cfa: sp 0 + .ra: lr
STACK CFI 31a2a .cfa: sp 28 + .ra: .cfa -4 + ^ r4: .cfa -28 + ^ r5: .cfa -24 + ^ r6: .cfa -20 + ^ r7: .cfa -16 + ^ r8: .cfa -12 + ^ r9: .cfa -8 + ^
STACK CFI 31a3a .cfa: sp 80 +
STACK CFI 31ac6 .cfa: sp 28 +
STACK CFI INIT 31ad0 a4 .cfa: sp 0 + .ra: lr
STACK CFI 31ad4 .cfa: sp 40 + .ra: .cfa -4 + ^ r4: .cfa -28 + ^ r5: .cfa -24 + ^ r6: .cfa -20 + ^ r7: .cfa -16 + ^ r8: .cfa -12 + ^ r9: .cfa -8 + ^
STACK CFI 31b70 .cfa: sp 28 +
