MODULE Linux arm64 D6D1FEC9A15DE7F38A236898871A2E770 breakpad_unittests
FUNC 20570 d8 0 testing::internal::ForkingDeathTest::Wait
FUNC 20648 44 0 sys_close
FUNC 2068c 16c 0 MinidumpWriter::WriteFile
FUNC 207f8 5c 0 MinidumpWriter::WriteProcFile
FUNC 20854 1c 0 std::allocator<std::locale::facet*>::deallocate
FUNC 20870 14 0 std::priv::_String_base<char, std::allocator<char> >::_M_throw_length_error
FUNC 20884 14 0 std::priv::_String_base<char, std::priv::__iostring_allocator<char> >::_M_throw_length_error
FUNC 20898 1c 0 std::allocator<wchar_t>::deallocate
FUNC 208b4 28 0 __cxxabiv1::::terminate_helper
FUNC 208dc 18 0 std::allocator<char>::deallocate
FUNC 208f4 858 0 _GLOBAL__sub_I__ZN40ExceptionHandlerTest_SimpleWithPath_Test10test_info_E
FUNC 2114c 6c 0 _GLOBAL__sub_I_microdump_writer_unittest.cc
FUNC 211b8 358 0 _GLOBAL__sub_I__ZN26CpuSetTest_EmptyCount_Test10test_info_E
FUNC 21510 6c 0 _GLOBAL__sub_I__ZN39DirectoryReaderTest_CompareResults_Test10test_info_E
FUNC 2157c 268 0 _GLOBAL__sub_I__ZN29LineReaderTest_EmptyFile_Test10test_info_E
FUNC 217e4 d8 0 _GLOBAL__sub_I__ZN38LinuxCoreDumperTest_BuildProcPath_Test10test_info_E
FUNC 218bc 2dc 0 _GLOBAL__sub_I__ZN37LinuxPtraceDumperChildTest_Setup_Test10test_info_E
FUNC 21b98 2b8 0 _GLOBAL__sub_I_minidump_writer_unittest.cc
FUNC 21e50 358 0 _GLOBAL__sub_I__ZN36ProcCpuInfoReaderTest_EmptyFile_Test10test_info_E
FUNC 221a8 128 0 _GLOBAL__sub_I__ZN39ElfCoreDumpTest_DefaultConstructor_Test10test_info_E
FUNC 222d0 a8 0 _GLOBAL__sub_I_gtest_FileIDTest_ElfClass_registered_
FUNC 22378 358 0 _GLOBAL__sub_I__ZN32LinuxLibcSupportTest_strlen_Test10test_info_E
FUNC 226d0 220 0 _GLOBAL__sub_I__ZN28PageAllocatorTest_Setup_Test10test_info_E
FUNC 228f0 268 0 _GLOBAL__sub_I__ZN15google_breakpad31NonAllocatingMapTest_Entry_Test10test_info_E
FUNC 22b58 3e8 0 _GLOBAL__sub_I__ZN47MinidumpMemoryRangeTest_DefaultConstructor_Test10test_info_E
FUNC 22f40 d8 0 _GLOBAL__sub_I__ZN32AndroidUContext_GRegsOffset_Test10test_info_E
FUNC 23018 238 0 _GLOBAL__sub_I_gtest.cc
FUNC 23250 e8 0 _GLOBAL__sub_I_gtest_death_test.cc
FUNC 23338 28 0 _GLOBAL__sub_I_gtest_port.cc
FUNC 23360 44 0 main
FUNC 233a4 88 0 _GLOBAL__sub_I_cxxabi.cc
FUNC 2342c 38 0 _GLOBAL__sub_I_locale_impl.cpp
FUNC 23464 40 0 _GLOBAL__sub_I_allocators.cpp
FUNC 2351c 4 0 testing::Test::SetUpTestCase
FUNC 23520 4 0 testing::Test::TearDownTestCase
FUNC 23524 8 0 testing::Test::Setup
FUNC 2352c 8 0 DoneCallbackReturnFalse
FUNC 23534 8 0 DoneCallbackReturnTrue
FUNC 2353c 8 0 FilterCallbackReturnFalse
FUNC 23544 8 0 FilterCallbackReturnTrue
FUNC 2354c 8 0 std::basic_streambuf<char, std::char_traits<char> >::overflow
FUNC 23554 4 0 std::basic_streambuf<char, std::char_traits<char> >::imbue
FUNC 23558 8 0 std::basic_streambuf<char, std::char_traits<char> >::sync
FUNC 23560 4 0 testing::internal::TestFactoryImpl<ExceptionHandlerTest_WriteMinidumpForChild_Test>::~TestFactoryImpl
FUNC 23564 4 0 testing::internal::TestFactoryImpl<ExceptionHandlerTest_AdditionalMemoryRemove_Test>::~TestFactoryImpl
FUNC 23568 4 0 testing::internal::TestFactoryImpl<ExceptionHandlerTest_AdditionalMemory_Test>::~TestFactoryImpl
FUNC 2356c 4 0 testing::internal::TestFactoryImpl<ExceptionHandlerTest_GenerateMultipleDumpsWithPath_Test>::~TestFactoryImpl
FUNC 23570 4 0 testing::internal::TestFactoryImpl<ExceptionHandlerTest_GenerateMultipleDumpsWithFD_Test>::~TestFactoryImpl
FUNC 23574 4 0 testing::internal::TestFactoryImpl<ExceptionHandlerTest_WriteMinidumpExceptionStream_Test>::~TestFactoryImpl
FUNC 23578 4 0 testing::internal::TestFactoryImpl<ExceptionHandlerTest_ExternalDumper_Test>::~TestFactoryImpl
FUNC 2357c 4 0 testing::internal::TestFactoryImpl<ExceptionHandlerTest_ModuleInfo_Test>::~TestFactoryImpl
FUNC 23580 4 0 testing::internal::TestFactoryImpl<ExceptionHandlerTest_InstructionPointerMemoryNullPointer_Test>::~TestFactoryImpl
FUNC 23584 4 0 testing::internal::TestFactoryImpl<ExceptionHandlerTest_InstructionPointerMemoryMaxBound_Test>::~TestFactoryImpl
FUNC 23588 4 0 testing::internal::TestFactoryImpl<ExceptionHandlerTest_InstructionPointerMemoryMinBound_Test>::~TestFactoryImpl
FUNC 2358c 4 0 testing::internal::TestFactoryImpl<ExceptionHandlerTest_InstructionPointerMemory_Test>::~TestFactoryImpl
FUNC 23590 4 0 testing::internal::TestFactoryImpl<ExceptionHandlerTest_StackedHandlersUnhandledToBottom_Test>::~TestFactoryImpl
FUNC 23594 4 0 testing::internal::TestFactoryImpl<ExceptionHandlerTest_StackedHandlersFilteredToBottom_Test>::~TestFactoryImpl
FUNC 23598 4 0 testing::internal::TestFactoryImpl<ExceptionHandlerTest_StackedHandlersNotDeliveredToBottom_Test>::~TestFactoryImpl
FUNC 2359c 4 0 testing::internal::TestFactoryImpl<ExceptionHandlerTest_StackedHandlersDeliveredToTop_Test>::~TestFactoryImpl
FUNC 235a0 4 0 testing::internal::TestFactoryImpl<ExceptionHandlerTest_RedeliveryOnBadSignalHandlerFlag_Test>::~TestFactoryImpl
FUNC 235a4 4 0 testing::internal::TestFactoryImpl<ExceptionHandlerTest_RedeliveryToDefaultHandler_Test>::~TestFactoryImpl
FUNC 235a8 4 0 testing::internal::TestFactoryImpl<ExceptionHandlerTest_NoRedeliveryOnFilterCallbackTrue_Test>::~TestFactoryImpl
FUNC 235ac 4 0 testing::internal::TestFactoryImpl<ExceptionHandlerTest_NoRedeliveryOnDoneCallbackTrue_Test>::~TestFactoryImpl
FUNC 235b0 4 0 testing::internal::TestFactoryImpl<ExceptionHandlerTest_RedeliveryOnDoneCallbackFalse_Test>::~TestFactoryImpl
FUNC 235b4 4 0 testing::internal::TestFactoryImpl<ExceptionHandlerTest_RedeliveryOnFilterCallbackFalse_Test>::~TestFactoryImpl
FUNC 235b8 4 0 testing::internal::TestFactoryImpl<ExceptionHandlerTest_ChildCrashWithFD_Test>::~TestFactoryImpl
FUNC 235bc 4 0 testing::internal::TestFactoryImpl<ExceptionHandlerTest_ChildCrashWithPath_Test>::~TestFactoryImpl
FUNC 235c0 4 0 testing::internal::TestFactoryImpl<ExceptionHandlerTest_SimpleWithFD_Test>::~TestFactoryImpl
FUNC 235c4 4 0 testing::internal::TestFactoryImpl<ExceptionHandlerTest_SimpleWithPath_Test>::~TestFactoryImpl
FUNC 235c8 8 0 std::basic_streambuf<char, std::char_traits<char> >::showmanyc
FUNC 235d0 1c 0 std::basic_stringbuf<char, std::char_traits<char>, std::allocator<char> >::underflow
FUNC 235ec 24 0 std::basic_stringbuf<char, std::char_traits<char>, std::allocator<char> >::uflow
FUNC 23610 6c 0 std::basic_stringbuf<char, std::char_traits<char>, std::allocator<char> >::pbackfail
FUNC 2367c 4 0 std::basic_streambuf<char, std::char_traits<char> >::setbuf
FUNC 23680 8 0 std::basic_streambuf<char, std::char_traits<char> >::underflow
FUNC 23688 40 0 std::basic_streambuf<char, std::char_traits<char> >::uflow
FUNC 236c8 8 0 std::basic_streambuf<char, std::char_traits<char> >::pbackfail
FUNC 236d0 4 0 testing::internal::TestFactoryImpl<ExceptionHandlerTest_SimpleWithPath_Test>::~TestFactoryImpl
FUNC 236d4 4 0 testing::internal::TestFactoryImpl<ExceptionHandlerTest_SimpleWithFD_Test>::~TestFactoryImpl
FUNC 236d8 4 0 testing::internal::TestFactoryImpl<ExceptionHandlerTest_ChildCrashWithPath_Test>::~TestFactoryImpl
FUNC 236dc 4 0 testing::internal::TestFactoryImpl<ExceptionHandlerTest_ChildCrashWithFD_Test>::~TestFactoryImpl
FUNC 236e0 4 0 testing::internal::TestFactoryImpl<ExceptionHandlerTest_RedeliveryOnFilterCallbackFalse_Test>::~TestFactoryImpl
FUNC 236e4 4 0 testing::internal::TestFactoryImpl<ExceptionHandlerTest_RedeliveryOnDoneCallbackFalse_Test>::~TestFactoryImpl
FUNC 236e8 4 0 testing::internal::TestFactoryImpl<ExceptionHandlerTest_NoRedeliveryOnDoneCallbackTrue_Test>::~TestFactoryImpl
FUNC 236ec 4 0 testing::internal::TestFactoryImpl<ExceptionHandlerTest_NoRedeliveryOnFilterCallbackTrue_Test>::~TestFactoryImpl
FUNC 236f0 4 0 testing::internal::TestFactoryImpl<ExceptionHandlerTest_RedeliveryToDefaultHandler_Test>::~TestFactoryImpl
FUNC 236f4 4 0 testing::internal::TestFactoryImpl<ExceptionHandlerTest_RedeliveryOnBadSignalHandlerFlag_Test>::~TestFactoryImpl
FUNC 236f8 4 0 testing::internal::TestFactoryImpl<ExceptionHandlerTest_StackedHandlersDeliveredToTop_Test>::~TestFactoryImpl
FUNC 236fc 4 0 testing::internal::TestFactoryImpl<ExceptionHandlerTest_StackedHandlersNotDeliveredToBottom_Test>::~TestFactoryImpl
FUNC 23700 4 0 testing::internal::TestFactoryImpl<ExceptionHandlerTest_StackedHandlersFilteredToBottom_Test>::~TestFactoryImpl
FUNC 23704 4 0 testing::internal::TestFactoryImpl<ExceptionHandlerTest_StackedHandlersUnhandledToBottom_Test>::~TestFactoryImpl
FUNC 23708 4 0 testing::internal::TestFactoryImpl<ExceptionHandlerTest_InstructionPointerMemory_Test>::~TestFactoryImpl
FUNC 2370c 4 0 testing::internal::TestFactoryImpl<ExceptionHandlerTest_InstructionPointerMemoryMinBound_Test>::~TestFactoryImpl
FUNC 23710 4 0 testing::internal::TestFactoryImpl<ExceptionHandlerTest_InstructionPointerMemoryMaxBound_Test>::~TestFactoryImpl
FUNC 23714 4 0 testing::internal::TestFactoryImpl<ExceptionHandlerTest_InstructionPointerMemoryNullPointer_Test>::~TestFactoryImpl
FUNC 23718 4 0 testing::internal::TestFactoryImpl<ExceptionHandlerTest_ModuleInfo_Test>::~TestFactoryImpl
FUNC 2371c 4 0 testing::internal::TestFactoryImpl<ExceptionHandlerTest_ExternalDumper_Test>::~TestFactoryImpl
FUNC 23720 4 0 testing::internal::TestFactoryImpl<ExceptionHandlerTest_WriteMinidumpExceptionStream_Test>::~TestFactoryImpl
FUNC 23724 4 0 testing::internal::TestFactoryImpl<ExceptionHandlerTest_GenerateMultipleDumpsWithFD_Test>::~TestFactoryImpl
FUNC 23728 4 0 testing::internal::TestFactoryImpl<ExceptionHandlerTest_GenerateMultipleDumpsWithPath_Test>::~TestFactoryImpl
FUNC 2372c 4 0 testing::internal::TestFactoryImpl<ExceptionHandlerTest_AdditionalMemory_Test>::~TestFactoryImpl
FUNC 23730 4 0 testing::internal::TestFactoryImpl<ExceptionHandlerTest_AdditionalMemoryRemove_Test>::~TestFactoryImpl
FUNC 23734 4 0 testing::internal::TestFactoryImpl<ExceptionHandlerTest_WriteMinidumpForChild_Test>::~TestFactoryImpl
FUNC 23738 b4 0 std::basic_streambuf<char, std::char_traits<char> >::xsputn
FUNC 237ec a8 0 std::basic_streambuf<char, std::char_traits<char> >::_M_xsputnc
FUNC 23894 14 0 std::basic_streambuf<char, std::char_traits<char> >::~basic_streambuf
FUNC 238a8 24 0 std::basic_streambuf<char, std::char_traits<char> >::~basic_streambuf
FUNC 238cc 14 0 std::basic_ios<char, std::char_traits<char> >::~basic_ios
FUNC 238e0 24 0 std::basic_ios<char, std::char_traits<char> >::~basic_ios
FUNC 23904 3c 0 InstallRaiseSIGKILL
FUNC 23940 8 0 RaiseSIGKILL
FUNC 23948 1c 0 DoneCallbackRaiseSIGKILL
FUNC 23964 14 0 ExceptionHandlerTest_WriteMinidumpForChild_Test::~ExceptionHandlerTest_WriteMinidumpForChild_Test
FUNC 23978 24 0 ExceptionHandlerTest_WriteMinidumpForChild_Test::~ExceptionHandlerTest_WriteMinidumpForChild_Test
FUNC 2399c 14 0 ExceptionHandlerTest_AdditionalMemoryRemove_Test::~ExceptionHandlerTest_AdditionalMemoryRemove_Test
FUNC 239b0 24 0 ExceptionHandlerTest_AdditionalMemoryRemove_Test::~ExceptionHandlerTest_AdditionalMemoryRemove_Test
FUNC 239d4 14 0 ExceptionHandlerTest_AdditionalMemory_Test::~ExceptionHandlerTest_AdditionalMemory_Test
FUNC 239e8 24 0 ExceptionHandlerTest_AdditionalMemory_Test::~ExceptionHandlerTest_AdditionalMemory_Test
FUNC 23a0c 14 0 ExceptionHandlerTest_GenerateMultipleDumpsWithPath_Test::~ExceptionHandlerTest_GenerateMultipleDumpsWithPath_Test
FUNC 23a20 24 0 ExceptionHandlerTest_GenerateMultipleDumpsWithPath_Test::~ExceptionHandlerTest_GenerateMultipleDumpsWithPath_Test
FUNC 23a44 14 0 ExceptionHandlerTest_GenerateMultipleDumpsWithFD_Test::~ExceptionHandlerTest_GenerateMultipleDumpsWithFD_Test
FUNC 23a58 24 0 ExceptionHandlerTest_GenerateMultipleDumpsWithFD_Test::~ExceptionHandlerTest_GenerateMultipleDumpsWithFD_Test
FUNC 23a7c 14 0 ExceptionHandlerTest_WriteMinidumpExceptionStream_Test::~ExceptionHandlerTest_WriteMinidumpExceptionStream_Test
FUNC 23a90 24 0 ExceptionHandlerTest_WriteMinidumpExceptionStream_Test::~ExceptionHandlerTest_WriteMinidumpExceptionStream_Test
FUNC 23ab4 14 0 ExceptionHandlerTest_ExternalDumper_Test::~ExceptionHandlerTest_ExternalDumper_Test
FUNC 23ac8 24 0 ExceptionHandlerTest_ExternalDumper_Test::~ExceptionHandlerTest_ExternalDumper_Test
FUNC 23aec 14 0 ExceptionHandlerTest_ModuleInfo_Test::~ExceptionHandlerTest_ModuleInfo_Test
FUNC 23b00 24 0 ExceptionHandlerTest_ModuleInfo_Test::~ExceptionHandlerTest_ModuleInfo_Test
FUNC 23b24 14 0 ExceptionHandlerTest_InstructionPointerMemoryNullPointer_Test::~ExceptionHandlerTest_InstructionPointerMemoryNullPointer_Test
FUNC 23b38 24 0 ExceptionHandlerTest_InstructionPointerMemoryNullPointer_Test::~ExceptionHandlerTest_InstructionPointerMemoryNullPointer_Test
FUNC 23b5c 14 0 ExceptionHandlerTest_InstructionPointerMemoryMaxBound_Test::~ExceptionHandlerTest_InstructionPointerMemoryMaxBound_Test
FUNC 23b70 24 0 ExceptionHandlerTest_InstructionPointerMemoryMaxBound_Test::~ExceptionHandlerTest_InstructionPointerMemoryMaxBound_Test
FUNC 23b94 14 0 ExceptionHandlerTest_InstructionPointerMemoryMinBound_Test::~ExceptionHandlerTest_InstructionPointerMemoryMinBound_Test
FUNC 23ba8 24 0 ExceptionHandlerTest_InstructionPointerMemoryMinBound_Test::~ExceptionHandlerTest_InstructionPointerMemoryMinBound_Test
FUNC 23bcc 14 0 ExceptionHandlerTest_InstructionPointerMemory_Test::~ExceptionHandlerTest_InstructionPointerMemory_Test
FUNC 23be0 24 0 ExceptionHandlerTest_InstructionPointerMemory_Test::~ExceptionHandlerTest_InstructionPointerMemory_Test
FUNC 23c04 14 0 ExceptionHandlerTest_StackedHandlersUnhandledToBottom_Test::~ExceptionHandlerTest_StackedHandlersUnhandledToBottom_Test
FUNC 23c18 24 0 ExceptionHandlerTest_StackedHandlersUnhandledToBottom_Test::~ExceptionHandlerTest_StackedHandlersUnhandledToBottom_Test
FUNC 23c3c 14 0 ExceptionHandlerTest_StackedHandlersFilteredToBottom_Test::~ExceptionHandlerTest_StackedHandlersFilteredToBottom_Test
FUNC 23c50 24 0 ExceptionHandlerTest_StackedHandlersFilteredToBottom_Test::~ExceptionHandlerTest_StackedHandlersFilteredToBottom_Test
FUNC 23c74 14 0 ExceptionHandlerTest_StackedHandlersNotDeliveredToBottom_Test::~ExceptionHandlerTest_StackedHandlersNotDeliveredToBottom_Test
FUNC 23c88 24 0 ExceptionHandlerTest_StackedHandlersNotDeliveredToBottom_Test::~ExceptionHandlerTest_StackedHandlersNotDeliveredToBottom_Test
FUNC 23cac 14 0 ExceptionHandlerTest_StackedHandlersDeliveredToTop_Test::~ExceptionHandlerTest_StackedHandlersDeliveredToTop_Test
FUNC 23cc0 24 0 ExceptionHandlerTest_StackedHandlersDeliveredToTop_Test::~ExceptionHandlerTest_StackedHandlersDeliveredToTop_Test
FUNC 23ce4 14 0 ExceptionHandlerTest_RedeliveryOnBadSignalHandlerFlag_Test::~ExceptionHandlerTest_RedeliveryOnBadSignalHandlerFlag_Test
FUNC 23cf8 24 0 ExceptionHandlerTest_RedeliveryOnBadSignalHandlerFlag_Test::~ExceptionHandlerTest_RedeliveryOnBadSignalHandlerFlag_Test
FUNC 23d1c 14 0 ExceptionHandlerTest_RedeliveryToDefaultHandler_Test::~ExceptionHandlerTest_RedeliveryToDefaultHandler_Test
FUNC 23d30 24 0 ExceptionHandlerTest_RedeliveryToDefaultHandler_Test::~ExceptionHandlerTest_RedeliveryToDefaultHandler_Test
FUNC 23d54 14 0 ExceptionHandlerTest_NoRedeliveryOnFilterCallbackTrue_Test::~ExceptionHandlerTest_NoRedeliveryOnFilterCallbackTrue_Test
FUNC 23d68 24 0 ExceptionHandlerTest_NoRedeliveryOnFilterCallbackTrue_Test::~ExceptionHandlerTest_NoRedeliveryOnFilterCallbackTrue_Test
FUNC 23d8c 14 0 ExceptionHandlerTest_NoRedeliveryOnDoneCallbackTrue_Test::~ExceptionHandlerTest_NoRedeliveryOnDoneCallbackTrue_Test
FUNC 23da0 24 0 ExceptionHandlerTest_NoRedeliveryOnDoneCallbackTrue_Test::~ExceptionHandlerTest_NoRedeliveryOnDoneCallbackTrue_Test
FUNC 23dc4 14 0 ExceptionHandlerTest_RedeliveryOnDoneCallbackFalse_Test::~ExceptionHandlerTest_RedeliveryOnDoneCallbackFalse_Test
FUNC 23dd8 24 0 ExceptionHandlerTest_RedeliveryOnDoneCallbackFalse_Test::~ExceptionHandlerTest_RedeliveryOnDoneCallbackFalse_Test
FUNC 23dfc 14 0 ExceptionHandlerTest_RedeliveryOnFilterCallbackFalse_Test::~ExceptionHandlerTest_RedeliveryOnFilterCallbackFalse_Test
FUNC 23e10 24 0 ExceptionHandlerTest_RedeliveryOnFilterCallbackFalse_Test::~ExceptionHandlerTest_RedeliveryOnFilterCallbackFalse_Test
FUNC 23e34 14 0 ExceptionHandlerTest_ChildCrashWithFD_Test::~ExceptionHandlerTest_ChildCrashWithFD_Test
FUNC 23e48 24 0 ExceptionHandlerTest_ChildCrashWithFD_Test::~ExceptionHandlerTest_ChildCrashWithFD_Test
FUNC 23e6c 14 0 ExceptionHandlerTest_ChildCrashWithPath_Test::~ExceptionHandlerTest_ChildCrashWithPath_Test
FUNC 23e80 24 0 ExceptionHandlerTest_ChildCrashWithPath_Test::~ExceptionHandlerTest_ChildCrashWithPath_Test
FUNC 23ea4 14 0 ExceptionHandlerTest_SimpleWithFD_Test::~ExceptionHandlerTest_SimpleWithFD_Test
FUNC 23eb8 24 0 ExceptionHandlerTest_SimpleWithFD_Test::~ExceptionHandlerTest_SimpleWithFD_Test
FUNC 23edc 14 0 ExceptionHandlerTest_SimpleWithPath_Test::~ExceptionHandlerTest_SimpleWithPath_Test
FUNC 23ef0 24 0 ExceptionHandlerTest_SimpleWithPath_Test::~ExceptionHandlerTest_SimpleWithPath_Test
FUNC 23f14 194 0 CrashHandler
FUNC 240a8 d4 0 DoneCallback
FUNC 2417c 3c 0 testing::internal::TestFactoryImpl<ExceptionHandlerTest_WriteMinidumpForChild_Test>::CreateTest
FUNC 241b8 3c 0 testing::internal::TestFactoryImpl<ExceptionHandlerTest_AdditionalMemoryRemove_Test>::CreateTest
FUNC 241f4 3c 0 testing::internal::TestFactoryImpl<ExceptionHandlerTest_AdditionalMemory_Test>::CreateTest
FUNC 24230 3c 0 testing::internal::TestFactoryImpl<ExceptionHandlerTest_NoRedeliveryOnDoneCallbackTrue_Test>::CreateTest
FUNC 2426c 3c 0 testing::internal::TestFactoryImpl<ExceptionHandlerTest_RedeliveryOnDoneCallbackFalse_Test>::CreateTest
FUNC 242a8 3c 0 testing::internal::TestFactoryImpl<ExceptionHandlerTest_RedeliveryOnFilterCallbackFalse_Test>::CreateTest
FUNC 242e4 3c 0 testing::internal::TestFactoryImpl<ExceptionHandlerTest_ChildCrashWithFD_Test>::CreateTest
FUNC 24320 3c 0 testing::internal::TestFactoryImpl<ExceptionHandlerTest_ChildCrashWithPath_Test>::CreateTest
FUNC 2435c 3c 0 testing::internal::TestFactoryImpl<ExceptionHandlerTest_SimpleWithFD_Test>::CreateTest
FUNC 24398 3c 0 testing::internal::TestFactoryImpl<ExceptionHandlerTest_SimpleWithPath_Test>::CreateTest
FUNC 243d4 3c 0 testing::internal::TestFactoryImpl<ExceptionHandlerTest_GenerateMultipleDumpsWithPath_Test>::CreateTest
FUNC 24410 3c 0 testing::internal::TestFactoryImpl<ExceptionHandlerTest_GenerateMultipleDumpsWithFD_Test>::CreateTest
FUNC 2444c 3c 0 testing::internal::TestFactoryImpl<ExceptionHandlerTest_WriteMinidumpExceptionStream_Test>::CreateTest
FUNC 24488 3c 0 testing::internal::TestFactoryImpl<ExceptionHandlerTest_ExternalDumper_Test>::CreateTest
FUNC 244c4 3c 0 testing::internal::TestFactoryImpl<ExceptionHandlerTest_ModuleInfo_Test>::CreateTest
FUNC 24500 3c 0 testing::internal::TestFactoryImpl<ExceptionHandlerTest_InstructionPointerMemoryNullPointer_Test>::CreateTest
FUNC 2453c 3c 0 testing::internal::TestFactoryImpl<ExceptionHandlerTest_InstructionPointerMemoryMaxBound_Test>::CreateTest
FUNC 24578 3c 0 testing::internal::TestFactoryImpl<ExceptionHandlerTest_InstructionPointerMemoryMinBound_Test>::CreateTest
FUNC 245b4 3c 0 testing::internal::TestFactoryImpl<ExceptionHandlerTest_InstructionPointerMemory_Test>::CreateTest
FUNC 245f0 3c 0 testing::internal::TestFactoryImpl<ExceptionHandlerTest_StackedHandlersUnhandledToBottom_Test>::CreateTest
FUNC 2462c 3c 0 testing::internal::TestFactoryImpl<ExceptionHandlerTest_StackedHandlersFilteredToBottom_Test>::CreateTest
FUNC 24668 3c 0 testing::internal::TestFactoryImpl<ExceptionHandlerTest_StackedHandlersNotDeliveredToBottom_Test>::CreateTest
FUNC 246a4 3c 0 testing::internal::TestFactoryImpl<ExceptionHandlerTest_StackedHandlersDeliveredToTop_Test>::CreateTest
FUNC 246e0 3c 0 testing::internal::TestFactoryImpl<ExceptionHandlerTest_RedeliveryOnBadSignalHandlerFlag_Test>::CreateTest
FUNC 2471c 3c 0 testing::internal::TestFactoryImpl<ExceptionHandlerTest_RedeliveryToDefaultHandler_Test>::CreateTest
FUNC 24758 3c 0 testing::internal::TestFactoryImpl<ExceptionHandlerTest_NoRedeliveryOnFilterCallbackTrue_Test>::CreateTest
FUNC 24794 b0 0 std::basic_streambuf<char, std::char_traits<char> >::xsgetn
FUNC 24844 40 0 std::priv::__ucopy_trivial
FUNC 24884 1c 0 testing::AssertionResult::message
FUNC 248a0 48 0 testing::internal::scoped_ptr<std::basic_stringstream<char, std::char_traits<char>, std::allocator<char> > >::~scoped_ptr
FUNC 248e8 30 0 std::priv::_String_base<char, std::allocator<char> >::_M_deallocate_block
FUNC 24918 28 0 google_breakpad::MinidumpDescriptor::~MinidumpDescriptor
FUNC 24940 34 0 std::basic_stringbuf<char, std::char_traits<char>, std::allocator<char> >::~basic_stringbuf
FUNC 24974 24 0 std::basic_stringbuf<char, std::char_traits<char>, std::allocator<char> >::~basic_stringbuf
FUNC 24998 60 0 testing::internal::scoped_ptr<std::basic_string<char, std::char_traits<char>, std::allocator<char> > >::reset
FUNC 249f8 8 0 testing::internal::scoped_ptr<std::basic_string<char, std::char_traits<char>, std::allocator<char> > >::~scoped_ptr
FUNC 24a00 fc 0 std::basic_ios<char, std::char_traits<char> >::init
FUNC 24afc b4 0 std::basic_iostream<char, std::char_traits<char> >::basic_iostream
FUNC 24bb0 b0 0 std::basic_iostream<char, std::char_traits<char> >::basic_iostream
FUNC 24c60 98 0 std::__stlp_string_fill<char, std::char_traits<char> >
FUNC 24cf8 1c 0 std::basic_streambuf<char, std::char_traits<char> >::sputn
FUNC 24d14 3c 0 std::basic_ios<char, std::char_traits<char> >::setstate
FUNC 24d50 60 0 std::basic_string<char, std::char_traits<char>, std::allocator<char> >::erase
FUNC 24db0 68 0 std::priv::_String_base<char, std::allocator<char> >::_M_allocate_block
FUNC 24e18 34 0 std::basic_string<char, std::char_traits<char>, std::allocator<char> >::basic_string
FUNC 24e4c 50 0 google_breakpad::MinidumpDescriptor::MinidumpDescriptor
FUNC 24e9c bc 0 std::basic_stringstream<char, std::char_traits<char>, std::allocator<char> >::basic_stringstream
FUNC 24f58 e8 0 std::basic_stringstream<char, std::char_traits<char>, std::allocator<char> >::basic_stringstream
FUNC 25040 64 0 std::basic_string<char, std::char_traits<char>, std::allocator<char> >::basic_string
FUNC 250a4 58 0 std::basic_string<char, std::char_traits<char>, std::allocator<char> >::basic_string
FUNC 250fc 4c 0 google_breakpad::MinidumpDescriptor::MinidumpDescriptor
FUNC 25148 7c 0 CrashWithCallbacks
FUNC 251c4 2c 0 std::use_facet<std::num_put<char, std::ostreambuf_iterator<char, std::char_traits<char> > > >
FUNC 251f0 8c 0 std::basic_istream<char, std::char_traits<char> >::~basic_istream
FUNC 2527c c 0 std::basic_istream<char, std::char_traits<char> >::~basic_istream
FUNC 25298 24 0 std::basic_istream<char, std::char_traits<char> >::~basic_istream
FUNC 252cc c 0 std::basic_istream<char, std::char_traits<char> >::~basic_istream
FUNC 252d8 8c 0 std::basic_ostream<char, std::char_traits<char> >::~basic_ostream
FUNC 25364 c 0 std::basic_ostream<char, std::char_traits<char> >::~basic_ostream
FUNC 25380 24 0 std::basic_ostream<char, std::char_traits<char> >::~basic_ostream
FUNC 253b4 c 0 std::basic_ostream<char, std::char_traits<char> >::~basic_ostream
FUNC 253c0 e0 0 std::basic_iostream<char, std::char_traits<char> >::~basic_iostream
FUNC 254a0 c 0 std::basic_iostream<char, std::char_traits<char> >::~basic_iostream
FUNC 254ac cc 0 std::basic_stringstream<char, std::char_traits<char>, std::allocator<char> >::~basic_stringstream
FUNC 25578 c 0 std::basic_stringstream<char, std::char_traits<char>, std::allocator<char> >::~basic_stringstream
FUNC 25584 c 0 std::basic_stringstream<char, std::char_traits<char>, std::allocator<char> >::~basic_stringstream
FUNC 255a8 24 0 std::basic_stringstream<char, std::char_traits<char>, std::allocator<char> >::~basic_stringstream
FUNC 255e4 c 0 std::basic_iostream<char, std::char_traits<char> >::~basic_iostream
FUNC 25608 24 0 std::basic_iostream<char, std::char_traits<char> >::~basic_iostream
FUNC 25644 5c 0 std::basic_ostream<char, std::char_traits<char> >::flush
FUNC 256a0 78 0 std::priv::__init_bostr<char, std::char_traits<char> >
FUNC 25718 50 0 std::basic_ostream<char, std::char_traits<char> >::sentry::~sentry
FUNC 25768 13c 0 std::basic_ostream<char, std::char_traits<char> >::_M_put_nowiden
FUNC 258a4 c0 0 std::priv::__put_num<char, std::char_traits<char>, long int>
FUNC 25964 104 0 std::operator<< <char, std::char_traits<char>, std::allocator<char> >
FUNC 25a68 c0 0 std::priv::__put_num<char, std::char_traits<char>, void const*>
FUNC 25b28 2c 0 std::priv::_String_base<char, std::allocator<char> >::_M_rest
FUNC 25b54 5c 0 std::basic_string<char, std::char_traits<char>, std::allocator<char> >::_M_compute_next_size
FUNC 25bb0 164 0 std::basic_string<char, std::char_traits<char>, std::allocator<char> >::_M_append
FUNC 25d14 90 0 std::basic_string<char, std::char_traits<char>, std::allocator<char> >::_M_assign
FUNC 25da4 234 0 google_breakpad::AutoTempDir::AutoTempDir
FUNC 25fd8 34 0 std::basic_string<char, std::char_traits<char>, std::allocator<char> >::operator=
FUNC 2600c 24 0 SimpleCallback
FUNC 26030 98 0 testing::AssertionResult::AppendMessage
FUNC 260c8 c0 0 std::priv::__put_num<char, std::char_traits<char>, long unsigned int>
FUNC 26188 54 0 testing::AssertionResult::operator<< <char [12]>
FUNC 261dc 64 0 testing::AssertionResult::operator<< <char const*>
FUNC 26240 54 0 testing::AssertionResult::operator<< <char [3]>
FUNC 26294 54 0 testing::AssertionResult::operator<< <std::basic_string<char, std::char_traits<char>, std::allocator<char> > >
FUNC 262e8 54 0 testing::AssertionResult::operator<< <char [5]>
FUNC 2633c 104 0 std::basic_string<char, std::char_traits<char>, std::allocator<char> >::_M_appendT<char const*>
FUNC 26440 8c 0 std::operator+<char, std::char_traits<char>, std::allocator<char> >
FUNC 264cc 370 0 google_breakpad::AutoTempDir::DeleteRecursively
FUNC 2683c 28 0 google_breakpad::AutoTempDir::~AutoTempDir
FUNC 26864 70 0 CreateTMPFile
FUNC 268d4 b0 0 ExceptionHandlerTest_SimpleWithFD_Test::TestBody
FUNC 26984 124 0 std::basic_stringbuf<char, std::char_traits<char>, std::allocator<char> >::xsputn
FUNC 26aa8 88 0 testing::PrintToString<int>
FUNC 26b30 114 0 testing::internal::CmpHelperOpFailure<int, int>
FUNC 26c44 44 0 testing::internal::CmpHelperNE<int, int>
FUNC 26c88 9c 0 testing::internal::CmpHelperEQ<int, int>
FUNC 26d24 1f8 0 WaitForProcessToTerminate
FUNC 26f1c 5c 0 testing::PrintToString<long int>
FUNC 26f78 9c 0 testing::internal::CmpHelperEQ<long int, long int>
FUNC 27014 9c 0 testing::internal::CmpHelperEQ<int, long int>
FUNC 270b0 39c 0 ReadMinidumpPathFromPipe
FUNC 2744c 134 0 testing::internal::CmpHelperGT<long int, int>
FUNC 27580 2d0 0 ExceptionHandlerTest_GenerateMultipleDumpsWithFD_Test::TestBody
FUNC 27850 88 0 testing::PrintToString<void*>
FUNC 278d8 114 0 testing::internal::CmpHelperOpFailure<void*, void*>
FUNC 279ec 5c 0 testing::PrintToString<unsigned int>
FUNC 27a48 134 0 testing::internal::CmpHelperLT<unsigned int, unsigned int>
FUNC 27b7c 9c 0 testing::internal::CmpHelperEQ<unsigned int, unsigned int>
FUNC 27c18 158 0 testing::internal::CmpHelperEQFailure<MDExceptionCodeLinux, unsigned int>
FUNC 27d70 5c 0 testing::PrintToString<std::basic_string<char, std::char_traits<char>, std::allocator<char> > >
FUNC 27dcc c0 0 testing::internal::CmpHelperEQ<std::basic_string<char, std::char_traits<char>, std::allocator<char> >, std::basic_string<char, std::char_traits<char>, std::allocator<char> > >
FUNC 27e8c 1e8 0 ExceptionHandlerTest_SimpleWithPath_Test::TestBody
FUNC 28074 5c 0 testing::PrintToString<long unsigned int>
FUNC 280d0 9c 0 testing::internal::CmpHelperEQ<long unsigned int, unsigned int>
FUNC 2816c 9c 0 testing::internal::CmpHelperEQ<unsigned int, long unsigned int>
FUNC 28208 9c 0 testing::internal::CmpHelperEQ<long unsigned int, long unsigned int>
FUNC 282a4 28 0 std::fpos<mbstate_t>::fpos
FUNC 282cc 20 0 std::basic_streambuf<char, std::char_traits<char> >::seekpos
FUNC 282ec 20 0 std::basic_streambuf<char, std::char_traits<char> >::seekoff
FUNC 2830c 110 0 std::basic_stringbuf<char, std::char_traits<char>, std::allocator<char> >::seekoff
FUNC 2841c 124 0 std::basic_stringbuf<char, std::char_traits<char>, std::allocator<char> >::seekpos
FUNC 28540 b0 0 std::basic_string<char, std::char_traits<char>, std::allocator<char> >::_M_reserve
FUNC 285f0 60 0 std::basic_string<char, std::char_traits<char>, std::allocator<char> >::push_back
FUNC 28650 c4 0 std::basic_stringbuf<char, std::char_traits<char>, std::allocator<char> >::overflow
FUNC 28714 b8 0 std::basic_string<char, std::char_traits<char>, std::allocator<char> >::append
FUNC 287cc 10c 0 std::basic_stringbuf<char, std::char_traits<char>, std::allocator<char> >::_M_xsputnc
FUNC 288d8 f0 0 std::basic_stringbuf<char, std::char_traits<char>, std::allocator<char> >::setbuf
FUNC 289c8 3e4 0 ChildCrash
FUNC 28dac a8 0 ExceptionHandlerTest_ChildCrashWithPath_Test::TestBody
FUNC 28e54 a8 0 ExceptionHandlerTest_ChildCrashWithFD_Test::TestBody
FUNC 28efc 1a4 0 ExceptionHandlerTest_RedeliveryOnFilterCallbackFalse_Test::TestBody
FUNC 290a0 1a4 0 ExceptionHandlerTest_RedeliveryOnDoneCallbackFalse_Test::TestBody
FUNC 29244 1a4 0 ExceptionHandlerTest_NoRedeliveryOnDoneCallbackTrue_Test::TestBody
FUNC 293e8 1a4 0 ExceptionHandlerTest_NoRedeliveryOnFilterCallbackTrue_Test::TestBody
FUNC 2958c fc 0 ExceptionHandlerTest_RedeliveryToDefaultHandler_Test::TestBody
FUNC 29688 324 0 ExceptionHandlerTest_RedeliveryOnBadSignalHandlerFlag_Test::TestBody
FUNC 299ac 13c 0 ExceptionHandlerTest_StackedHandlersDeliveredToTop_Test::TestBody
FUNC 29ae8 13c 0 ExceptionHandlerTest_StackedHandlersNotDeliveredToBottom_Test::TestBody
FUNC 29c24 140 0 ExceptionHandlerTest_StackedHandlersFilteredToBottom_Test::TestBody
FUNC 29d64 140 0 ExceptionHandlerTest_StackedHandlersUnhandledToBottom_Test::TestBody
FUNC 29ea4 9c4 0 ExceptionHandlerTest_ExternalDumper_Test::TestBody
FUNC 2a868 aa4 0 ExceptionHandlerTest_InstructionPointerMemory_Test::TestBody
FUNC 2b30c 9b4 0 ExceptionHandlerTest_InstructionPointerMemoryMinBound_Test::TestBody
FUNC 2bcc0 9b8 0 ExceptionHandlerTest_InstructionPointerMemoryMaxBound_Test::TestBody
FUNC 2c678 5b4 0 ExceptionHandlerTest_InstructionPointerMemoryNullPointer_Test::TestBody
FUNC 2cc2c 8d8 0 ExceptionHandlerTest_ModuleInfo_Test::TestBody
FUNC 2d504 370 0 ExceptionHandlerTest_WriteMinidumpExceptionStream_Test::TestBody
FUNC 2d874 5b8 0 ExceptionHandlerTest_GenerateMultipleDumpsWithPath_Test::TestBody
FUNC 2de2c 488 0 ExceptionHandlerTest_AdditionalMemory_Test::TestBody
FUNC 2e2b4 2d0 0 ExceptionHandlerTest_AdditionalMemoryRemove_Test::TestBody
FUNC 2e584 540 0 ExceptionHandlerTest_WriteMinidumpForChild_Test::TestBody
FUNC 2eac4 4 0 testing::internal::TestFactoryImpl<(anonymous namespace)::MicrodumpWriterTest_Setup_Test>::~TestFactoryImpl
FUNC 2eac8 3c 0 testing::internal::TestFactoryImpl<(anonymous namespace)::MicrodumpWriterTest_Setup_Test>::CreateTest
FUNC 2eb04 4 0 testing::internal::TestFactoryImpl<(anonymous namespace)::MicrodumpWriterTest_Setup_Test>::~TestFactoryImpl
FUNC 2eb08 14 0 MicrodumpWriterTest_Setup_Test::~MicrodumpWriterTest_Setup_Test
FUNC 2eb1c 24 0 MicrodumpWriterTest_Setup_Test::~MicrodumpWriterTest_Setup_Test
FUNC 2eb40 18 0 std::__node_alloc::allocate
FUNC 2eb58 88 0 testing::PrintToString<void const*>
FUNC 2ebe0 148 0 testing::internal::CmpHelperNE<char*, char*>
FUNC 2ed28 a7c 0 MicrodumpWriterTest_Setup_Test::TestBody
FUNC 2f7a4 4 0 testing::internal::TestFactoryImpl<CpuSetTest_EmptyIntersection_Test>::~TestFactoryImpl
FUNC 2f7a8 4 0 testing::internal::TestFactoryImpl<CpuSetTest_SelfIntersection_Test>::~TestFactoryImpl
FUNC 2f7ac 4 0 testing::internal::TestFactoryImpl<CpuSetTest_IntersectWith_Test>::~TestFactoryImpl
FUNC 2f7b0 4 0 testing::internal::TestFactoryImpl<CpuSetTest_MultiItems_Test>::~TestFactoryImpl
FUNC 2f7b4 4 0 testing::internal::TestFactoryImpl<CpuSetTest_TenCpusWithRange_Test>::~TestFactoryImpl
FUNC 2f7b8 4 0 testing::internal::TestFactoryImpl<CpuSetTest_TwoCpusWithRange_Test>::~TestFactoryImpl
FUNC 2f7bc 4 0 testing::internal::TestFactoryImpl<CpuSetTest_TwoCpusWithComma_Test>::~TestFactoryImpl
FUNC 2f7c0 4 0 testing::internal::TestFactoryImpl<CpuSetTest_OneCpuTerminated_Test>::~TestFactoryImpl
FUNC 2f7c4 4 0 testing::internal::TestFactoryImpl<CpuSetTest_OneCpu_Test>::~TestFactoryImpl
FUNC 2f7c8 4 0 testing::internal::TestFactoryImpl<CpuSetTest_EmptyCount_Test>::~TestFactoryImpl
FUNC 2f7cc 4 0 testing::internal::TestFactoryImpl<CpuSetTest_EmptyCount_Test>::~TestFactoryImpl
FUNC 2f7d0 4 0 testing::internal::TestFactoryImpl<CpuSetTest_OneCpu_Test>::~TestFactoryImpl
FUNC 2f7d4 4 0 testing::internal::TestFactoryImpl<CpuSetTest_OneCpuTerminated_Test>::~TestFactoryImpl
FUNC 2f7d8 4 0 testing::internal::TestFactoryImpl<CpuSetTest_TwoCpusWithComma_Test>::~TestFactoryImpl
FUNC 2f7dc 4 0 testing::internal::TestFactoryImpl<CpuSetTest_TwoCpusWithRange_Test>::~TestFactoryImpl
FUNC 2f7e0 4 0 testing::internal::TestFactoryImpl<CpuSetTest_TenCpusWithRange_Test>::~TestFactoryImpl
FUNC 2f7e4 4 0 testing::internal::TestFactoryImpl<CpuSetTest_MultiItems_Test>::~TestFactoryImpl
FUNC 2f7e8 4 0 testing::internal::TestFactoryImpl<CpuSetTest_IntersectWith_Test>::~TestFactoryImpl
FUNC 2f7ec 4 0 testing::internal::TestFactoryImpl<CpuSetTest_SelfIntersection_Test>::~TestFactoryImpl
FUNC 2f7f0 4 0 testing::internal::TestFactoryImpl<CpuSetTest_EmptyIntersection_Test>::~TestFactoryImpl
FUNC 2f7f4 14 0 CpuSetTest_EmptyIntersection_Test::~CpuSetTest_EmptyIntersection_Test
FUNC 2f808 24 0 CpuSetTest_EmptyIntersection_Test::~CpuSetTest_EmptyIntersection_Test
FUNC 2f82c 14 0 CpuSetTest_SelfIntersection_Test::~CpuSetTest_SelfIntersection_Test
FUNC 2f840 24 0 CpuSetTest_SelfIntersection_Test::~CpuSetTest_SelfIntersection_Test
FUNC 2f864 14 0 CpuSetTest_IntersectWith_Test::~CpuSetTest_IntersectWith_Test
FUNC 2f878 24 0 CpuSetTest_IntersectWith_Test::~CpuSetTest_IntersectWith_Test
FUNC 2f89c 14 0 CpuSetTest_MultiItems_Test::~CpuSetTest_MultiItems_Test
FUNC 2f8b0 24 0 CpuSetTest_MultiItems_Test::~CpuSetTest_MultiItems_Test
FUNC 2f8d4 14 0 CpuSetTest_TenCpusWithRange_Test::~CpuSetTest_TenCpusWithRange_Test
FUNC 2f8e8 24 0 CpuSetTest_TenCpusWithRange_Test::~CpuSetTest_TenCpusWithRange_Test
FUNC 2f90c 14 0 CpuSetTest_TwoCpusWithRange_Test::~CpuSetTest_TwoCpusWithRange_Test
FUNC 2f920 24 0 CpuSetTest_TwoCpusWithRange_Test::~CpuSetTest_TwoCpusWithRange_Test
FUNC 2f944 14 0 CpuSetTest_TwoCpusWithComma_Test::~CpuSetTest_TwoCpusWithComma_Test
FUNC 2f958 24 0 CpuSetTest_TwoCpusWithComma_Test::~CpuSetTest_TwoCpusWithComma_Test
FUNC 2f97c 14 0 CpuSetTest_OneCpuTerminated_Test::~CpuSetTest_OneCpuTerminated_Test
FUNC 2f990 24 0 CpuSetTest_OneCpuTerminated_Test::~CpuSetTest_OneCpuTerminated_Test
FUNC 2f9b4 14 0 CpuSetTest_OneCpu_Test::~CpuSetTest_OneCpu_Test
FUNC 2f9c8 24 0 CpuSetTest_OneCpu_Test::~CpuSetTest_OneCpu_Test
FUNC 2f9ec 14 0 CpuSetTest_EmptyCount_Test::~CpuSetTest_EmptyCount_Test
FUNC 2fa00 24 0 CpuSetTest_EmptyCount_Test::~CpuSetTest_EmptyCount_Test
FUNC 2fa24 3c 0 testing::internal::TestFactoryImpl<CpuSetTest_EmptyIntersection_Test>::CreateTest
FUNC 2fa60 3c 0 testing::internal::TestFactoryImpl<CpuSetTest_SelfIntersection_Test>::CreateTest
FUNC 2fa9c 3c 0 testing::internal::TestFactoryImpl<CpuSetTest_IntersectWith_Test>::CreateTest
FUNC 2fad8 3c 0 testing::internal::TestFactoryImpl<CpuSetTest_MultiItems_Test>::CreateTest
FUNC 2fb14 3c 0 testing::internal::TestFactoryImpl<CpuSetTest_TenCpusWithRange_Test>::CreateTest
FUNC 2fb50 3c 0 testing::internal::TestFactoryImpl<CpuSetTest_TwoCpusWithRange_Test>::CreateTest
FUNC 2fb8c 3c 0 testing::internal::TestFactoryImpl<CpuSetTest_TwoCpusWithComma_Test>::CreateTest
FUNC 2fbc8 3c 0 testing::internal::TestFactoryImpl<CpuSetTest_OneCpuTerminated_Test>::CreateTest
FUNC 2fc04 3c 0 testing::internal::TestFactoryImpl<CpuSetTest_OneCpu_Test>::CreateTest
FUNC 2fc40 3c 0 testing::internal::TestFactoryImpl<CpuSetTest_EmptyCount_Test>::CreateTest
FUNC 2fc7c c 0 google_breakpad::CpuSet::CpuSet
FUNC 2fc88 184 0 google_breakpad::CpuSet::ParseSysFile
FUNC 2fe0c 48 0 google_breakpad::CpuSet::GetCount
FUNC 2fe54 10 0 google_breakpad::AutoTestFile::~AutoTestFile
FUNC 2fe64 68 0 google_breakpad::AutoTestFile::Init
FUNC 2fecc ac 0 ScopedTestFile::ScopedTestFile
FUNC 2ff78 c4 0 CpuSetTest_EmptyCount_Test::TestBody
FUNC 3003c 224 0 CpuSetTest_OneCpu_Test::TestBody
FUNC 30260 224 0 CpuSetTest_OneCpuTerminated_Test::TestBody
FUNC 30484 224 0 CpuSetTest_TwoCpusWithComma_Test::TestBody
FUNC 306a8 224 0 CpuSetTest_TwoCpusWithRange_Test::TestBody
FUNC 308cc 224 0 CpuSetTest_TenCpusWithRange_Test::TestBody
FUNC 30af0 224 0 CpuSetTest_MultiItems_Test::TestBody
FUNC 30d14 54c 0 CpuSetTest_IntersectWith_Test::TestBody
FUNC 31260 290 0 CpuSetTest_SelfIntersection_Test::TestBody
FUNC 314f0 540 0 CpuSetTest_EmptyIntersection_Test::TestBody
FUNC 31a30 4 0 testing::internal::TestFactoryImpl<DirectoryReaderTest_CompareResults_Test>::~TestFactoryImpl
FUNC 31a34 4 0 testing::internal::TestFactoryImpl<DirectoryReaderTest_CompareResults_Test>::~TestFactoryImpl
FUNC 31a38 14 0 DirectoryReaderTest_CompareResults_Test::~DirectoryReaderTest_CompareResults_Test
FUNC 31a4c 24 0 DirectoryReaderTest_CompareResults_Test::~DirectoryReaderTest_CompareResults_Test
FUNC 31a70 3c 0 testing::internal::TestFactoryImpl<DirectoryReaderTest_CompareResults_Test>::CreateTest
FUNC 31aac 4c 0 std::priv::_Rb_tree<std::basic_string<char, std::char_traits<char>, std::allocator<char> >, std::less<std::basic_string<char, std::char_traits<char>, std::allocator<char> > >, std::basic_string<char, std::char_traits<char>, std::allocator<char> >, std::priv::_Identity<std::basic_string<char, std::char_traits<char>, std::allocator<char> > >, std::priv::_SetTraitsT<std::basic_string<char, std::char_traits<char>, std::allocator<char> > >, std::allocator<std::basic_string<char, std::char_traits<char>, std::allocator<char> > > >::_M_create_node
FUNC 31af8 58 0 std::priv::_Rb_tree<std::basic_string<char, std::char_traits<char>, std::allocator<char> >, std::less<std::basic_string<char, std::char_traits<char>, std::allocator<char> > >, std::basic_string<char, std::char_traits<char>, std::allocator<char> >, std::priv::_Identity<std::basic_string<char, std::char_traits<char>, std::allocator<char> > >, std::priv::_SetTraitsT<std::basic_string<char, std::char_traits<char>, std::allocator<char> > >, std::allocator<std::basic_string<char, std::char_traits<char>, std::allocator<char> > > >::_M_erase
FUNC 31b50 60 0 std::operator< <char, std::char_traits<char>, std::allocator<char> >
FUNC 31bb0 5c 0 std::priv::_Rb_global<bool>::_Rotate_left
FUNC 31c0c 5c 0 std::priv::_Rb_global<bool>::_Rotate_right
FUNC 31c68 124 0 std::priv::_Rb_global<bool>::_Rebalance
FUNC 31d8c dc 0 std::priv::_Rb_tree<std::basic_string<char, std::char_traits<char>, std::allocator<char> >, std::less<std::basic_string<char, std::char_traits<char>, std::allocator<char> > >, std::basic_string<char, std::char_traits<char>, std::allocator<char> >, std::priv::_Identity<std::basic_string<char, std::char_traits<char>, std::allocator<char> > >, std::priv::_SetTraitsT<std::basic_string<char, std::char_traits<char>, std::allocator<char> > >, std::allocator<std::basic_string<char, std::char_traits<char>, std::allocator<char> > > >::_M_insert
FUNC 31e68 950 0 DirectoryReaderTest_CompareResults_Test::TestBody
FUNC 327b8 4 0 testing::internal::TestFactoryImpl<LineReaderTest_TooLong_Test>::~TestFactoryImpl
FUNC 327bc 4 0 testing::internal::TestFactoryImpl<LineReaderTest_MaxLength_Test>::~TestFactoryImpl
FUNC 327c0 4 0 testing::internal::TestFactoryImpl<LineReaderTest_TwoLines_Test>::~TestFactoryImpl
FUNC 327c4 4 0 testing::internal::TestFactoryImpl<LineReaderTest_TwoLinesTerminated_Test>::~TestFactoryImpl
FUNC 327c8 4 0 testing::internal::TestFactoryImpl<LineReaderTest_OneLine_Test>::~TestFactoryImpl
FUNC 327cc 4 0 testing::internal::TestFactoryImpl<LineReaderTest_OneLineTerminated_Test>::~TestFactoryImpl
FUNC 327d0 4 0 testing::internal::TestFactoryImpl<LineReaderTest_EmptyFile_Test>::~TestFactoryImpl
FUNC 327d4 4 0 testing::internal::TestFactoryImpl<LineReaderTest_EmptyFile_Test>::~TestFactoryImpl
FUNC 327d8 4 0 testing::internal::TestFactoryImpl<LineReaderTest_OneLineTerminated_Test>::~TestFactoryImpl
FUNC 327dc 4 0 testing::internal::TestFactoryImpl<LineReaderTest_OneLine_Test>::~TestFactoryImpl
FUNC 327e0 4 0 testing::internal::TestFactoryImpl<LineReaderTest_TwoLinesTerminated_Test>::~TestFactoryImpl
FUNC 327e4 4 0 testing::internal::TestFactoryImpl<LineReaderTest_TwoLines_Test>::~TestFactoryImpl
FUNC 327e8 4 0 testing::internal::TestFactoryImpl<LineReaderTest_MaxLength_Test>::~TestFactoryImpl
FUNC 327ec 4 0 testing::internal::TestFactoryImpl<LineReaderTest_TooLong_Test>::~TestFactoryImpl
FUNC 327f0 14 0 LineReaderTest_TooLong_Test::~LineReaderTest_TooLong_Test
FUNC 32804 24 0 LineReaderTest_TooLong_Test::~LineReaderTest_TooLong_Test
FUNC 32828 14 0 LineReaderTest_MaxLength_Test::~LineReaderTest_MaxLength_Test
FUNC 3283c 24 0 LineReaderTest_MaxLength_Test::~LineReaderTest_MaxLength_Test
FUNC 32860 14 0 LineReaderTest_TwoLines_Test::~LineReaderTest_TwoLines_Test
FUNC 32874 24 0 LineReaderTest_TwoLines_Test::~LineReaderTest_TwoLines_Test
FUNC 32898 14 0 LineReaderTest_TwoLinesTerminated_Test::~LineReaderTest_TwoLinesTerminated_Test
FUNC 328ac 24 0 LineReaderTest_TwoLinesTerminated_Test::~LineReaderTest_TwoLinesTerminated_Test
FUNC 328d0 14 0 LineReaderTest_OneLine_Test::~LineReaderTest_OneLine_Test
FUNC 328e4 24 0 LineReaderTest_OneLine_Test::~LineReaderTest_OneLine_Test
FUNC 32908 14 0 LineReaderTest_OneLineTerminated_Test::~LineReaderTest_OneLineTerminated_Test
FUNC 3291c 24 0 LineReaderTest_OneLineTerminated_Test::~LineReaderTest_OneLineTerminated_Test
FUNC 32940 14 0 LineReaderTest_EmptyFile_Test::~LineReaderTest_EmptyFile_Test
FUNC 32954 24 0 LineReaderTest_EmptyFile_Test::~LineReaderTest_EmptyFile_Test
FUNC 32978 3c 0 testing::internal::TestFactoryImpl<LineReaderTest_TooLong_Test>::CreateTest
FUNC 329b4 3c 0 testing::internal::TestFactoryImpl<LineReaderTest_OneLine_Test>::CreateTest
FUNC 329f0 3c 0 testing::internal::TestFactoryImpl<LineReaderTest_OneLineTerminated_Test>::CreateTest
FUNC 32a2c 3c 0 testing::internal::TestFactoryImpl<LineReaderTest_EmptyFile_Test>::CreateTest
FUNC 32a68 3c 0 testing::internal::TestFactoryImpl<LineReaderTest_TwoLines_Test>::CreateTest
FUNC 32aa4 3c 0 testing::internal::TestFactoryImpl<LineReaderTest_TwoLinesTerminated_Test>::CreateTest
FUNC 32ae0 3c 0 testing::internal::TestFactoryImpl<LineReaderTest_MaxLength_Test>::CreateTest
FUNC 32b1c 118 0 google_breakpad::LineReader::GetNextLine
FUNC 32c34 20 0 google_breakpad::LineReader::PopLine
FUNC 32c54 8c 0 google_breakpad::AutoTestFile::WriteText
FUNC 32ce0 54 0 ScopedTestFile::ScopedTestFile
FUNC 32d34 1a8 0 LineReaderTest_EmptyFile_Test::TestBody
FUNC 32edc 1d4 0 LineReaderTest_TooLong_Test::TestBody
FUNC 330b0 e8 0 testing::internal::CmpHelperEQFailure<char, char>
FUNC 33198 3c 0 testing::internal::CmpHelperEQ<char, char>
FUNC 331d4 374 0 LineReaderTest_OneLineTerminated_Test::TestBody
FUNC 33548 374 0 LineReaderTest_OneLine_Test::TestBody
FUNC 338bc 568 0 LineReaderTest_TwoLinesTerminated_Test::TestBody
FUNC 33e24 568 0 LineReaderTest_TwoLines_Test::TestBody
FUNC 3438c 3b8 0 LineReaderTest_MaxLength_Test::TestBody
FUNC 34744 4 0 testing::internal::TestFactoryImpl<LinuxCoreDumperTest_VerifyDumpWithMultipleThreads_Test>::~TestFactoryImpl
FUNC 34748 4 0 testing::internal::TestFactoryImpl<LinuxCoreDumperTest_BuildProcPath_Test>::~TestFactoryImpl
FUNC 3474c 4 0 testing::internal::TestFactoryImpl<LinuxCoreDumperTest_BuildProcPath_Test>::~TestFactoryImpl
FUNC 34750 4 0 testing::internal::TestFactoryImpl<LinuxCoreDumperTest_VerifyDumpWithMultipleThreads_Test>::~TestFactoryImpl
FUNC 34754 14 0 LinuxCoreDumperTest_VerifyDumpWithMultipleThreads_Test::~LinuxCoreDumperTest_VerifyDumpWithMultipleThreads_Test
FUNC 34768 24 0 LinuxCoreDumperTest_VerifyDumpWithMultipleThreads_Test::~LinuxCoreDumperTest_VerifyDumpWithMultipleThreads_Test
FUNC 3478c 14 0 LinuxCoreDumperTest_BuildProcPath_Test::~LinuxCoreDumperTest_BuildProcPath_Test
FUNC 347a0 24 0 LinuxCoreDumperTest_BuildProcPath_Test::~LinuxCoreDumperTest_BuildProcPath_Test
FUNC 347c4 3c 0 testing::internal::TestFactoryImpl<LinuxCoreDumperTest_VerifyDumpWithMultipleThreads_Test>::CreateTest
FUNC 34800 3c 0 testing::internal::TestFactoryImpl<LinuxCoreDumperTest_BuildProcPath_Test>::CreateTest
FUNC 3483c e8 0 testing::internal::CmpHelperEQFailure<unsigned int, long unsigned int>
FUNC 34924 34 0 google_breakpad::LinuxCoreDumper::~LinuxCoreDumper
FUNC 34958 4a8 0 LinuxCoreDumperTest_BuildProcPath_Test::TestBody
FUNC 34e00 880 0 LinuxCoreDumperTest_VerifyDumpWithMultipleThreads_Test::TestBody
FUNC 35680 24 0 google_breakpad::LinuxCoreDumper::~LinuxCoreDumper
FUNC 356a4 4 0 testing::internal::TestFactoryImpl<LinuxPtraceDumperTest_VerifyStackReadWithMultipleThreads_Test>::~TestFactoryImpl
FUNC 356a8 4 0 testing::internal::TestFactoryImpl<LinuxPtraceDumperChildTest_FileIDsMatch_Test>::~TestFactoryImpl
FUNC 356ac 4 0 testing::internal::TestFactoryImpl<LinuxPtraceDumperChildTest_LinuxGateMappingID_Test>::~TestFactoryImpl
FUNC 356b0 4 0 testing::internal::TestFactoryImpl<LinuxPtraceDumperChildTest_MappingsIncludeLinuxGate_Test>::~TestFactoryImpl
FUNC 356b4 4 0 testing::internal::TestFactoryImpl<LinuxPtraceDumperChildTest_BuildProcPath_Test>::~TestFactoryImpl
FUNC 356b8 4 0 testing::internal::TestFactoryImpl<LinuxPtraceDumperMappingsTest_MergedMappings_Test>::~TestFactoryImpl
FUNC 356bc 4 0 testing::internal::TestFactoryImpl<LinuxPtraceDumperChildTest_ThreadList_Test>::~TestFactoryImpl
FUNC 356c0 4 0 testing::internal::TestFactoryImpl<LinuxPtraceDumperChildTest_FindMappings_Test>::~TestFactoryImpl
FUNC 356c4 4 0 testing::internal::TestFactoryImpl<LinuxPtraceDumperChildTest_Setup_Test>::~TestFactoryImpl
FUNC 356c8 4 0 testing::internal::TestFactoryImpl<LinuxPtraceDumperChildTest_Setup_Test>::~TestFactoryImpl
FUNC 356cc 4 0 testing::internal::TestFactoryImpl<LinuxPtraceDumperChildTest_FindMappings_Test>::~TestFactoryImpl
FUNC 356d0 4 0 testing::internal::TestFactoryImpl<LinuxPtraceDumperChildTest_ThreadList_Test>::~TestFactoryImpl
FUNC 356d4 4 0 testing::internal::TestFactoryImpl<LinuxPtraceDumperMappingsTest_MergedMappings_Test>::~TestFactoryImpl
FUNC 356d8 4 0 testing::internal::TestFactoryImpl<LinuxPtraceDumperChildTest_BuildProcPath_Test>::~TestFactoryImpl
FUNC 356dc 4 0 testing::internal::TestFactoryImpl<LinuxPtraceDumperChildTest_MappingsIncludeLinuxGate_Test>::~TestFactoryImpl
FUNC 356e0 4 0 testing::internal::TestFactoryImpl<LinuxPtraceDumperChildTest_LinuxGateMappingID_Test>::~TestFactoryImpl
FUNC 356e4 4 0 testing::internal::TestFactoryImpl<LinuxPtraceDumperChildTest_FileIDsMatch_Test>::~TestFactoryImpl
FUNC 356e8 4 0 testing::internal::TestFactoryImpl<LinuxPtraceDumperTest_VerifyStackReadWithMultipleThreads_Test>::~TestFactoryImpl
FUNC 356ec 24 0 LinuxPtraceDumperChildTest::SetUp
FUNC 35710 14 0 LinuxPtraceDumperTest_VerifyStackReadWithMultipleThreads_Test::~LinuxPtraceDumperTest_VerifyStackReadWithMultipleThreads_Test
FUNC 35724 24 0 LinuxPtraceDumperTest_VerifyStackReadWithMultipleThreads_Test::~LinuxPtraceDumperTest_VerifyStackReadWithMultipleThreads_Test
FUNC 35748 14 0 LinuxPtraceDumperChildTest_ThreadList_Test::~LinuxPtraceDumperChildTest_ThreadList_Test
FUNC 3575c 24 0 LinuxPtraceDumperChildTest_ThreadList_Test::~LinuxPtraceDumperChildTest_ThreadList_Test
FUNC 35780 14 0 LinuxPtraceDumperChildTest_FileIDsMatch_Test::~LinuxPtraceDumperChildTest_FileIDsMatch_Test
FUNC 35794 24 0 LinuxPtraceDumperChildTest_FileIDsMatch_Test::~LinuxPtraceDumperChildTest_FileIDsMatch_Test
FUNC 357b8 14 0 LinuxPtraceDumperChildTest_LinuxGateMappingID_Test::~LinuxPtraceDumperChildTest_LinuxGateMappingID_Test
FUNC 357cc 24 0 LinuxPtraceDumperChildTest_LinuxGateMappingID_Test::~LinuxPtraceDumperChildTest_LinuxGateMappingID_Test
FUNC 357f0 14 0 LinuxPtraceDumperChildTest_FindMappings_Test::~LinuxPtraceDumperChildTest_FindMappings_Test
FUNC 35804 24 0 LinuxPtraceDumperChildTest_FindMappings_Test::~LinuxPtraceDumperChildTest_FindMappings_Test
FUNC 35828 14 0 LinuxPtraceDumperChildTest_Setup_Test::~LinuxPtraceDumperChildTest_Setup_Test
FUNC 3583c 24 0 LinuxPtraceDumperChildTest_Setup_Test::~LinuxPtraceDumperChildTest_Setup_Test
FUNC 35860 14 0 LinuxPtraceDumperChildTest_MappingsIncludeLinuxGate_Test::~LinuxPtraceDumperChildTest_MappingsIncludeLinuxGate_Test
FUNC 35874 24 0 LinuxPtraceDumperChildTest_MappingsIncludeLinuxGate_Test::~LinuxPtraceDumperChildTest_MappingsIncludeLinuxGate_Test
FUNC 35898 14 0 LinuxPtraceDumperChildTest_BuildProcPath_Test::~LinuxPtraceDumperChildTest_BuildProcPath_Test
FUNC 358ac 24 0 LinuxPtraceDumperChildTest_BuildProcPath_Test::~LinuxPtraceDumperChildTest_BuildProcPath_Test
FUNC 358d0 3c 0 testing::internal::TestFactoryImpl<LinuxPtraceDumperChildTest_MappingsIncludeLinuxGate_Test>::CreateTest
FUNC 3590c 3c 0 testing::internal::TestFactoryImpl<LinuxPtraceDumperChildTest_BuildProcPath_Test>::CreateTest
FUNC 35948 3c 0 testing::internal::TestFactoryImpl<LinuxPtraceDumperChildTest_FindMappings_Test>::CreateTest
FUNC 35984 3c 0 testing::internal::TestFactoryImpl<LinuxPtraceDumperChildTest_ThreadList_Test>::CreateTest
FUNC 359c0 3c 0 testing::internal::TestFactoryImpl<LinuxPtraceDumperChildTest_FileIDsMatch_Test>::CreateTest
FUNC 359fc 3c 0 testing::internal::TestFactoryImpl<LinuxPtraceDumperChildTest_LinuxGateMappingID_Test>::CreateTest
FUNC 35a38 3c 0 testing::internal::TestFactoryImpl<LinuxPtraceDumperChildTest_Setup_Test>::CreateTest
FUNC 35a74 3c 0 testing::internal::TestFactoryImpl<LinuxPtraceDumperTest_VerifyStackReadWithMultipleThreads_Test>::CreateTest
FUNC 35ab0 190 0 LinuxPtraceDumperChildTest::TestBody
FUNC 35c40 68 0 LinuxPtraceDumperMappingsTest_MergedMappings_Test::~LinuxPtraceDumperMappingsTest_MergedMappings_Test
FUNC 35ca8 24 0 LinuxPtraceDumperMappingsTest_MergedMappings_Test::~LinuxPtraceDumperMappingsTest_MergedMappings_Test
FUNC 35ccc 144 0 std::priv::_Impl_vector<void*, google_breakpad::PageStdAllocator<void*> >::_Impl_vector
FUNC 35e10 78 0 testing::internal::TestFactoryImpl<LinuxPtraceDumperMappingsTest_MergedMappings_Test>::CreateTest
FUNC 35e88 50 0 testing::internal::DefaultPrintTo<void>
FUNC 35ed8 3a8 0 LinuxPtraceDumperMappingsTest::SetUp
FUNC 36280 14 0 google_breakpad::LinuxPtraceDumper::~LinuxPtraceDumper
FUNC 36294 34 0 LinuxPtraceDumperChildTest_Setup_Test::RealTestBody
FUNC 362c8 230 0 LinuxPtraceDumperChildTest_FindMappings_Test::RealTestBody
FUNC 364f8 4fc 0 LinuxPtraceDumperChildTest_BuildProcPath_Test::RealTestBody
FUNC 369f4 4b8 0 LinuxPtraceDumperChildTest_FileIDsMatch_Test::RealTestBody
FUNC 36eac 408 0 LinuxPtraceDumperChildTest_ThreadList_Test::RealTestBody
FUNC 372b4 40c 0 LinuxPtraceDumperChildTest_LinuxGateMappingID_Test::RealTestBody
FUNC 376c0 3e0 0 LinuxPtraceDumperChildTest_MappingsIncludeLinuxGate_Test::RealTestBody
FUNC 37aa0 3d8 0 LinuxPtraceDumperMappingsTest_MergedMappings_Test::RealTestBody
FUNC 37e78 b58 0 LinuxPtraceDumperTest_VerifyStackReadWithMultipleThreads_Test::TestBody
FUNC 389d0 24 0 google_breakpad::LinuxPtraceDumper::~LinuxPtraceDumper
FUNC 389f4 4 0 testing::internal::TestFactoryImpl<(anonymous namespace)::MinidumpWriterTest_MinidumpSizeLimit_Test>::~TestFactoryImpl
FUNC 389f8 4 0 testing::internal::TestFactoryImpl<(anonymous namespace)::MinidumpWriterTest_InvalidStackPointer_Test>::~TestFactoryImpl
FUNC 389fc 4 0 testing::internal::TestFactoryImpl<(anonymous namespace)::MinidumpWriterTest_AdditionalMemory_Test>::~TestFactoryImpl
FUNC 38a00 4 0 testing::internal::TestFactoryImpl<(anonymous namespace)::MinidumpWriterTest_DeletedBinary_Test>::~TestFactoryImpl
FUNC 38a04 4 0 testing::internal::TestFactoryImpl<(anonymous namespace)::MinidumpWriterTest_MappingInfoContained_Test>::~TestFactoryImpl
FUNC 38a08 4 0 testing::internal::TestFactoryImpl<(anonymous namespace)::MinidumpWriterTest_MappingInfo_Test>::~TestFactoryImpl
FUNC 38a0c 4 0 testing::internal::TestFactoryImpl<(anonymous namespace)::MinidumpWriterTest_SetupWithFD_Test>::~TestFactoryImpl
FUNC 38a10 4 0 testing::internal::TestFactoryImpl<(anonymous namespace)::MinidumpWriterTest_SetupWithPath_Test>::~TestFactoryImpl
FUNC 38a14 3c 0 testing::internal::TestFactoryImpl<(anonymous namespace)::MinidumpWriterTest_SetupWithPath_Test>::CreateTest
FUNC 38a50 3c 0 testing::internal::TestFactoryImpl<(anonymous namespace)::MinidumpWriterTest_SetupWithFD_Test>::CreateTest
FUNC 38a8c 3c 0 testing::internal::TestFactoryImpl<(anonymous namespace)::MinidumpWriterTest_MappingInfo_Test>::CreateTest
FUNC 38ac8 3c 0 testing::internal::TestFactoryImpl<(anonymous namespace)::MinidumpWriterTest_MappingInfoContained_Test>::CreateTest
FUNC 38b04 3c 0 testing::internal::TestFactoryImpl<(anonymous namespace)::MinidumpWriterTest_DeletedBinary_Test>::CreateTest
FUNC 38b40 3c 0 testing::internal::TestFactoryImpl<(anonymous namespace)::MinidumpWriterTest_AdditionalMemory_Test>::CreateTest
FUNC 38b7c 3c 0 testing::internal::TestFactoryImpl<(anonymous namespace)::MinidumpWriterTest_InvalidStackPointer_Test>::CreateTest
FUNC 38bb8 3c 0 testing::internal::TestFactoryImpl<(anonymous namespace)::MinidumpWriterTest_MinidumpSizeLimit_Test>::CreateTest
FUNC 38bf4 4 0 testing::internal::TestFactoryImpl<(anonymous namespace)::MinidumpWriterTest_SetupWithPath_Test>::~TestFactoryImpl
FUNC 38bf8 4 0 testing::internal::TestFactoryImpl<(anonymous namespace)::MinidumpWriterTest_SetupWithFD_Test>::~TestFactoryImpl
FUNC 38bfc 4 0 testing::internal::TestFactoryImpl<(anonymous namespace)::MinidumpWriterTest_MappingInfo_Test>::~TestFactoryImpl
FUNC 38c00 4 0 testing::internal::TestFactoryImpl<(anonymous namespace)::MinidumpWriterTest_MappingInfoContained_Test>::~TestFactoryImpl
FUNC 38c04 4 0 testing::internal::TestFactoryImpl<(anonymous namespace)::MinidumpWriterTest_DeletedBinary_Test>::~TestFactoryImpl
FUNC 38c08 4 0 testing::internal::TestFactoryImpl<(anonymous namespace)::MinidumpWriterTest_AdditionalMemory_Test>::~TestFactoryImpl
FUNC 38c0c 4 0 testing::internal::TestFactoryImpl<(anonymous namespace)::MinidumpWriterTest_InvalidStackPointer_Test>::~TestFactoryImpl
FUNC 38c10 4 0 testing::internal::TestFactoryImpl<(anonymous namespace)::MinidumpWriterTest_MinidumpSizeLimit_Test>::~TestFactoryImpl
FUNC 38c14 14 0 MinidumpWriterTest_SetupWithPath_Test::~MinidumpWriterTest_SetupWithPath_Test
FUNC 38c28 24 0 MinidumpWriterTest_SetupWithPath_Test::~MinidumpWriterTest_SetupWithPath_Test
FUNC 38c4c 14 0 MinidumpWriterTest_SetupWithFD_Test::~MinidumpWriterTest_SetupWithFD_Test
FUNC 38c60 24 0 MinidumpWriterTest_SetupWithFD_Test::~MinidumpWriterTest_SetupWithFD_Test
FUNC 38c84 14 0 MinidumpWriterTest_MappingInfo_Test::~MinidumpWriterTest_MappingInfo_Test
FUNC 38c98 24 0 MinidumpWriterTest_MappingInfo_Test::~MinidumpWriterTest_MappingInfo_Test
FUNC 38cbc 14 0 MinidumpWriterTest_MappingInfoContained_Test::~MinidumpWriterTest_MappingInfoContained_Test
FUNC 38cd0 24 0 MinidumpWriterTest_MappingInfoContained_Test::~MinidumpWriterTest_MappingInfoContained_Test
FUNC 38cf4 14 0 MinidumpWriterTest_DeletedBinary_Test::~MinidumpWriterTest_DeletedBinary_Test
FUNC 38d08 24 0 MinidumpWriterTest_DeletedBinary_Test::~MinidumpWriterTest_DeletedBinary_Test
FUNC 38d2c 14 0 MinidumpWriterTest_AdditionalMemory_Test::~MinidumpWriterTest_AdditionalMemory_Test
FUNC 38d40 24 0 MinidumpWriterTest_AdditionalMemory_Test::~MinidumpWriterTest_AdditionalMemory_Test
FUNC 38d64 14 0 MinidumpWriterTest_InvalidStackPointer_Test::~MinidumpWriterTest_InvalidStackPointer_Test
FUNC 38d78 24 0 MinidumpWriterTest_InvalidStackPointer_Test::~MinidumpWriterTest_InvalidStackPointer_Test
FUNC 38d9c 14 0 MinidumpWriterTest_MinidumpSizeLimit_Test::~MinidumpWriterTest_MinidumpSizeLimit_Test
FUNC 38db0 24 0 MinidumpWriterTest_MinidumpSizeLimit_Test::~MinidumpWriterTest_MinidumpSizeLimit_Test
FUNC 38dd4 fc 0 std::basic_string<char, std::char_traits<char>, std::allocator<char> >::find
FUNC 38ed0 5c 0 std::basic_string<char, std::char_traits<char>, std::allocator<char> >::erase
FUNC 38f2c 5c 0 std::priv::_Impl_list<google_breakpad::MappingEntry, std::allocator<google_breakpad::MappingEntry> >::push_back
FUNC 38f88 34 0 std::basic_string<char, std::char_traits<char>, std::allocator<char> >::append
FUNC 38fbc 40 0 std::priv::_List_base<google_breakpad::MappingEntry, std::allocator<google_breakpad::MappingEntry> >::clear
FUNC 38ffc 44 0 std::priv::_List_base<google_breakpad::AppMemory, std::allocator<google_breakpad::AppMemory> >::clear
FUNC 39040 354 0 MinidumpWriterTest_SetupWithPath_Test::TestBody
FUNC 39394 360 0 MinidumpWriterTest_SetupWithFD_Test::TestBody
FUNC 396f4 f0 0 testing::internal::CmpHelperEQ<char const*, std::basic_string<char, std::char_traits<char>, std::allocator<char> > >
FUNC 397e4 10b4 0 MinidumpWriterTest_MappingInfo_Test::TestBody
FUNC 3a898 aac 0 MinidumpWriterTest_MappingInfoContained_Test::TestBody
FUNC 3b344 b84 0 MinidumpWriterTest_DeletedBinary_Test::TestBody
FUNC 3bec8 3ac 0 MinidumpWriterTest_InvalidStackPointer_Test::TestBody
FUNC 3c274 790 0 MinidumpWriterTest_AdditionalMemory_Test::TestBody
FUNC 3ca04 113c 0 MinidumpWriterTest_MinidumpSizeLimit_Test::TestBody
FUNC 3db40 390 0 google_breakpad::GetHelperBinary
FUNC 3ded0 4 0 testing::internal::TestFactoryImpl<ProcCpuInfoReaderTest_EmptyValue_Test>::~TestFactoryImpl
FUNC 3ded4 4 0 testing::internal::TestFactoryImpl<ProcCpuInfoReaderTest_FieldWithSpaces_Test>::~TestFactoryImpl
FUNC 3ded8 4 0 testing::internal::TestFactoryImpl<ProcCpuInfoReaderTest_SkipTwoEmptyLines_Test>::~TestFactoryImpl
FUNC 3dedc 4 0 testing::internal::TestFactoryImpl<ProcCpuInfoReaderTest_SkipEmptyField_Test>::~TestFactoryImpl
FUNC 3dee0 4 0 testing::internal::TestFactoryImpl<ProcCpuInfoReaderTest_SkipOneEmptyLine_Test>::~TestFactoryImpl
FUNC 3dee4 4 0 testing::internal::TestFactoryImpl<ProcCpuInfoReaderTest_SkipMalformedLine_Test>::~TestFactoryImpl
FUNC 3dee8 4 0 testing::internal::TestFactoryImpl<ProcCpuInfoReaderTest_TwoLinesTerminated_Test>::~TestFactoryImpl
FUNC 3deec 4 0 testing::internal::TestFactoryImpl<ProcCpuInfoReaderTest_OneLine_Test>::~TestFactoryImpl
FUNC 3def0 4 0 testing::internal::TestFactoryImpl<ProcCpuInfoReaderTest_OneLineTerminated_Test>::~TestFactoryImpl
FUNC 3def4 4 0 testing::internal::TestFactoryImpl<ProcCpuInfoReaderTest_EmptyFile_Test>::~TestFactoryImpl
FUNC 3def8 4 0 testing::internal::TestFactoryImpl<ProcCpuInfoReaderTest_EmptyFile_Test>::~TestFactoryImpl
FUNC 3defc 4 0 testing::internal::TestFactoryImpl<ProcCpuInfoReaderTest_OneLineTerminated_Test>::~TestFactoryImpl
FUNC 3df00 4 0 testing::internal::TestFactoryImpl<ProcCpuInfoReaderTest_OneLine_Test>::~TestFactoryImpl
FUNC 3df04 4 0 testing::internal::TestFactoryImpl<ProcCpuInfoReaderTest_TwoLinesTerminated_Test>::~TestFactoryImpl
FUNC 3df08 4 0 testing::internal::TestFactoryImpl<ProcCpuInfoReaderTest_SkipMalformedLine_Test>::~TestFactoryImpl
FUNC 3df0c 4 0 testing::internal::TestFactoryImpl<ProcCpuInfoReaderTest_SkipOneEmptyLine_Test>::~TestFactoryImpl
FUNC 3df10 4 0 testing::internal::TestFactoryImpl<ProcCpuInfoReaderTest_SkipEmptyField_Test>::~TestFactoryImpl
FUNC 3df14 4 0 testing::internal::TestFactoryImpl<ProcCpuInfoReaderTest_SkipTwoEmptyLines_Test>::~TestFactoryImpl
FUNC 3df18 4 0 testing::internal::TestFactoryImpl<ProcCpuInfoReaderTest_FieldWithSpaces_Test>::~TestFactoryImpl
FUNC 3df1c 4 0 testing::internal::TestFactoryImpl<ProcCpuInfoReaderTest_EmptyValue_Test>::~TestFactoryImpl
FUNC 3df20 14 0 ProcCpuInfoReaderTest_EmptyValue_Test::~ProcCpuInfoReaderTest_EmptyValue_Test
FUNC 3df34 24 0 ProcCpuInfoReaderTest_EmptyValue_Test::~ProcCpuInfoReaderTest_EmptyValue_Test
FUNC 3df58 14 0 ProcCpuInfoReaderTest_FieldWithSpaces_Test::~ProcCpuInfoReaderTest_FieldWithSpaces_Test
FUNC 3df6c 24 0 ProcCpuInfoReaderTest_FieldWithSpaces_Test::~ProcCpuInfoReaderTest_FieldWithSpaces_Test
FUNC 3df90 14 0 ProcCpuInfoReaderTest_SkipTwoEmptyLines_Test::~ProcCpuInfoReaderTest_SkipTwoEmptyLines_Test
FUNC 3dfa4 24 0 ProcCpuInfoReaderTest_SkipTwoEmptyLines_Test::~ProcCpuInfoReaderTest_SkipTwoEmptyLines_Test
FUNC 3dfc8 14 0 ProcCpuInfoReaderTest_SkipEmptyField_Test::~ProcCpuInfoReaderTest_SkipEmptyField_Test
FUNC 3dfdc 24 0 ProcCpuInfoReaderTest_SkipEmptyField_Test::~ProcCpuInfoReaderTest_SkipEmptyField_Test
FUNC 3e000 14 0 ProcCpuInfoReaderTest_SkipOneEmptyLine_Test::~ProcCpuInfoReaderTest_SkipOneEmptyLine_Test
FUNC 3e014 24 0 ProcCpuInfoReaderTest_SkipOneEmptyLine_Test::~ProcCpuInfoReaderTest_SkipOneEmptyLine_Test
FUNC 3e038 14 0 ProcCpuInfoReaderTest_SkipMalformedLine_Test::~ProcCpuInfoReaderTest_SkipMalformedLine_Test
FUNC 3e04c 24 0 ProcCpuInfoReaderTest_SkipMalformedLine_Test::~ProcCpuInfoReaderTest_SkipMalformedLine_Test
FUNC 3e070 14 0 ProcCpuInfoReaderTest_TwoLinesTerminated_Test::~ProcCpuInfoReaderTest_TwoLinesTerminated_Test
FUNC 3e084 24 0 ProcCpuInfoReaderTest_TwoLinesTerminated_Test::~ProcCpuInfoReaderTest_TwoLinesTerminated_Test
FUNC 3e0a8 14 0 ProcCpuInfoReaderTest_OneLine_Test::~ProcCpuInfoReaderTest_OneLine_Test
FUNC 3e0bc 24 0 ProcCpuInfoReaderTest_OneLine_Test::~ProcCpuInfoReaderTest_OneLine_Test
FUNC 3e0e0 14 0 ProcCpuInfoReaderTest_OneLineTerminated_Test::~ProcCpuInfoReaderTest_OneLineTerminated_Test
FUNC 3e0f4 24 0 ProcCpuInfoReaderTest_OneLineTerminated_Test::~ProcCpuInfoReaderTest_OneLineTerminated_Test
FUNC 3e118 14 0 ProcCpuInfoReaderTest_EmptyFile_Test::~ProcCpuInfoReaderTest_EmptyFile_Test
FUNC 3e12c 24 0 ProcCpuInfoReaderTest_EmptyFile_Test::~ProcCpuInfoReaderTest_EmptyFile_Test
FUNC 3e150 3c 0 testing::internal::TestFactoryImpl<ProcCpuInfoReaderTest_EmptyValue_Test>::CreateTest
FUNC 3e18c 3c 0 testing::internal::TestFactoryImpl<ProcCpuInfoReaderTest_FieldWithSpaces_Test>::CreateTest
FUNC 3e1c8 3c 0 testing::internal::TestFactoryImpl<ProcCpuInfoReaderTest_SkipTwoEmptyLines_Test>::CreateTest
FUNC 3e204 3c 0 testing::internal::TestFactoryImpl<ProcCpuInfoReaderTest_SkipEmptyField_Test>::CreateTest
FUNC 3e240 3c 0 testing::internal::TestFactoryImpl<ProcCpuInfoReaderTest_SkipOneEmptyLine_Test>::CreateTest
FUNC 3e27c 3c 0 testing::internal::TestFactoryImpl<ProcCpuInfoReaderTest_SkipMalformedLine_Test>::CreateTest
FUNC 3e2b8 3c 0 testing::internal::TestFactoryImpl<ProcCpuInfoReaderTest_TwoLinesTerminated_Test>::CreateTest
FUNC 3e2f4 3c 0 testing::internal::TestFactoryImpl<ProcCpuInfoReaderTest_OneLine_Test>::CreateTest
FUNC 3e330 3c 0 testing::internal::TestFactoryImpl<ProcCpuInfoReaderTest_OneLineTerminated_Test>::CreateTest
FUNC 3e36c 3c 0 testing::internal::TestFactoryImpl<ProcCpuInfoReaderTest_EmptyFile_Test>::CreateTest
FUNC 3e3a8 1cc 0 google_breakpad::ProcCpuInfoReader::GetNextField
FUNC 3e574 ac 0 ScopedTestFile::ScopedTestFile
FUNC 3e620 1ac 0 ProcCpuInfoReaderTest_EmptyFile_Test::TestBody
FUNC 3e7cc 2fc 0 ProcCpuInfoReaderTest_OneLineTerminated_Test::TestBody
FUNC 3eac8 420 0 ProcCpuInfoReaderTest_TwoLinesTerminated_Test::TestBody
FUNC 3eee8 2fc 0 ProcCpuInfoReaderTest_SkipMalformedLine_Test::TestBody
FUNC 3f1e4 2fc 0 ProcCpuInfoReaderTest_SkipOneEmptyLine_Test::TestBody
FUNC 3f4e0 2fc 0 ProcCpuInfoReaderTest_SkipEmptyField_Test::TestBody
FUNC 3f7dc 43c 0 ProcCpuInfoReaderTest_SkipTwoEmptyLines_Test::TestBody
FUNC 3fc18 2fc 0 ProcCpuInfoReaderTest_FieldWithSpaces_Test::TestBody
FUNC 3ff14 3b8 0 ProcCpuInfoReaderTest_EmptyValue_Test::TestBody
FUNC 402cc 3c0 0 ProcCpuInfoReaderTest_OneLine_Test::TestBody
FUNC 4068c 4 0 testing::internal::TestFactoryImpl<ElfCoreDumpTest_ValidCoreFile_Test>::~TestFactoryImpl
FUNC 40690 4 0 testing::internal::TestFactoryImpl<ElfCoreDumpTest_TestElfHeader_Test>::~TestFactoryImpl
FUNC 40694 4 0 testing::internal::TestFactoryImpl<ElfCoreDumpTest_DefaultConstructor_Test>::~TestFactoryImpl
FUNC 40698 4 0 testing::internal::TestFactoryImpl<ElfCoreDumpTest_DefaultConstructor_Test>::~TestFactoryImpl
FUNC 4069c 4 0 testing::internal::TestFactoryImpl<ElfCoreDumpTest_TestElfHeader_Test>::~TestFactoryImpl
FUNC 406a0 4 0 testing::internal::TestFactoryImpl<ElfCoreDumpTest_ValidCoreFile_Test>::~TestFactoryImpl
FUNC 406a4 14 0 ElfCoreDumpTest_ValidCoreFile_Test::~ElfCoreDumpTest_ValidCoreFile_Test
FUNC 406b8 24 0 ElfCoreDumpTest_ValidCoreFile_Test::~ElfCoreDumpTest_ValidCoreFile_Test
FUNC 406dc 14 0 ElfCoreDumpTest_TestElfHeader_Test::~ElfCoreDumpTest_TestElfHeader_Test
FUNC 406f0 24 0 ElfCoreDumpTest_TestElfHeader_Test::~ElfCoreDumpTest_TestElfHeader_Test
FUNC 40714 14 0 ElfCoreDumpTest_DefaultConstructor_Test::~ElfCoreDumpTest_DefaultConstructor_Test
FUNC 40728 24 0 ElfCoreDumpTest_DefaultConstructor_Test::~ElfCoreDumpTest_DefaultConstructor_Test
FUNC 4074c 3c 0 testing::internal::TestFactoryImpl<ElfCoreDumpTest_TestElfHeader_Test>::CreateTest
FUNC 40788 3c 0 testing::internal::TestFactoryImpl<ElfCoreDumpTest_DefaultConstructor_Test>::CreateTest
FUNC 407c4 3c 0 testing::internal::TestFactoryImpl<ElfCoreDumpTest_ValidCoreFile_Test>::CreateTest
FUNC 40800 50 0 testing::internal::DefaultPrintTo<const elf64_hdr>
FUNC 40850 50 0 testing::internal::DefaultPrintTo<const elf64_phdr>
FUNC 408a0 e8 0 testing::internal::CmpHelperEQFailure<const elf64_hdr*, const elf64_hdr*>
FUNC 40988 e8 0 testing::internal::CmpHelperEQFailure<const elf64_phdr*, const elf64_phdr*>
FUNC 40a70 50 0 std::priv::_Rb_tree<int, std::less<int>, int, std::priv::_Identity<int>, std::priv::_SetTraitsT<int>, std::allocator<int> >::_M_erase
FUNC 40ac0 3c 0 std::priv::_Rb_tree<int, std::less<int>, int, std::priv::_Identity<int>, std::priv::_SetTraitsT<int>, std::allocator<int> >::clear
FUNC 40afc 11c 0 std::priv::_Rb_tree<int, std::less<int>, int, std::priv::_Identity<int>, std::priv::_SetTraitsT<int>, std::allocator<int> >::_M_insert
FUNC 40c18 118 0 std::priv::_Rb_tree<int, std::less<int>, int, std::priv::_Identity<int>, std::priv::_SetTraitsT<int>, std::allocator<int> >::insert_unique
FUNC 40d30 3c8 0 ElfCoreDumpTest_DefaultConstructor_Test::TestBody
FUNC 410f8 1258 0 ElfCoreDumpTest_TestElfHeader_Test::TestBody
FUNC 42350 b1c 0 ElfCoreDumpTest_ValidCoreFile_Test::TestBody
FUNC 42e6c 4 0 testing::internal::TestFactoryImpl<FileIDTest_UniqueHashes_Test<google_breakpad::ElfClass64> >::~TestFactoryImpl
FUNC 42e70 4 0 testing::internal::TestFactoryImpl<FileIDTest_BuildIDPH_Test<google_breakpad::ElfClass64> >::~TestFactoryImpl
FUNC 42e74 4 0 testing::internal::TestFactoryImpl<FileIDTest_BuildID_Test<google_breakpad::ElfClass64> >::~TestFactoryImpl
FUNC 42e78 4 0 testing::internal::TestFactoryImpl<FileIDTest_ElfClass_Test<google_breakpad::ElfClass64> >::~TestFactoryImpl
FUNC 42e7c 4 0 testing::internal::TestFactoryImpl<FileIDTest_UniqueHashes_Test<google_breakpad::ElfClass32> >::~TestFactoryImpl
FUNC 42e80 4 0 testing::internal::TestFactoryImpl<FileIDTest_BuildIDPH_Test<google_breakpad::ElfClass32> >::~TestFactoryImpl
FUNC 42e84 4 0 testing::internal::TestFactoryImpl<FileIDTest_BuildID_Test<google_breakpad::ElfClass32> >::~TestFactoryImpl
FUNC 42e88 4 0 testing::internal::TestFactoryImpl<FileIDTest_ElfClass_Test<google_breakpad::ElfClass32> >::~TestFactoryImpl
FUNC 42e8c 4 0 testing::internal::TestFactoryImpl<FileIDTest_ElfClass_Test<google_breakpad::ElfClass32> >::~TestFactoryImpl
FUNC 42e90 4 0 testing::internal::TestFactoryImpl<FileIDTest_ElfClass_Test<google_breakpad::ElfClass64> >::~TestFactoryImpl
FUNC 42e94 4 0 testing::internal::TestFactoryImpl<FileIDTest_BuildID_Test<google_breakpad::ElfClass32> >::~TestFactoryImpl
FUNC 42e98 4 0 testing::internal::TestFactoryImpl<FileIDTest_BuildID_Test<google_breakpad::ElfClass64> >::~TestFactoryImpl
FUNC 42e9c 4 0 testing::internal::TestFactoryImpl<FileIDTest_BuildIDPH_Test<google_breakpad::ElfClass32> >::~TestFactoryImpl
FUNC 42ea0 4 0 testing::internal::TestFactoryImpl<FileIDTest_BuildIDPH_Test<google_breakpad::ElfClass64> >::~TestFactoryImpl
FUNC 42ea4 4 0 testing::internal::TestFactoryImpl<FileIDTest_UniqueHashes_Test<google_breakpad::ElfClass32> >::~TestFactoryImpl
FUNC 42ea8 4 0 testing::internal::TestFactoryImpl<FileIDTest_UniqueHashes_Test<google_breakpad::ElfClass64> >::~TestFactoryImpl
FUNC 42eac 48 0 testing::internal::TestFactoryImpl<FileIDTest_ElfClass_Test<google_breakpad::ElfClass32> >::CreateTest
FUNC 42ef4 48 0 testing::internal::TestFactoryImpl<FileIDTest_BuildIDPH_Test<google_breakpad::ElfClass32> >::CreateTest
FUNC 42f3c 48 0 testing::internal::TestFactoryImpl<FileIDTest_BuildID_Test<google_breakpad::ElfClass32> >::CreateTest
FUNC 42f84 48 0 testing::internal::TestFactoryImpl<FileIDTest_UniqueHashes_Test<google_breakpad::ElfClass32> >::CreateTest
FUNC 42fcc 48 0 testing::internal::TestFactoryImpl<FileIDTest_ElfClass_Test<google_breakpad::ElfClass64> >::CreateTest
FUNC 43014 48 0 testing::internal::TestFactoryImpl<FileIDTest_UniqueHashes_Test<google_breakpad::ElfClass64> >::CreateTest
FUNC 4305c 48 0 testing::internal::TestFactoryImpl<FileIDTest_BuildID_Test<google_breakpad::ElfClass64> >::CreateTest
FUNC 430a4 48 0 testing::internal::TestFactoryImpl<FileIDTest_BuildIDPH_Test<google_breakpad::ElfClass64> >::CreateTest
FUNC 430ec 38 0 std::priv::__copy_trivial
FUNC 43124 10 0 std::__node_alloc::deallocate
FUNC 43134 1b0 0 std::priv::_Impl_vector<unsigned char, std::allocator<unsigned char> >::_M_range_insert<char*>
FUNC 432e4 70 0 google_breakpad::test_assembler::Section::~Section
FUNC 43354 24 0 google_breakpad::test_assembler::Section::~Section
FUNC 43378 14 0 google_breakpad::synth_elf::Notes::~Notes
FUNC 4338c 24 0 google_breakpad::synth_elf::Notes::~Notes
FUNC 433b0 68 0 PopulateSection
FUNC 43418 50 0 google_breakpad::test_assembler::Section::Section
FUNC 43468 80 0 testing::internal::GetPrefixUntilComma
FUNC 434e8 88 0 testing::internal::StripTrailingSpaces
FUNC 43570 88 0 std::operator+<char, std::char_traits<char>, std::allocator<char> >
FUNC 435f8 64 0 std::priv::_Rb_tree<std::basic_string<char, std::char_traits<char>, std::allocator<char> >, std::less<std::basic_string<char, std::char_traits<char>, std::allocator<char> > >, std::pair<const std::basic_string<char, std::char_traits<char>, std::allocator<char> >, google_breakpad::test_assembler::Label>, std::priv::_Select1st<std::pair<const std::basic_string<char, std::char_traits<char>, std::allocator<char> >, google_breakpad::test_assembler::Label> >, std::priv::_MapTraitsT<std::pair<const std::basic_string<char, std::char_traits<char>, std::allocator<char> >, google_breakpad::test_assembler::Label> >, std::allocator<std::pair<const std::basic_string<char, std::char_traits<char>, std::allocator<char> >, google_breakpad::test_assembler::Label> > >::_M_erase
FUNC 4365c 48 0 google_breakpad::synth_elf::StringTable::~StringTable
FUNC 436a4 24 0 google_breakpad::synth_elf::StringTable::~StringTable
FUNC 436c8 b8 0 google_breakpad::synth_elf::ELF::~ELF
FUNC 43780 24 0 google_breakpad::synth_elf::ELF::~ELF
FUNC 437a4 128 0 testing::internal::StreamableToString<int>
FUNC 438cc 1c0 0 testing::internal::TypeParameterizedTest<FileIDTest, testing::internal::TemplateSel<FileIDTest_ElfClass_Test>, testing::internal::Types1<google_breakpad::ElfClass64> >::Register
FUNC 43a8c 1f4 0 testing::internal::TypeParameterizedTest<FileIDTest, testing::internal::TemplateSel<FileIDTest_ElfClass_Test>, testing::internal::Types2<google_breakpad::ElfClass32, google_breakpad::ElfClass64> >::Register
FUNC 43c80 1c0 0 testing::internal::TypeParameterizedTest<FileIDTest, testing::internal::TemplateSel<FileIDTest_BuildID_Test>, testing::internal::Types1<google_breakpad::ElfClass64> >::Register
FUNC 43e40 1f4 0 testing::internal::TypeParameterizedTest<FileIDTest, testing::internal::TemplateSel<FileIDTest_BuildID_Test>, testing::internal::Types2<google_breakpad::ElfClass32, google_breakpad::ElfClass64> >::Register
FUNC 44034 1c0 0 testing::internal::TypeParameterizedTest<FileIDTest, testing::internal::TemplateSel<FileIDTest_BuildIDPH_Test>, testing::internal::Types1<google_breakpad::ElfClass64> >::Register
FUNC 441f4 1f4 0 testing::internal::TypeParameterizedTest<FileIDTest, testing::internal::TemplateSel<FileIDTest_BuildIDPH_Test>, testing::internal::Types2<google_breakpad::ElfClass32, google_breakpad::ElfClass64> >::Register
FUNC 443e8 1c0 0 testing::internal::TypeParameterizedTest<FileIDTest, testing::internal::TemplateSel<FileIDTest_UniqueHashes_Test>, testing::internal::Types1<google_breakpad::ElfClass64> >::Register
FUNC 445a8 1f4 0 testing::internal::TypeParameterizedTest<FileIDTest, testing::internal::TemplateSel<FileIDTest_UniqueHashes_Test>, testing::internal::Types2<google_breakpad::ElfClass32, google_breakpad::ElfClass64> >::Register
FUNC 4479c 48 0 FileIDTest<google_breakpad::ElfClass64>::~FileIDTest
FUNC 447e4 14 0 FileIDTest_ElfClass_Test<google_breakpad::ElfClass64>::~FileIDTest_ElfClass_Test
FUNC 447f8 24 0 FileIDTest_ElfClass_Test<google_breakpad::ElfClass64>::~FileIDTest_ElfClass_Test
FUNC 4481c 14 0 FileIDTest_BuildID_Test<google_breakpad::ElfClass64>::~FileIDTest_BuildID_Test
FUNC 44830 24 0 FileIDTest_BuildID_Test<google_breakpad::ElfClass64>::~FileIDTest_BuildID_Test
FUNC 44854 14 0 FileIDTest_BuildIDPH_Test<google_breakpad::ElfClass64>::~FileIDTest_BuildIDPH_Test
FUNC 44868 24 0 FileIDTest_BuildIDPH_Test<google_breakpad::ElfClass64>::~FileIDTest_BuildIDPH_Test
FUNC 4488c 14 0 FileIDTest_UniqueHashes_Test<google_breakpad::ElfClass64>::~FileIDTest_UniqueHashes_Test
FUNC 448a0 24 0 FileIDTest_UniqueHashes_Test<google_breakpad::ElfClass64>::~FileIDTest_UniqueHashes_Test
FUNC 448c4 24 0 FileIDTest<google_breakpad::ElfClass64>::~FileIDTest
FUNC 448e8 48 0 FileIDTest<google_breakpad::ElfClass32>::~FileIDTest
FUNC 44930 14 0 FileIDTest_ElfClass_Test<google_breakpad::ElfClass32>::~FileIDTest_ElfClass_Test
FUNC 44944 24 0 FileIDTest_ElfClass_Test<google_breakpad::ElfClass32>::~FileIDTest_ElfClass_Test
FUNC 44968 14 0 FileIDTest_BuildID_Test<google_breakpad::ElfClass32>::~FileIDTest_BuildID_Test
FUNC 4497c 24 0 FileIDTest_BuildID_Test<google_breakpad::ElfClass32>::~FileIDTest_BuildID_Test
FUNC 449a0 14 0 FileIDTest_BuildIDPH_Test<google_breakpad::ElfClass32>::~FileIDTest_BuildIDPH_Test
FUNC 449b4 24 0 FileIDTest_BuildIDPH_Test<google_breakpad::ElfClass32>::~FileIDTest_BuildIDPH_Test
FUNC 449d8 14 0 FileIDTest_UniqueHashes_Test<google_breakpad::ElfClass32>::~FileIDTest_UniqueHashes_Test
FUNC 449ec 24 0 FileIDTest_UniqueHashes_Test<google_breakpad::ElfClass32>::~FileIDTest_UniqueHashes_Test
FUNC 44a10 24 0 FileIDTest<google_breakpad::ElfClass32>::~FileIDTest
FUNC 44a34 27c 0 testing::internal::CmpHelperOpFailure<unsigned int, long unsigned int>
FUNC 44cb0 1ec 0 FileIDTest<google_breakpad::ElfClass64>::GetElfContents
FUNC 44e9c 250 0 FileIDTest_ElfClass_Test<google_breakpad::ElfClass64>::TestBody
FUNC 450ec 374 0 FileIDTest_BuildID_Test<google_breakpad::ElfClass64>::TestBody
FUNC 45460 3cc 0 FileIDTest_BuildIDPH_Test<google_breakpad::ElfClass64>::TestBody
FUNC 4582c 464 0 FileIDTest_UniqueHashes_Test<google_breakpad::ElfClass64>::TestBody
FUNC 45c90 1ec 0 FileIDTest<google_breakpad::ElfClass32>::GetElfContents
FUNC 45e7c 250 0 FileIDTest_ElfClass_Test<google_breakpad::ElfClass32>::TestBody
FUNC 460cc 374 0 FileIDTest_BuildID_Test<google_breakpad::ElfClass32>::TestBody
FUNC 46440 3cc 0 FileIDTest_BuildIDPH_Test<google_breakpad::ElfClass32>::TestBody
FUNC 4680c 464 0 FileIDTest_UniqueHashes_Test<google_breakpad::ElfClass32>::TestBody
FUNC 46c70 4 0 testing::internal::TestFactoryImpl<LinuxLibcSupportTest_read_decimal_ptr_Test>::~TestFactoryImpl
FUNC 46c74 4 0 testing::internal::TestFactoryImpl<LinuxLibcSupportTest_read_hex_ptr_Test>::~TestFactoryImpl
FUNC 46c78 4 0 testing::internal::TestFactoryImpl<LinuxLibcSupportTest_memchr_Test>::~TestFactoryImpl
FUNC 46c7c 4 0 testing::internal::TestFactoryImpl<LinuxLibcSupportTest_strrchr_Test>::~TestFactoryImpl
FUNC 46c80 4 0 testing::internal::TestFactoryImpl<LinuxLibcSupportTest_strchr_Test>::~TestFactoryImpl
FUNC 46c84 4 0 testing::internal::TestFactoryImpl<LinuxLibcSupportTest_uitos_Test>::~TestFactoryImpl
FUNC 46c88 4 0 testing::internal::TestFactoryImpl<LinuxLibcSupportTest_uint_len_Test>::~TestFactoryImpl
FUNC 46c8c 4 0 testing::internal::TestFactoryImpl<LinuxLibcSupportTest_strtoui_Test>::~TestFactoryImpl
FUNC 46c90 4 0 testing::internal::TestFactoryImpl<LinuxLibcSupportTest_strcmp_Test>::~TestFactoryImpl
FUNC 46c94 4 0 testing::internal::TestFactoryImpl<LinuxLibcSupportTest_strlen_Test>::~TestFactoryImpl
FUNC 46c98 4 0 testing::internal::TestFactoryImpl<LinuxLibcSupportTest_strlen_Test>::~TestFactoryImpl
FUNC 46c9c 4 0 testing::internal::TestFactoryImpl<LinuxLibcSupportTest_strcmp_Test>::~TestFactoryImpl
FUNC 46ca0 4 0 testing::internal::TestFactoryImpl<LinuxLibcSupportTest_strtoui_Test>::~TestFactoryImpl
FUNC 46ca4 4 0 testing::internal::TestFactoryImpl<LinuxLibcSupportTest_uint_len_Test>::~TestFactoryImpl
FUNC 46ca8 4 0 testing::internal::TestFactoryImpl<LinuxLibcSupportTest_uitos_Test>::~TestFactoryImpl
FUNC 46cac 4 0 testing::internal::TestFactoryImpl<LinuxLibcSupportTest_strchr_Test>::~TestFactoryImpl
FUNC 46cb0 4 0 testing::internal::TestFactoryImpl<LinuxLibcSupportTest_strrchr_Test>::~TestFactoryImpl
FUNC 46cb4 4 0 testing::internal::TestFactoryImpl<LinuxLibcSupportTest_memchr_Test>::~TestFactoryImpl
FUNC 46cb8 4 0 testing::internal::TestFactoryImpl<LinuxLibcSupportTest_read_hex_ptr_Test>::~TestFactoryImpl
FUNC 46cbc 4 0 testing::internal::TestFactoryImpl<LinuxLibcSupportTest_read_decimal_ptr_Test>::~TestFactoryImpl
FUNC 46cc0 14 0 LinuxLibcSupportTest_read_decimal_ptr_Test::~LinuxLibcSupportTest_read_decimal_ptr_Test
FUNC 46cd4 24 0 LinuxLibcSupportTest_read_decimal_ptr_Test::~LinuxLibcSupportTest_read_decimal_ptr_Test
FUNC 46cf8 14 0 LinuxLibcSupportTest_read_hex_ptr_Test::~LinuxLibcSupportTest_read_hex_ptr_Test
FUNC 46d0c 24 0 LinuxLibcSupportTest_read_hex_ptr_Test::~LinuxLibcSupportTest_read_hex_ptr_Test
FUNC 46d30 14 0 LinuxLibcSupportTest_memchr_Test::~LinuxLibcSupportTest_memchr_Test
FUNC 46d44 24 0 LinuxLibcSupportTest_memchr_Test::~LinuxLibcSupportTest_memchr_Test
FUNC 46d68 14 0 LinuxLibcSupportTest_strrchr_Test::~LinuxLibcSupportTest_strrchr_Test
FUNC 46d7c 24 0 LinuxLibcSupportTest_strrchr_Test::~LinuxLibcSupportTest_strrchr_Test
FUNC 46da0 14 0 LinuxLibcSupportTest_strchr_Test::~LinuxLibcSupportTest_strchr_Test
FUNC 46db4 24 0 LinuxLibcSupportTest_strchr_Test::~LinuxLibcSupportTest_strchr_Test
FUNC 46dd8 14 0 LinuxLibcSupportTest_uitos_Test::~LinuxLibcSupportTest_uitos_Test
FUNC 46dec 24 0 LinuxLibcSupportTest_uitos_Test::~LinuxLibcSupportTest_uitos_Test
FUNC 46e10 14 0 LinuxLibcSupportTest_uint_len_Test::~LinuxLibcSupportTest_uint_len_Test
FUNC 46e24 24 0 LinuxLibcSupportTest_uint_len_Test::~LinuxLibcSupportTest_uint_len_Test
FUNC 46e48 14 0 LinuxLibcSupportTest_strtoui_Test::~LinuxLibcSupportTest_strtoui_Test
FUNC 46e5c 24 0 LinuxLibcSupportTest_strtoui_Test::~LinuxLibcSupportTest_strtoui_Test
FUNC 46e80 14 0 LinuxLibcSupportTest_strcmp_Test::~LinuxLibcSupportTest_strcmp_Test
FUNC 46e94 24 0 LinuxLibcSupportTest_strcmp_Test::~LinuxLibcSupportTest_strcmp_Test
FUNC 46eb8 14 0 LinuxLibcSupportTest_strlen_Test::~LinuxLibcSupportTest_strlen_Test
FUNC 46ecc 24 0 LinuxLibcSupportTest_strlen_Test::~LinuxLibcSupportTest_strlen_Test
FUNC 46ef0 3c 0 testing::internal::TestFactoryImpl<LinuxLibcSupportTest_read_decimal_ptr_Test>::CreateTest
FUNC 46f2c 3c 0 testing::internal::TestFactoryImpl<LinuxLibcSupportTest_read_hex_ptr_Test>::CreateTest
FUNC 46f68 3c 0 testing::internal::TestFactoryImpl<LinuxLibcSupportTest_memchr_Test>::CreateTest
FUNC 46fa4 3c 0 testing::internal::TestFactoryImpl<LinuxLibcSupportTest_strrchr_Test>::CreateTest
FUNC 46fe0 3c 0 testing::internal::TestFactoryImpl<LinuxLibcSupportTest_strchr_Test>::CreateTest
FUNC 4701c 3c 0 testing::internal::TestFactoryImpl<LinuxLibcSupportTest_uitos_Test>::CreateTest
FUNC 47058 3c 0 testing::internal::TestFactoryImpl<LinuxLibcSupportTest_uint_len_Test>::CreateTest
FUNC 47094 3c 0 testing::internal::TestFactoryImpl<LinuxLibcSupportTest_strtoui_Test>::CreateTest
FUNC 470d0 3c 0 testing::internal::TestFactoryImpl<LinuxLibcSupportTest_strcmp_Test>::CreateTest
FUNC 4710c 3c 0 testing::internal::TestFactoryImpl<LinuxLibcSupportTest_strlen_Test>::CreateTest
FUNC 47148 148 0 LinuxLibcSupportTest_strlen_Test::TestBody
FUNC 47290 124 0 LinuxLibcSupportTest_strcmp_Test::TestBody
FUNC 473b4 73c 0 LinuxLibcSupportTest_strtoui_Test::TestBody
FUNC 47af0 338 0 LinuxLibcSupportTest_uitos_Test::TestBody
FUNC 47e28 484 0 LinuxLibcSupportTest_uint_len_Test::TestBody
FUNC 482ac a8 0 testing::internal::CmpHelperEQ<char const*, char const*>
FUNC 48354 458 0 LinuxLibcSupportTest_strchr_Test::TestBody
FUNC 487ac 418 0 LinuxLibcSupportTest_strrchr_Test::TestBody
FUNC 48bc4 84 0 testing::internal::CmpHelperEQFailure<void*, void*>
FUNC 48c48 9c 0 testing::internal::CmpHelperEQ<char [10], void*>
FUNC 48ce4 9c 0 testing::internal::CmpHelperEQ<char const*, void*>
FUNC 48d80 3bc 0 LinuxLibcSupportTest_memchr_Test::TestBody
FUNC 4913c 5c 0 testing::PrintToString<char>
FUNC 49198 9c 0 testing::internal::CmpHelperEQ<char, int>
FUNC 49234 47c 0 LinuxLibcSupportTest_read_hex_ptr_Test::TestBody
FUNC 496b0 390 0 LinuxLibcSupportTest_read_decimal_ptr_Test::TestBody
FUNC 49a40 5c 0 google_breakpad::test_assembler::Section::Mark
FUNC 49a9c 74 0 google_breakpad::synth_elf::ELF::AppendSection
FUNC 49b10 150 0 google_breakpad::synth_elf::ELF::AddSegment
FUNC 49c60 34 0 google_breakpad::synth_elf::ELF::ElfSection::~ElfSection
FUNC 49c94 24 0 google_breakpad::synth_elf::ELF::ElfSection::~ElfSection
FUNC 49cb8 14 0 google_breakpad::synth_elf::SymbolTable::~SymbolTable
FUNC 49ccc 24 0 google_breakpad::synth_elf::SymbolTable::~SymbolTable
FUNC 49cf0 b4 0 google_breakpad::synth_elf::Notes::AddNote
FUNC 49da4 108 0 std::priv::_Impl_vector<google_breakpad::test_assembler::Section::Reference, std::allocator<google_breakpad::test_assembler::Section::Reference> >::_Impl_vector
FUNC 49eac 58 0 std::priv::_Rb_tree<std::basic_string<char, std::char_traits<char>, std::allocator<char> >, std::less<std::basic_string<char, std::char_traits<char>, std::allocator<char> > >, std::pair<const std::basic_string<char, std::char_traits<char>, std::allocator<char> >, google_breakpad::test_assembler::Label>, std::priv::_Select1st<std::pair<const std::basic_string<char, std::char_traits<char>, std::allocator<char> >, google_breakpad::test_assembler::Label> >, std::priv::_MapTraitsT<std::pair<const std::basic_string<char, std::char_traits<char>, std::allocator<char> >, google_breakpad::test_assembler::Label> >, std::allocator<std::pair<const std::basic_string<char, std::char_traits<char>, std::allocator<char> >, google_breakpad::test_assembler::Label> > >::_M_create_node
FUNC 49f04 48 0 google_breakpad::synth_elf::SymbolTable::SymbolTable
FUNC 49f4c 98 0 google_breakpad::synth_elf::ELF::ElfSection::ElfSection
FUNC 49fe4 204 0 std::priv::_Impl_vector<google_breakpad::synth_elf::ELF::ElfSection, std::allocator<google_breakpad::synth_elf::ELF::ElfSection> >::_M_insert_overflow_aux
FUNC 4a1e8 5c 0 std::priv::_Rb_global<bool>::_M_decrement
FUNC 4a244 dc 0 std::priv::_Rb_tree<std::basic_string<char, std::char_traits<char>, std::allocator<char> >, std::less<std::basic_string<char, std::char_traits<char>, std::allocator<char> > >, std::pair<const std::basic_string<char, std::char_traits<char>, std::allocator<char> >, google_breakpad::test_assembler::Label>, std::priv::_Select1st<std::pair<const std::basic_string<char, std::char_traits<char>, std::allocator<char> >, google_breakpad::test_assembler::Label> >, std::priv::_MapTraitsT<std::pair<const std::basic_string<char, std::char_traits<char>, std::allocator<char> >, google_breakpad::test_assembler::Label> >, std::allocator<std::pair<const std::basic_string<char, std::char_traits<char>, std::allocator<char> >, google_breakpad::test_assembler::Label> > >::_M_insert
FUNC 4a320 fc 0 std::priv::_Rb_tree<std::basic_string<char, std::char_traits<char>, std::allocator<char> >, std::less<std::basic_string<char, std::char_traits<char>, std::allocator<char> > >, std::pair<const std::basic_string<char, std::char_traits<char>, std::allocator<char> >, google_breakpad::test_assembler::Label>, std::priv::_Select1st<std::pair<const std::basic_string<char, std::char_traits<char>, std::allocator<char> >, google_breakpad::test_assembler::Label> >, std::priv::_MapTraitsT<std::pair<const std::basic_string<char, std::char_traits<char>, std::allocator<char> >, google_breakpad::test_assembler::Label> >, std::allocator<std::pair<const std::basic_string<char, std::char_traits<char>, std::allocator<char> >, google_breakpad::test_assembler::Label> > >::insert_unique
FUNC 4a41c 2d4 0 std::priv::_Rb_tree<std::basic_string<char, std::char_traits<char>, std::allocator<char> >, std::less<std::basic_string<char, std::char_traits<char>, std::allocator<char> > >, std::pair<const std::basic_string<char, std::char_traits<char>, std::allocator<char> >, google_breakpad::test_assembler::Label>, std::priv::_Select1st<std::pair<const std::basic_string<char, std::char_traits<char>, std::allocator<char> >, google_breakpad::test_assembler::Label> >, std::priv::_MapTraitsT<std::pair<const std::basic_string<char, std::char_traits<char>, std::allocator<char> >, google_breakpad::test_assembler::Label> >, std::allocator<std::pair<const std::basic_string<char, std::char_traits<char>, std::allocator<char> >, google_breakpad::test_assembler::Label> > >::insert_unique
FUNC 4a6f0 ec 0 std::map<std::basic_string<char, std::char_traits<char>, std::allocator<char> >, google_breakpad::test_assembler::Label, std::less<std::basic_string<char, std::char_traits<char>, std::allocator<char> > >, std::allocator<std::pair<const std::basic_string<char, std::char_traits<char>, std::allocator<char> >, google_breakpad::test_assembler::Label> > >::operator[]<std::basic_string<char, std::char_traits<char>, std::allocator<char> > >
FUNC 4a7dc 120 0 google_breakpad::synth_elf::StringTable::Add
FUNC 4a8fc a4 0 google_breakpad::synth_elf::SymbolTable::AddSymbol
FUNC 4a9a0 a4 0 google_breakpad::synth_elf::SymbolTable::AddSymbol
FUNC 4aa44 210 0 google_breakpad::synth_elf::ELF::AddSection
FUNC 4ac54 100 0 google_breakpad::synth_elf::ELF::Finish
FUNC 4ad54 438 0 google_breakpad::synth_elf::ELF::ELF
FUNC 4b18c 78 0 pthread_barrier_wait
FUNC 4b204 60 0 thread_function
FUNC 4b264 6c 0 google_breakpad::CrashGenerator::HasDefaultCorePattern
FUNC 4b2d0 c 0 google_breakpad::CrashGenerator::GetThreadId
FUNC 4b2dc c 0 google_breakpad::CrashGenerator::GetThreadIdPointer
FUNC 4b2e8 58 0 google_breakpad::CrashGenerator::UnmapSharedMemory
FUNC 4b340 88 0 google_breakpad::CrashGenerator::MapSharedMemory
FUNC 4b3c8 44 0 google_breakpad::CrashGenerator::SetCoreFileSizeLimit
FUNC 4b40c dc 0 google_breakpad::CrashGenerator::CopyProcFiles
FUNC 4b4e8 188 0 google_breakpad::CrashGenerator::CreateThreadsInChildProcess
FUNC 4b670 54 0 testing::internal::scoped_ptr<std::basic_stringstream<char, std::char_traits<char>, std::allocator<char> > >::reset
FUNC 4b6c4 28 0 google_breakpad::CrashGenerator::CrashGenerator
FUNC 4b6ec 30 0 google_breakpad::CrashGenerator::~CrashGenerator
FUNC 4b71c 2c 0 google_breakpad::CrashGenerator::GetCoreFilePath
FUNC 4b748 2c 0 google_breakpad::CrashGenerator::GetDirectoryOfProcFilesCopy
FUNC 4b774 27c 0 google_breakpad::CrashGenerator::CreateChildCrash
FUNC 4b9f0 4 0 testing::internal::TestFactoryImpl<WastefulVectorTest_UsesPageAllocator_Test>::~TestFactoryImpl
FUNC 4b9f4 4 0 testing::internal::TestFactoryImpl<WastefulVectorTest_Simple_Test>::~TestFactoryImpl
FUNC 4b9f8 4 0 testing::internal::TestFactoryImpl<WastefulVectorTest_Setup_Test>::~TestFactoryImpl
FUNC 4b9fc 4 0 testing::internal::TestFactoryImpl<PageAllocatorTest_LargeObject_Test>::~TestFactoryImpl
FUNC 4ba00 4 0 testing::internal::TestFactoryImpl<PageAllocatorTest_SmallObjects_Test>::~TestFactoryImpl
FUNC 4ba04 4 0 testing::internal::TestFactoryImpl<PageAllocatorTest_Setup_Test>::~TestFactoryImpl
FUNC 4ba08 4 0 testing::internal::TestFactoryImpl<PageAllocatorTest_Setup_Test>::~TestFactoryImpl
FUNC 4ba0c 4 0 testing::internal::TestFactoryImpl<PageAllocatorTest_SmallObjects_Test>::~TestFactoryImpl
FUNC 4ba10 4 0 testing::internal::TestFactoryImpl<PageAllocatorTest_LargeObject_Test>::~TestFactoryImpl
FUNC 4ba14 4 0 testing::internal::TestFactoryImpl<WastefulVectorTest_Setup_Test>::~TestFactoryImpl
FUNC 4ba18 4 0 testing::internal::TestFactoryImpl<WastefulVectorTest_Simple_Test>::~TestFactoryImpl
FUNC 4ba1c 4 0 testing::internal::TestFactoryImpl<WastefulVectorTest_UsesPageAllocator_Test>::~TestFactoryImpl
FUNC 4ba20 14 0 WastefulVectorTest_UsesPageAllocator_Test::~WastefulVectorTest_UsesPageAllocator_Test
FUNC 4ba34 24 0 WastefulVectorTest_UsesPageAllocator_Test::~WastefulVectorTest_UsesPageAllocator_Test
FUNC 4ba58 14 0 WastefulVectorTest_Simple_Test::~WastefulVectorTest_Simple_Test
FUNC 4ba6c 24 0 WastefulVectorTest_Simple_Test::~WastefulVectorTest_Simple_Test
FUNC 4ba90 14 0 WastefulVectorTest_Setup_Test::~WastefulVectorTest_Setup_Test
FUNC 4baa4 24 0 WastefulVectorTest_Setup_Test::~WastefulVectorTest_Setup_Test
FUNC 4bac8 14 0 PageAllocatorTest_LargeObject_Test::~PageAllocatorTest_LargeObject_Test
FUNC 4badc 24 0 PageAllocatorTest_LargeObject_Test::~PageAllocatorTest_LargeObject_Test
FUNC 4bb00 14 0 PageAllocatorTest_SmallObjects_Test::~PageAllocatorTest_SmallObjects_Test
FUNC 4bb14 24 0 PageAllocatorTest_SmallObjects_Test::~PageAllocatorTest_SmallObjects_Test
FUNC 4bb38 14 0 PageAllocatorTest_Setup_Test::~PageAllocatorTest_Setup_Test
FUNC 4bb4c 24 0 PageAllocatorTest_Setup_Test::~PageAllocatorTest_Setup_Test
FUNC 4bb70 3c 0 testing::internal::TestFactoryImpl<WastefulVectorTest_UsesPageAllocator_Test>::CreateTest
FUNC 4bbac 3c 0 testing::internal::TestFactoryImpl<WastefulVectorTest_Simple_Test>::CreateTest
FUNC 4bbe8 3c 0 testing::internal::TestFactoryImpl<WastefulVectorTest_Setup_Test>::CreateTest
FUNC 4bc24 3c 0 testing::internal::TestFactoryImpl<PageAllocatorTest_LargeObject_Test>::CreateTest
FUNC 4bc60 3c 0 testing::internal::TestFactoryImpl<PageAllocatorTest_SmallObjects_Test>::CreateTest
FUNC 4bc9c 3c 0 testing::internal::TestFactoryImpl<PageAllocatorTest_Setup_Test>::CreateTest
FUNC 4bcd8 34 0 google_breakpad::PageAllocator::PageAllocator
FUNC 4bd0c fc 0 google_breakpad::PageAllocator::Alloc
FUNC 4be08 64 0 google_breakpad::PageAllocator::FreeAll
FUNC 4be6c 2c 0 PageAllocatorTest_Setup_Test::TestBody
FUNC 4be98 114 0 PageAllocatorTest_SmallObjects_Test::TestBody
FUNC 4bfac 180 0 PageAllocatorTest_LargeObject_Test::TestBody
FUNC 4c12c d4 0 std::priv::_Impl_vector<unsigned int, google_breakpad::PageStdAllocator<unsigned int> >::push_back
FUNC 4c200 50 0 testing::internal::DefaultPrintTo<unsigned int>
FUNC 4c250 a8 0 std::priv::_Impl_vector<unsigned int, google_breakpad::PageStdAllocator<unsigned int> >::reserve
FUNC 4c2f8 134 0 WastefulVectorTest_UsesPageAllocator_Test::TestBody
FUNC 4c42c b4 0 testing::internal::CmpHelperEQFailure<long unsigned int, unsigned int>
FUNC 4c4e0 d8 0 WastefulVectorTest_Setup_Test::TestBody
FUNC 4c5b8 84 0 testing::internal::CmpHelperEQFailure<unsigned int, unsigned int>
FUNC 4c63c 478 0 WastefulVectorTest_Simple_Test::TestBody
FUNC 4cab4 4 0 testing::internal::TestFactoryImpl<google_breakpad::NonAllocatingMapTest_OutOfSpace_Test>::~TestFactoryImpl
FUNC 4cab8 4 0 testing::internal::TestFactoryImpl<google_breakpad::NonAllocatingMapTest_Serialize_Test>::~TestFactoryImpl
FUNC 4cabc 4 0 testing::internal::TestFactoryImpl<google_breakpad::NonAllocatingMapTest_AddRemove_Test>::~TestFactoryImpl
FUNC 4cac0 4 0 testing::internal::TestFactoryImpl<google_breakpad::NonAllocatingMapTest_Iterator_Test>::~TestFactoryImpl
FUNC 4cac4 4 0 testing::internal::TestFactoryImpl<google_breakpad::NonAllocatingMapTest_CopyAndAssign_Test>::~TestFactoryImpl
FUNC 4cac8 4 0 testing::internal::TestFactoryImpl<google_breakpad::NonAllocatingMapTest_SimpleStringDictionary_Test>::~TestFactoryImpl
FUNC 4cacc 4 0 testing::internal::TestFactoryImpl<google_breakpad::NonAllocatingMapTest_Entry_Test>::~TestFactoryImpl
FUNC 4cad0 4 0 testing::internal::TestFactoryImpl<google_breakpad::NonAllocatingMapTest_Entry_Test>::~TestFactoryImpl
FUNC 4cad4 4 0 testing::internal::TestFactoryImpl<google_breakpad::NonAllocatingMapTest_SimpleStringDictionary_Test>::~TestFactoryImpl
FUNC 4cad8 4 0 testing::internal::TestFactoryImpl<google_breakpad::NonAllocatingMapTest_CopyAndAssign_Test>::~TestFactoryImpl
FUNC 4cadc 4 0 testing::internal::TestFactoryImpl<google_breakpad::NonAllocatingMapTest_Iterator_Test>::~TestFactoryImpl
FUNC 4cae0 4 0 testing::internal::TestFactoryImpl<google_breakpad::NonAllocatingMapTest_AddRemove_Test>::~TestFactoryImpl
FUNC 4cae4 4 0 testing::internal::TestFactoryImpl<google_breakpad::NonAllocatingMapTest_Serialize_Test>::~TestFactoryImpl
FUNC 4cae8 4 0 testing::internal::TestFactoryImpl<google_breakpad::NonAllocatingMapTest_OutOfSpace_Test>::~TestFactoryImpl
FUNC 4caec 14 0 google_breakpad::NonAllocatingMapTest_OutOfSpace_Test::~NonAllocatingMapTest_OutOfSpace_Test
FUNC 4cb00 24 0 google_breakpad::NonAllocatingMapTest_OutOfSpace_Test::~NonAllocatingMapTest_OutOfSpace_Test
FUNC 4cb24 14 0 google_breakpad::NonAllocatingMapTest_Serialize_Test::~NonAllocatingMapTest_Serialize_Test
FUNC 4cb38 24 0 google_breakpad::NonAllocatingMapTest_Serialize_Test::~NonAllocatingMapTest_Serialize_Test
FUNC 4cb5c 14 0 google_breakpad::NonAllocatingMapTest_AddRemove_Test::~NonAllocatingMapTest_AddRemove_Test
FUNC 4cb70 24 0 google_breakpad::NonAllocatingMapTest_AddRemove_Test::~NonAllocatingMapTest_AddRemove_Test
FUNC 4cb94 14 0 google_breakpad::NonAllocatingMapTest_Iterator_Test::~NonAllocatingMapTest_Iterator_Test
FUNC 4cba8 24 0 google_breakpad::NonAllocatingMapTest_Iterator_Test::~NonAllocatingMapTest_Iterator_Test
FUNC 4cbcc 14 0 google_breakpad::NonAllocatingMapTest_CopyAndAssign_Test::~NonAllocatingMapTest_CopyAndAssign_Test
FUNC 4cbe0 24 0 google_breakpad::NonAllocatingMapTest_CopyAndAssign_Test::~NonAllocatingMapTest_CopyAndAssign_Test
FUNC 4cc04 14 0 google_breakpad::NonAllocatingMapTest_SimpleStringDictionary_Test::~NonAllocatingMapTest_SimpleStringDictionary_Test
FUNC 4cc18 24 0 google_breakpad::NonAllocatingMapTest_SimpleStringDictionary_Test::~NonAllocatingMapTest_SimpleStringDictionary_Test
FUNC 4cc3c 14 0 google_breakpad::NonAllocatingMapTest_Entry_Test::~NonAllocatingMapTest_Entry_Test
FUNC 4cc50 24 0 google_breakpad::NonAllocatingMapTest_Entry_Test::~NonAllocatingMapTest_Entry_Test
FUNC 4cc74 cc 0 google_breakpad::NonAllocatingMap<3ul, 2ul, 2ul>::SetKeyValue
FUNC 4cd40 b8 0 google_breakpad::NonAllocatingMap<5ul, 9ul, 15ul>::SetKeyValue
FUNC 4cdf8 3c 0 testing::internal::TestFactoryImpl<google_breakpad::NonAllocatingMapTest_OutOfSpace_Test>::CreateTest
FUNC 4ce34 3c 0 testing::internal::TestFactoryImpl<google_breakpad::NonAllocatingMapTest_SimpleStringDictionary_Test>::CreateTest
FUNC 4ce70 3c 0 testing::internal::TestFactoryImpl<google_breakpad::NonAllocatingMapTest_Entry_Test>::CreateTest
FUNC 4ceac 3c 0 testing::internal::TestFactoryImpl<google_breakpad::NonAllocatingMapTest_Serialize_Test>::CreateTest
FUNC 4cee8 3c 0 testing::internal::TestFactoryImpl<google_breakpad::NonAllocatingMapTest_AddRemove_Test>::CreateTest
FUNC 4cf24 3c 0 testing::internal::TestFactoryImpl<google_breakpad::NonAllocatingMapTest_Iterator_Test>::CreateTest
FUNC 4cf60 3c 0 testing::internal::TestFactoryImpl<google_breakpad::NonAllocatingMapTest_CopyAndAssign_Test>::CreateTest
FUNC 4cf9c 28 0 google_breakpad::NonAllocatingMap<5ul, 7ul, 6ul>::GetCount
FUNC 4cfc4 5c 0 google_breakpad::NonAllocatingMap<256ul, 256ul, 64ul>::GetConstEntryForKey
FUNC 4d020 24 0 google_breakpad::NonAllocatingMap<256ul, 256ul, 64ul>::RemoveKey
FUNC 4d044 c0 0 google_breakpad::NonAllocatingMap<256ul, 256ul, 64ul>::SetKeyValue
FUNC 4d104 5c 0 google_breakpad::NonAllocatingMap<10ul, 10ul, 10ul>::GetConstEntryForKey
FUNC 4d160 24 0 google_breakpad::NonAllocatingMap<10ul, 10ul, 10ul>::RemoveKey
FUNC 4d184 c4 0 google_breakpad::NonAllocatingMap<10ul, 10ul, 10ul>::SetKeyValue
FUNC 4d248 2c 0 google_breakpad::NonAllocatingMap<10ul, 10ul, 10ul>::GetValueForKey
FUNC 4d274 5c 0 google_breakpad::NonAllocatingMap<5ul, 7ul, 6ul>::GetConstEntryForKey
FUNC 4d2d0 24 0 google_breakpad::NonAllocatingMap<5ul, 7ul, 6ul>::RemoveKey
FUNC 4d2f4 c4 0 google_breakpad::NonAllocatingMap<5ul, 7ul, 6ul>::SetKeyValue
FUNC 4d3b8 5c 0 google_breakpad::NonAllocatingMap<4ul, 5ul, 7ul>::GetConstEntryForKey
FUNC 4d414 9c 0 google_breakpad::NonAllocatingMap<4ul, 5ul, 7ul>::SetKeyValue
FUNC 4d4b0 600 0 google_breakpad::NonAllocatingMapTest_Entry_Test::TestBody
FUNC 4dab0 990 0 google_breakpad::NonAllocatingMapTest_CopyAndAssign_Test::TestBody
FUNC 4e440 6a8 0 google_breakpad::NonAllocatingMapTest_AddRemove_Test::TestBody
FUNC 4eae8 5a4 0 google_breakpad::NonAllocatingMapTest_Serialize_Test::TestBody
FUNC 4f08c 218 0 google_breakpad::NonAllocatingMapTest_OutOfSpace_Test::TestBody
FUNC 4f2a4 144 0 testing::internal::CmpHelperOpFailure<char const*, char [7]>
FUNC 4f3e8 40 0 testing::internal::CmpHelperNE<char const*, char [7]>
FUNC 4f428 57c 0 google_breakpad::NonAllocatingMapTest_SimpleStringDictionary_Test::TestBody
FUNC 4f9a4 60c 0 google_breakpad::NonAllocatingMapTest_Iterator_Test::TestBody
FUNC 4ffb0 38 0 google_breakpad::test_assembler::Label::Label
FUNC 4ffe8 40 0 google_breakpad::test_assembler::Label::Label
FUNC 50028 18 0 google_breakpad::test_assembler::Label::Label
FUNC 50040 14 0 google_breakpad::test_assembler::Label::Binding::Binding
FUNC 50054 14 0 google_breakpad::test_assembler::Label::Binding::Binding
FUNC 50068 58 0 google_breakpad::test_assembler::Label::Binding::~Binding
FUNC 500c0 4c 0 google_breakpad::test_assembler::Label::~Label
FUNC 5010c b0 0 google_breakpad::test_assembler::Label::Binding::Get
FUNC 501bc 4c 0 google_breakpad::test_assembler::Label::IsKnownConstant
FUNC 50208 20 0 google_breakpad::test_assembler::Label::Value
FUNC 50228 70 0 google_breakpad::test_assembler::Label::IsKnownOffsetFrom
FUNC 50298 1c 0 google_breakpad::test_assembler::Label::operator-
FUNC 502b4 cc 0 google_breakpad::test_assembler::Label::Binding::Set
FUNC 50380 30 0 google_breakpad::test_assembler::Label::operator=
FUNC 503b0 30 0 google_breakpad::test_assembler::Label::operator=
FUNC 503e0 40 0 google_breakpad::test_assembler::Label::operator+
FUNC 50420 48 0 google_breakpad::test_assembler::Label::operator-
FUNC 50468 48 0 google_breakpad::test_assembler::Section::Align
FUNC 504b0 58 0 google_breakpad::test_assembler::Section::LEB128
FUNC 50508 54 0 google_breakpad::test_assembler::Section::ULEB128
FUNC 5055c 7c 0 google_breakpad::test_assembler::InsertEndian<std::back_insert_iterator<std::basic_string<char, std::char_traits<char>, std::allocator<char> > > >
FUNC 505d8 34 0 google_breakpad::test_assembler::Section::Append
FUNC 5060c 34 0 google_breakpad::test_assembler::Section::L16
FUNC 50640 34 0 google_breakpad::test_assembler::Section::L32
FUNC 50674 34 0 google_breakpad::test_assembler::Section::L64
FUNC 506a8 34 0 google_breakpad::test_assembler::Section::B16
FUNC 506dc 34 0 google_breakpad::test_assembler::Section::B32
FUNC 50710 34 0 google_breakpad::test_assembler::Section::B64
FUNC 50744 34 0 google_breakpad::test_assembler::Section::D16
FUNC 50778 34 0 google_breakpad::test_assembler::Section::D32
FUNC 507ac 34 0 google_breakpad::test_assembler::Section::D64
FUNC 507e0 50 0 std::priv::_Impl_vector<google_breakpad::test_assembler::Section::Reference, std::allocator<google_breakpad::test_assembler::Section::Reference> >::clear
FUNC 50830 24 0 google_breakpad::test_assembler::Section::Clear
FUNC 50854 108 0 std::priv::_String_base<char, std::allocator<char> >::_M_swap
FUNC 5095c 140 0 google_breakpad::test_assembler::Section::GetContents
FUNC 50a9c 274 0 std::priv::_Impl_vector<google_breakpad::test_assembler::Section::Reference, std::allocator<google_breakpad::test_assembler::Section::Reference> >::_M_insert_overflow_aux
FUNC 50d10 78 0 std::priv::_Impl_vector<google_breakpad::test_assembler::Section::Reference, std::allocator<google_breakpad::test_assembler::Section::Reference> >::push_back
FUNC 50d88 c0 0 google_breakpad::test_assembler::Section::Append
FUNC 50e48 10 0 google_breakpad::test_assembler::Section::L8
FUNC 50e58 10 0 google_breakpad::test_assembler::Section::B8
FUNC 50e68 10 0 google_breakpad::test_assembler::Section::L16
FUNC 50e78 10 0 google_breakpad::test_assembler::Section::L32
FUNC 50e88 10 0 google_breakpad::test_assembler::Section::L64
FUNC 50e98 10 0 google_breakpad::test_assembler::Section::B16
FUNC 50ea8 10 0 google_breakpad::test_assembler::Section::B32
FUNC 50eb8 10 0 google_breakpad::test_assembler::Section::B64
FUNC 50ec8 10 0 google_breakpad::test_assembler::Section::D8
FUNC 50ed8 10 0 google_breakpad::test_assembler::Section::D16
FUNC 50ee8 10 0 google_breakpad::test_assembler::Section::D32
FUNC 50ef8 10 0 google_breakpad::test_assembler::Section::D64
FUNC 50f08 1e4 0 google_breakpad::test_assembler::Section::Append
FUNC 510ec 1e4 0 google_breakpad::CopyFile
FUNC 512d0 104 0 google_breakpad::ReadFile
FUNC 513d4 104 0 google_breakpad::WriteFile
FUNC 514d8 4 0 testing::internal::TestFactoryImpl<MinidumpMemoryRangeTest_GetAsciiMDString_Test>::~TestFactoryImpl
FUNC 514dc 4 0 testing::internal::TestFactoryImpl<MinidumpMemoryRangeTest_GetArrayElmentWithTemplateType_Test>::~TestFactoryImpl
FUNC 514e0 4 0 testing::internal::TestFactoryImpl<MinidumpMemoryRangeTest_GetArrayElement_Test>::~TestFactoryImpl
FUNC 514e4 4 0 testing::internal::TestFactoryImpl<MinidumpMemoryRangeTest_GetDataWithTemplateType_Test>::~TestFactoryImpl
FUNC 514e8 4 0 testing::internal::TestFactoryImpl<MinidumpMemoryRangeTest_SubrangeWithMDLocationDescriptor_Test>::~TestFactoryImpl
FUNC 514ec 4 0 testing::internal::TestFactoryImpl<MinidumpMemoryRangeTest_SubrangeAndGetData_Test>::~TestFactoryImpl
FUNC 514f0 4 0 testing::internal::TestFactoryImpl<MinidumpMemoryRangeTest_SubrangeOfEmptyMemoryRange_Test>::~TestFactoryImpl
FUNC 514f4 4 0 testing::internal::TestFactoryImpl<MinidumpMemoryRangeTest_Set_Test>::~TestFactoryImpl
FUNC 514f8 4 0 testing::internal::TestFactoryImpl<MinidumpMemoryRangeTest_Reset_Test>::~TestFactoryImpl
FUNC 514fc 4 0 testing::internal::TestFactoryImpl<MinidumpMemoryRangeTest_ConstructorWithDataAndLength_Test>::~TestFactoryImpl
FUNC 51500 4 0 testing::internal::TestFactoryImpl<MinidumpMemoryRangeTest_DefaultConstructor_Test>::~TestFactoryImpl
FUNC 51504 4 0 testing::internal::TestFactoryImpl<MinidumpMemoryRangeTest_DefaultConstructor_Test>::~TestFactoryImpl
FUNC 51508 4 0 testing::internal::TestFactoryImpl<MinidumpMemoryRangeTest_ConstructorWithDataAndLength_Test>::~TestFactoryImpl
FUNC 5150c 4 0 testing::internal::TestFactoryImpl<MinidumpMemoryRangeTest_Reset_Test>::~TestFactoryImpl
FUNC 51510 4 0 testing::internal::TestFactoryImpl<MinidumpMemoryRangeTest_Set_Test>::~TestFactoryImpl
FUNC 51514 4 0 testing::internal::TestFactoryImpl<MinidumpMemoryRangeTest_SubrangeOfEmptyMemoryRange_Test>::~TestFactoryImpl
FUNC 51518 4 0 testing::internal::TestFactoryImpl<MinidumpMemoryRangeTest_SubrangeAndGetData_Test>::~TestFactoryImpl
FUNC 5151c 4 0 testing::internal::TestFactoryImpl<MinidumpMemoryRangeTest_SubrangeWithMDLocationDescriptor_Test>::~TestFactoryImpl
FUNC 51520 4 0 testing::internal::TestFactoryImpl<MinidumpMemoryRangeTest_GetDataWithTemplateType_Test>::~TestFactoryImpl
FUNC 51524 4 0 testing::internal::TestFactoryImpl<MinidumpMemoryRangeTest_GetArrayElement_Test>::~TestFactoryImpl
FUNC 51528 4 0 testing::internal::TestFactoryImpl<MinidumpMemoryRangeTest_GetArrayElmentWithTemplateType_Test>::~TestFactoryImpl
FUNC 5152c 4 0 testing::internal::TestFactoryImpl<MinidumpMemoryRangeTest_GetAsciiMDString_Test>::~TestFactoryImpl
FUNC 51530 14 0 MinidumpMemoryRangeTest_GetAsciiMDString_Test::~MinidumpMemoryRangeTest_GetAsciiMDString_Test
FUNC 51544 24 0 MinidumpMemoryRangeTest_GetAsciiMDString_Test::~MinidumpMemoryRangeTest_GetAsciiMDString_Test
FUNC 51568 14 0 MinidumpMemoryRangeTest_GetArrayElmentWithTemplateType_Test::~MinidumpMemoryRangeTest_GetArrayElmentWithTemplateType_Test
FUNC 5157c 24 0 MinidumpMemoryRangeTest_GetArrayElmentWithTemplateType_Test::~MinidumpMemoryRangeTest_GetArrayElmentWithTemplateType_Test
FUNC 515a0 14 0 MinidumpMemoryRangeTest_GetArrayElement_Test::~MinidumpMemoryRangeTest_GetArrayElement_Test
FUNC 515b4 24 0 MinidumpMemoryRangeTest_GetArrayElement_Test::~MinidumpMemoryRangeTest_GetArrayElement_Test
FUNC 515d8 14 0 MinidumpMemoryRangeTest_GetDataWithTemplateType_Test::~MinidumpMemoryRangeTest_GetDataWithTemplateType_Test
FUNC 515ec 24 0 MinidumpMemoryRangeTest_GetDataWithTemplateType_Test::~MinidumpMemoryRangeTest_GetDataWithTemplateType_Test
FUNC 51610 14 0 MinidumpMemoryRangeTest_SubrangeWithMDLocationDescriptor_Test::~MinidumpMemoryRangeTest_SubrangeWithMDLocationDescriptor_Test
FUNC 51624 24 0 MinidumpMemoryRangeTest_SubrangeWithMDLocationDescriptor_Test::~MinidumpMemoryRangeTest_SubrangeWithMDLocationDescriptor_Test
FUNC 51648 14 0 MinidumpMemoryRangeTest_SubrangeAndGetData_Test::~MinidumpMemoryRangeTest_SubrangeAndGetData_Test
FUNC 5165c 24 0 MinidumpMemoryRangeTest_SubrangeAndGetData_Test::~MinidumpMemoryRangeTest_SubrangeAndGetData_Test
FUNC 51680 14 0 MinidumpMemoryRangeTest_SubrangeOfEmptyMemoryRange_Test::~MinidumpMemoryRangeTest_SubrangeOfEmptyMemoryRange_Test
FUNC 51694 24 0 MinidumpMemoryRangeTest_SubrangeOfEmptyMemoryRange_Test::~MinidumpMemoryRangeTest_SubrangeOfEmptyMemoryRange_Test
FUNC 516b8 14 0 MinidumpMemoryRangeTest_Set_Test::~MinidumpMemoryRangeTest_Set_Test
FUNC 516cc 24 0 MinidumpMemoryRangeTest_Set_Test::~MinidumpMemoryRangeTest_Set_Test
FUNC 516f0 14 0 MinidumpMemoryRangeTest_Reset_Test::~MinidumpMemoryRangeTest_Reset_Test
FUNC 51704 24 0 MinidumpMemoryRangeTest_Reset_Test::~MinidumpMemoryRangeTest_Reset_Test
FUNC 51728 14 0 MinidumpMemoryRangeTest_ConstructorWithDataAndLength_Test::~MinidumpMemoryRangeTest_ConstructorWithDataAndLength_Test
FUNC 5173c 24 0 MinidumpMemoryRangeTest_ConstructorWithDataAndLength_Test::~MinidumpMemoryRangeTest_ConstructorWithDataAndLength_Test
FUNC 51760 14 0 MinidumpMemoryRangeTest_DefaultConstructor_Test::~MinidumpMemoryRangeTest_DefaultConstructor_Test
FUNC 51774 24 0 MinidumpMemoryRangeTest_DefaultConstructor_Test::~MinidumpMemoryRangeTest_DefaultConstructor_Test
FUNC 51798 3c 0 testing::internal::TestFactoryImpl<MinidumpMemoryRangeTest_GetAsciiMDString_Test>::CreateTest
FUNC 517d4 3c 0 testing::internal::TestFactoryImpl<MinidumpMemoryRangeTest_GetArrayElmentWithTemplateType_Test>::CreateTest
FUNC 51810 3c 0 testing::internal::TestFactoryImpl<MinidumpMemoryRangeTest_GetArrayElement_Test>::CreateTest
FUNC 5184c 3c 0 testing::internal::TestFactoryImpl<MinidumpMemoryRangeTest_GetDataWithTemplateType_Test>::CreateTest
FUNC 51888 3c 0 testing::internal::TestFactoryImpl<MinidumpMemoryRangeTest_SubrangeWithMDLocationDescriptor_Test>::CreateTest
FUNC 518c4 3c 0 testing::internal::TestFactoryImpl<MinidumpMemoryRangeTest_SubrangeAndGetData_Test>::CreateTest
FUNC 51900 3c 0 testing::internal::TestFactoryImpl<MinidumpMemoryRangeTest_SubrangeOfEmptyMemoryRange_Test>::CreateTest
FUNC 5193c 3c 0 testing::internal::TestFactoryImpl<MinidumpMemoryRangeTest_Set_Test>::CreateTest
FUNC 51978 3c 0 testing::internal::TestFactoryImpl<MinidumpMemoryRangeTest_Reset_Test>::CreateTest
FUNC 519b4 3c 0 testing::internal::TestFactoryImpl<MinidumpMemoryRangeTest_ConstructorWithDataAndLength_Test>::CreateTest
FUNC 519f0 3c 0 testing::internal::TestFactoryImpl<MinidumpMemoryRangeTest_DefaultConstructor_Test>::CreateTest
FUNC 51a2c 3c 0 google_breakpad::MemoryRange::GetData
FUNC 51a68 3c 0 google_breakpad::MinidumpMemoryRange::Subrange
FUNC 51aa4 90 0 google_breakpad::MinidumpMemoryRange::GetAsciiMDString
FUNC 51b34 cc 0 testing::PrintToString<char const*>
FUNC 51c00 50 0 testing::internal::DefaultPrintTo<void const>
FUNC 51c50 50 0 testing::internal::DefaultPrintTo<int const>
FUNC 51ca0 11c 0 testing::operator<<
FUNC 51dbc e8 0 testing::internal::CmpHelperEQFailure<int const*, int const*>
FUNC 51ea4 50 0 std::operator==<char, std::char_traits<char>, std::allocator<char> >
FUNC 51ef4 5c 0 testing::PrintToString<unsigned char const*>
FUNC 51f50 9c 0 testing::internal::CmpHelperEQ<unsigned char const*, unsigned char const*>
FUNC 51fec 12c 0 MinidumpMemoryRangeTest_DefaultConstructor_Test::TestBody
FUNC 52118 148 0 MinidumpMemoryRangeTest_SubrangeOfEmptyMemoryRange_Test::TestBody
FUNC 52260 13c 0 MinidumpMemoryRangeTest_ConstructorWithDataAndLength_Test::TestBody
FUNC 5239c 338 0 MinidumpMemoryRangeTest_Reset_Test::TestBody
FUNC 526d4 240 0 MinidumpMemoryRangeTest_Set_Test::TestBody
FUNC 52914 9c 0 testing::internal::CmpHelperEQ<unsigned char const*, void const*>
FUNC 529b0 84 0 testing::internal::CmpHelperEQFailure<void const*, void const*>
FUNC 52a34 5ac 0 MinidumpMemoryRangeTest_SubrangeWithMDLocationDescriptor_Test::TestBody
FUNC 52fe0 204 0 MinidumpMemoryRangeTest_GetArrayElement_Test::TestBody
FUNC 531e4 5ac 0 MinidumpMemoryRangeTest_SubrangeAndGetData_Test::TestBody
FUNC 53790 90 0 testing::internal::CmpHelperEQFailure<char const*, char const*>
FUNC 53820 190 0 MinidumpMemoryRangeTest_GetDataWithTemplateType_Test::TestBody
FUNC 539b0 190 0 MinidumpMemoryRangeTest_GetArrayElmentWithTemplateType_Test::TestBody
FUNC 53b40 bc 0 testing::internal::CmpHelperEQ<char [1], std::basic_string<char, std::char_traits<char>, std::allocator<char> > >
FUNC 53bfc 3d0 0 MinidumpMemoryRangeTest_GetAsciiMDString_Test::TestBody
FUNC 53fcc 4 0 testing::internal::TestFactoryImpl<AndroidUContext_SigmakOffset_Test>::~TestFactoryImpl
FUNC 53fd0 4 0 testing::internal::TestFactoryImpl<AndroidUContext_GRegsOffset_Test>::~TestFactoryImpl
FUNC 53fd4 4 0 testing::internal::TestFactoryImpl<AndroidUContext_GRegsOffset_Test>::~TestFactoryImpl
FUNC 53fd8 4 0 testing::internal::TestFactoryImpl<AndroidUContext_SigmakOffset_Test>::~TestFactoryImpl
FUNC 53fdc 14 0 AndroidUContext_SigmakOffset_Test::~AndroidUContext_SigmakOffset_Test
FUNC 53ff0 24 0 AndroidUContext_SigmakOffset_Test::~AndroidUContext_SigmakOffset_Test
FUNC 54014 14 0 AndroidUContext_GRegsOffset_Test::~AndroidUContext_GRegsOffset_Test
FUNC 54028 24 0 AndroidUContext_GRegsOffset_Test::~AndroidUContext_GRegsOffset_Test
FUNC 5404c 3c 0 testing::internal::TestFactoryImpl<AndroidUContext_SigmakOffset_Test>::CreateTest
FUNC 54088 3c 0 testing::internal::TestFactoryImpl<AndroidUContext_GRegsOffset_Test>::CreateTest
FUNC 540c4 13c 0 testing::internal::CmpHelperEQFailure<long unsigned int, long unsigned int>
FUNC 54200 9c 0 AndroidUContext_SigmakOffset_Test::TestBody
FUNC 5429c 1d8 0 AndroidUContext_GRegsOffset_Test::TestBody
FUNC 54474 1c 0 std::basic_streambuf<char, std::char_traits<char> >::_M_sputnc
FUNC 54490 ec 0 std::basic_ostream<char, std::char_traits<char> >::operator<<
FUNC 5457c 48 0 std::basic_streambuf<char, std::char_traits<char> >::sputc
FUNC 545c4 11c 0 std::basic_ostream<char, std::char_traits<char> >::_M_put_char
FUNC 546e0 2dc 0 std::operator+<char, std::char_traits<char>, std::allocator<char> >
FUNC 549bc 234 0 testing::internal::PrintCharAndCodeTo<unsigned char, unsigned char>
FUNC 54bf0 4 0 testing::internal::PrintTo
FUNC 54bf4 190 0 testing::internal::PrintAsCharLiteralTo<wchar_t, wchar_t>
FUNC 54d84 100 0 testing::internal::PrintCharsAsStringTo<char>
FUNC 54e84 18 0 testing::internal::PrintStringTo
FUNC 54e9c 34 0 testing::internal::HasNewFatalFailureHelper::ReportTestPartResult
FUNC 54ed0 34 0 testing::internal::HasNewFatalFailureHelper::~HasNewFatalFailureHelper
FUNC 54f04 24 0 testing::internal::HasNewFatalFailureHelper::~HasNewFatalFailureHelper
FUNC 54f28 48 0 testing::internal::HasNewFatalFailureHelper::HasNewFatalFailureHelper
FUNC 54f70 a8 0 testing::TestPartResult::ExtractSummary
FUNC 55018 48 0 testing::TestPartResult::TestPartResult
FUNC 55060 268 0 std::priv::_Impl_vector<testing::TestPartResult, std::allocator<testing::TestPartResult> >::_M_insert_overflow_aux
FUNC 552c8 10 0 std::ios_base::precision
FUNC 552d8 10 0 std::ios_base::width
FUNC 552e8 20 0 testing::internal::DeleteThreadLocalValue
FUNC 55308 20 0 testing::Test::DeleteSelf_
FUNC 55328 18 0 testing::TestCase::RunSetUpTestCase
FUNC 55340 18 0 testing::TestCase::RunTearDownTestCase
FUNC 55358 14 0 testing::TestCase::TestReportableDisabled
FUNC 5536c 8 0 testing::TestCase::TestReportable
FUNC 55374 8 0 testing::TestCase::ShouldRunTest
FUNC 5537c 4 0 testing::EmptyTestEventListener::OnTestProgramStart
FUNC 55380 4 0 testing::EmptyTestEventListener::OnTestIterationStart
FUNC 55384 4 0 testing::EmptyTestEventListener::OnEnvironmentsSetUpStart
FUNC 55388 4 0 testing::EmptyTestEventListener::OnEnvironmentsSetUpEnd
FUNC 5538c 4 0 testing::EmptyTestEventListener::OnTestCaseStart
FUNC 55390 4 0 testing::EmptyTestEventListener::OnTestStart
FUNC 55394 4 0 testing::EmptyTestEventListener::OnTestPartResult
FUNC 55398 4 0 testing::EmptyTestEventListener::OnTestEnd
FUNC 5539c 4 0 testing::EmptyTestEventListener::OnTestCaseEnd
FUNC 553a0 4 0 testing::EmptyTestEventListener::OnEnvironmentsTearDownStart
FUNC 553a4 4 0 testing::EmptyTestEventListener::OnEnvironmentsTearDownEnd
FUNC 553a8 4 0 testing::EmptyTestEventListener::OnTestProgramEnd
FUNC 553ac 8 0 testing::internal::ShouldRunTestCase
FUNC 553b4 4 0 testing::Test::SetUp
FUNC 553b8 4 0 testing::Test::TearDown
FUNC 553bc 4 0 testing::internal::PrettyUnitTestResultPrinter::OnTestProgramStart
FUNC 553c0 4 0 testing::internal::PrettyUnitTestResultPrinter::OnEnvironmentsSetUpEnd
FUNC 553c4 4 0 testing::internal::PrettyUnitTestResultPrinter::OnEnvironmentsTearDownEnd
FUNC 553c8 4 0 testing::internal::PrettyUnitTestResultPrinter::OnTestProgramEnd
FUNC 553cc 4 0 testing::internal::OsStackTraceGetter::UponLeavingGTest
FUNC 553d0 1c 0 testing::internal::SetUpEnvironment
FUNC 553ec 1c 0 testing::internal::TearDownEnvironment
FUNC 55408 20 0 testing::internal::Delete<testing::TestEventListener>
FUNC 55428 20 0 testing::internal::Delete<testing::TestCase>
FUNC 55448 20 0 testing::internal::Delete<testing::Environment>
FUNC 55468 4 0 testing::internal::ThreadLocal<testing::TestPartResultReporterInterface*>::ValueHolder::~ValueHolder
FUNC 5546c 4 0 testing::internal::PrettyUnitTestResultPrinter::~PrettyUnitTestResultPrinter
FUNC 55470 4 0 testing::internal::DefaultPerThreadTestPartResultReporter::~DefaultPerThreadTestPartResultReporter
FUNC 55474 4 0 testing::internal::DefaultGlobalTestPartResultReporter::~DefaultGlobalTestPartResultReporter
FUNC 55478 4 0 testing::internal::ThreadLocal<testing::TestPartResultReporterInterface*>::ValueHolder::~ValueHolder
FUNC 5547c 4 0 testing::internal::DefaultPerThreadTestPartResultReporter::~DefaultPerThreadTestPartResultReporter
FUNC 55480 4 0 testing::internal::DefaultGlobalTestPartResultReporter::~DefaultGlobalTestPartResultReporter
FUNC 55484 4 0 testing::internal::PrettyUnitTestResultPrinter::~PrettyUnitTestResultPrinter
FUNC 55488 64 0 testing::internal::TestEventRepeater::OnTestProgramStart
FUNC 554ec 64 0 testing::internal::TestEventRepeater::OnEnvironmentsSetUpStart
FUNC 55550 64 0 testing::internal::TestEventRepeater::OnTestCaseStart
FUNC 555b4 64 0 testing::internal::TestEventRepeater::OnTestStart
FUNC 55618 64 0 testing::internal::TestEventRepeater::OnTestPartResult
FUNC 5567c 64 0 testing::internal::TestEventRepeater::OnEnvironmentsTearDownStart
FUNC 556e0 80 0 testing::internal::TestEventRepeater::OnEnvironmentsSetUpEnd
FUNC 55760 80 0 testing::internal::TestEventRepeater::OnEnvironmentsTearDownEnd
FUNC 557e0 80 0 testing::internal::TestEventRepeater::OnTestEnd
FUNC 55860 80 0 testing::internal::TestEventRepeater::OnTestCaseEnd
FUNC 558e0 80 0 testing::internal::TestEventRepeater::OnTestProgramEnd
FUNC 55960 6c 0 testing::internal::TestEventRepeater::OnTestIterationStart
FUNC 559cc 88 0 testing::internal::TestEventRepeater::OnTestIterationEnd
FUNC 55a54 84 0 testing::internal::PrintOnOneLine
FUNC 55ad8 60 0 testing::internal::SumOverTestCaseList
FUNC 55b38 30 0 testing::internal::StreamingListener::~StreamingListener
FUNC 55b68 24 0 testing::internal::StreamingListener::~StreamingListener
FUNC 55b8c 5c 0 std::allocator<testing::internal::edit_distance::EditType>::_M_allocate
FUNC 55be8 a8 0 testing::internal::UnitTestOptions::PatternMatchesString
FUNC 55c90 58 0 testing::internal::UnitTestOptions::MatchesFilter
FUNC 55ce8 c 0 testing::internal::GetTestTypeId
FUNC 55cf4 24 0 testing::internal::UnitTestImpl::successful_test_count
FUNC 55d18 24 0 testing::internal::UnitTestImpl::failed_test_count
FUNC 55d3c 24 0 testing::internal::UnitTestImpl::reportable_disabled_test_count
FUNC 55d60 24 0 testing::internal::UnitTestImpl::reportable_test_count
FUNC 55d84 24 0 testing::internal::UnitTestImpl::test_to_run_count
FUNC 55da8 30 0 testing::internal::GetTimeInMillis
FUNC 55dd8 30 0 testing::internal::String::CStringEquals
FUNC 55e08 14 0 testing::AssertionSuccess
FUNC 55e1c 10 0 testing::AssertionFailure
FUNC 55e2c 30 0 testing::internal::String::CaseInsensitiveCStringEquals
FUNC 55e5c 58 0 testing::TestResult::GetTestPartResult
FUNC 55eb4 58 0 testing::TestResult::GetTestProperty
FUNC 55f0c 70 0 testing::TestResult::Failed
FUNC 55f7c 18 0 testing::TestCase::TestFailed
FUNC 55f94 2c 0 testing::TestCase::TestPassed
FUNC 55fc0 30 0 testing::TestResult::HasFatalFailure
FUNC 55ff0 30 0 testing::TestResult::HasNonfatalFailure
FUNC 56020 50 0 testing::internal::UnitTestImpl::RegisterParameterizedTests
FUNC 56070 28 0 testing::TestCase::UnshuffleTests
FUNC 56098 44 0 testing::internal::GetAnsiColorCode
FUNC 560dc 154 0 testing::internal::ShouldUseColor
FUNC 56230 134 0 testing::internal::ColoredPrintf
FUNC 56364 38 0 testing::internal::PrettyUnitTestResultPrinter::OnEnvironmentsSetUpStart
FUNC 5639c 54 0 testing::internal::PrettyUnitTestResultPrinter::OnTestStart
FUNC 563f0 38 0 testing::internal::PrettyUnitTestResultPrinter::OnEnvironmentsTearDownStart
FUNC 56428 c0 0 testing::internal::PrintFullTestCommentIfPresent
FUNC 564e8 7c 0 testing::internal::TestEventRepeater::Release
FUNC 56564 50 0 testing::TestEventListeners::TestEventListeners
FUNC 565b4 24 0 testing::TestEventListeners::~TestEventListeners
FUNC 565d8 2c 0 testing::TestEventListeners::Release
FUNC 56604 c 0 testing::TestEventListeners::SuppressEventForwarding
FUNC 56610 18 0 testing::UnitTest::total_test_case_count
FUNC 56628 8 0 testing::UnitTest::successful_test_count
FUNC 56630 8 0 testing::UnitTest::failed_test_count
FUNC 56638 8 0 testing::UnitTest::reportable_disabled_test_count
FUNC 56640 8 0 testing::UnitTest::reportable_test_count
FUNC 56648 8 0 testing::UnitTest::test_to_run_count
FUNC 56650 c 0 testing::UnitTest::original_working_dir
FUNC 5665c 14 0 testing::internal::UnitTestImpl::SuppressTestEventsIfInSubprocess
FUNC 56670 30 0 testing::internal::TestCaseNameIs::operator()
FUNC 566a0 7c 0 testing::internal::WriteToShardStatusFileIfNeeded
FUNC 5671c 144 0 testing::internal::UnitTestImpl::ListTestsMatchingFilter
FUNC 56860 4c 0 testing::internal::UnitTestImpl::UnshuffleTests
FUNC 568ac 4 0 testing::internal::IsTrue
FUNC 568b0 8 0 testing::internal::AlwaysTrue
FUNC 568b8 5c 0 testing::internal::SkipPrefix
FUNC 56914 b8 0 testing::internal::HasGoogleTestFlagPrefix
FUNC 569cc 30 0 testing::internal::GetElementOr<int>
FUNC 569fc 3c 0 testing::TestCase::GetTestInfo
FUNC 56a38 3c 0 testing::TestCase::GetMutableTestInfo
FUNC 56a74 40 0 testing::UnitTest::GetTestCase
FUNC 56ab4 5c 0 testing::internal::CountIf<std::vector<testing::TestCase*>, bool (*)(const testing::TestCase*)>
FUNC 56b10 10 0 testing::internal::UnitTestImpl::failed_test_case_count
FUNC 56b20 3c 0 testing::internal::UnitTestImpl::Failed
FUNC 56b5c 20 0 testing::UnitTest::Passed
FUNC 56b7c 10 0 testing::internal::UnitTestImpl::test_case_to_run_count
FUNC 56b8c 8 0 testing::UnitTest::test_case_to_run_count
FUNC 56b94 50 0 std::operator<< <char, std::char_traits<char>, long int>
FUNC 56be4 1c 0 std::priv::_Impl_vector<testing::internal::edit_distance::EditType, std::allocator<testing::internal::edit_distance::EditType> >::~_Impl_vector
FUNC 56c00 58 0 std::operator==<char, std::char_traits<char>, std::allocator<char> >
FUNC 56c58 5c 0 testing::internal::CountIf<std::vector<testing::TestInfo*>, bool (*)(const testing::TestInfo*)>
FUNC 56cb4 10 0 testing::TestCase::successful_test_count
FUNC 56cc4 10 0 testing::TestCase::failed_test_count
FUNC 56cd4 28 0 testing::internal::TestCaseFailed
FUNC 56cfc 104 0 testing::internal::PrettyUnitTestResultPrinter::PrintFailedTests
FUNC 56e00 10 0 testing::TestCase::reportable_disabled_test_count
FUNC 56e10 10 0 testing::TestCase::reportable_test_count
FUNC 56e20 10 0 testing::TestCase::test_to_run_count
FUNC 56e30 4 0 std::basic_string<char, std::char_traits<char>, std::allocator<char> >::~basic_string
FUNC 56e34 3c 0 testing::internal::AssertHelper::~AssertHelper
FUNC 56e70 30 0 testing::TestPartResult::~TestPartResult
FUNC 56ea0 10 0 testing::internal::XmlUnitTestResultPrinter::~XmlUnitTestResultPrinter
FUNC 56eb0 24 0 testing::internal::XmlUnitTestResultPrinter::~XmlUnitTestResultPrinter
FUNC 56ed4 68 0 std::priv::_Impl_vector<std::basic_string<char, std::char_traits<char>, std::allocator<char> >, std::allocator<std::basic_string<char, std::char_traits<char>, std::allocator<char> > > >::~_Impl_vector
FUNC 56f3c 58 0 testing::internal::scoped_ptr<testing::internal::InternalRunDeathTestFlag>::reset
FUNC 56f94 1c 0 std::priv::_Vector_base<void*, std::allocator<void*> >::~_Vector_base
FUNC 56fb0 50 0 testing::internal::TestEventRepeater::~TestEventRepeater
FUNC 57000 24 0 testing::internal::TestEventRepeater::~TestEventRepeater
FUNC 57024 1c 0 std::priv::_Vector_base<double, std::allocator<double> >::~_Vector_base
FUNC 57040 1c 0 std::priv::_Vector_base<long unsigned int, std::allocator<long unsigned int> >::~_Vector_base
FUNC 5705c f0 0 std::priv::_Impl_vector<long unsigned int, std::allocator<long unsigned int> >::push_back
FUNC 5714c 60 0 std::basic_string<char, std::char_traits<char>, std::allocator<char> >::reserve
FUNC 571ac f0 0 std::priv::_Impl_vector<int, std::allocator<int> >::push_back
FUNC 5729c 38 0 std::basic_string<char, std::char_traits<char>, std::allocator<char> >::operator=
FUNC 572d4 50 0 std::priv::_Impl_vector<testing::TestPartResult, std::allocator<testing::TestPartResult> >::clear
FUNC 57324 68 0 testing::TestResult::Clear
FUNC 5738c 44 0 testing::TestCase::ClearResult
FUNC 573d0 194 0 testing::Test::~Test
FUNC 57564 10 0 std::basic_string<char, std::char_traits<char>, std::allocator<char> >::append
FUNC 57574 12c 0 std::priv::__find_if<testing::TestCase**, testing::internal::TestCaseNameIs>
FUNC 576a0 4c 0 std::basic_string<char, std::char_traits<char>, std::allocator<char> >::_M_range_initialize
FUNC 576ec 68 0 testing::internal::AssertHelper::AssertHelper
FUNC 57754 30 0 testing::internal::UnitTestImpl::CurrentOsStackTraceExceptTop
FUNC 57784 70 0 testing::internal::XmlUnitTestResultPrinter::XmlUnitTestResultPrinter
FUNC 577f4 30 0 testing::internal::OsStackTraceGetter::CurrentStackTrace
FUNC 57824 e4 0 std::priv::_Impl_vector<std::basic_string<char, std::char_traits<char>, std::allocator<char> >, std::allocator<std::basic_string<char, std::char_traits<char>, std::allocator<char> > > >::_M_range_initialize<char const* const*>
FUNC 57908 24 0 testing::internal::FilePath::FilePath
FUNC 5792c 7c 0 testing::internal::GetCurrentExecutableName
FUNC 579a8 4c 0 testing::AssertionResult::AssertionResult
FUNC 579f4 60 0 std::priv::_Rb_tree<std::basic_string<char, std::char_traits<char>, std::allocator<char> >, std::less<std::basic_string<char, std::char_traits<char>, std::allocator<char> > >, std::pair<const std::basic_string<char, std::char_traits<char>, std::allocator<char> >, long unsigned int>, std::priv::_Select1st<std::pair<const std::basic_string<char, std::char_traits<char>, std::allocator<char> >, long unsigned int> >, std::priv::_MapTraitsT<std::pair<const std::basic_string<char, std::char_traits<char>, std::allocator<char> >, long unsigned int> >, std::allocator<std::pair<const std::basic_string<char, std::char_traits<char>, std::allocator<char> >, long unsigned int> > >::_M_create_node
FUNC 57a54 54 0 std::basic_string<char, std::char_traits<char>, std::allocator<char> >::basic_string
FUNC 57aa8 78 0 testing::internal::UnitTestOptions::GetOutputFormat
FUNC 57b20 9c 0 testing::internal::XmlUnitTestResultPrinter::RemoveInvalidXmlCharacters
FUNC 57bbc ac 0 testing::internal::StringStreamToString
FUNC 57c68 28 0 testing::Message::GetString
FUNC 57c90 58 0 testing::Message::Message
FUNC 57ce8 1a4 0 testing::Test::Test
FUNC 57e8c 120 0 testing::internal::PrintColorEncoded
FUNC 57fac cc 0 testing::internal::String::FormatByte
FUNC 58078 138 0 testing::internal::Random::Generate
FUNC 581b0 38 0 testing::Message::operator<< <char const>
FUNC 581e8 8c 0 testing::internal::StreamingListener::SocketWriter::CloseConnection
FUNC 58274 44 0 testing::internal::StreamingListener::SocketWriter::~SocketWriter
FUNC 582b8 24 0 testing::internal::StreamingListener::SocketWriter::~SocketWriter
FUNC 582dc 68 0 testing::internal::StreamableToString<char*>
FUNC 58344 8c 0 testing::internal::Int32FromEnvOrDie
FUNC 583d0 54 0 testing::AssertionResult::operator<< <char [2]>
FUNC 58424 54 0 testing::AssertionResult::operator<< <char [7]>
FUNC 58478 10c 0 testing::internal::CmpHelperSTRNE
FUNC 58584 118 0 testing::internal::GetBoolAssertionFailureMessage
FUNC 5869c 98 0 testing::internal::MutexBase::Lock
FUNC 58734 8c 0 testing::internal::GTestMutexLock::~GTestMutexLock
FUNC 587c0 38 0 testing::internal::UnitTestImpl::GetGlobalTestPartResultReporter
FUNC 587f8 2c 0 testing::internal::DefaultPerThreadTestPartResultReporter::ReportTestPartResult
FUNC 58824 90 0 testing::internal::Mutex::Mutex
FUNC 588b4 40 0 testing::TestResult::TestResult
FUNC 588f4 c0 0 testing::TestInfo::TestInfo
FUNC 589b4 a8 0 testing::TestCase::TestCase
FUNC 58a5c 54 0 testing::internal::UnitTestImpl::os_stack_trace_getter
FUNC 58ab0 84 0 testing::internal::Mutex::~Mutex
FUNC 58b34 40 0 testing::UnitTest::~UnitTest
FUNC 58b74 24 0 testing::UnitTest::~UnitTest
FUNC 58b98 10 0 testing::internal::OsStackTraceGetter::~OsStackTraceGetter
FUNC 58ba8 24 0 testing::internal::OsStackTraceGetter::~OsStackTraceGetter
FUNC 58bcc 9c 0 testing::TestResult::~TestResult
FUNC 58c68 74 0 testing::TestInfo::~TestInfo
FUNC 58cdc 34 0 testing::internal::Delete<testing::TestInfo>
FUNC 58d10 8c 0 testing::TestCase::~TestCase
FUNC 58d9c 24 0 testing::TestCase::~TestCase
FUNC 58dc0 1d0 0 testing::internal::ShuffleRange<int>
FUNC 58f90 b0 0 testing::internal::UnitTestImpl::ShuffleTests
FUNC 59040 9c 0 testing::internal::String::FormatIntWidth2
FUNC 590dc 90 0 testing::internal::String::FormatHexInt
FUNC 5916c 1a0 0 testing::internal::ThreadLocal<std::vector<testing::internal::TraceInfo, std::allocator<testing::internal::TraceInfo> > >::GetOrCreateValue
FUNC 5930c 50 0 testing::UnitTest::PopGTestTrace
FUNC 5935c c8 0 std::priv::__put_num<char, std::char_traits<char>, double>
FUNC 59428 64 0 testing::internal::FormatTimeInMillisAsSeconds
FUNC 59498 f8 0 testing::internal::XmlUnitTestResultPrinter::OutputXmlCDataSection
FUNC 59590 108 0 testing::internal::StreamingListener::SocketWriter::Send
FUNC 59698 1d4 0 testing::internal::StreamingListener::SocketWriter::MakeConnection
FUNC 5986c 7c 0 testing::AssertionResult::operator<< <testing::Message>
FUNC 598e8 104 0 testing::internal::PrettyUnitTestResultPrinter::OnTestPartResult
FUNC 599ec 1c8 0 testing::internal::XmlUnitTestResultPrinter::EscapeXml
FUNC 59bb4 154 0 testing::internal::XmlUnitTestResultPrinter::TestPropertiesAsXmlAttributes
FUNC 59d08 64 0 testing::Message::Message
FUNC 59d6c 380 0 testing::internal::ShouldShard
FUNC 5a0ec 14 0 testing::internal::ShouldShard
FUNC 5a100 134 0 testing::GetReservedAttributesForElement
FUNC 5a234 c8 0 testing::internal::ThreadLocal<testing::TestPartResultReporterInterface*>::GetOrCreateValue
FUNC 5a2fc 1c 0 testing::internal::UnitTestImpl::GetTestPartResultReporterForCurrentThread
FUNC 5a318 2a4 0 testing::UnitTest::AddTestPartResult
FUNC 5a5bc 24 0 testing::internal::UnitTestImpl::SetTestPartResultReporterForCurrentThread
FUNC 5a5e0 8c 0 std::priv::_Rb_tree<std::basic_string<char, std::char_traits<char>, std::allocator<char> >, std::less<std::basic_string<char, std::char_traits<char>, std::allocator<char> > >, std::pair<const std::basic_string<char, std::char_traits<char>, std::allocator<char> >, long unsigned int>, std::priv::_Select1st<std::pair<const std::basic_string<char, std::char_traits<char>, std::allocator<char> >, long unsigned int> >, std::priv::_MapTraitsT<std::pair<const std::basic_string<char, std::char_traits<char>, std::allocator<char> >, long unsigned int> >, std::allocator<std::pair<const std::basic_string<char, std::char_traits<char>, std::allocator<char> >, long unsigned int> > >::_M_find<std::basic_string<char, std::char_traits<char>, std::allocator<char> > >
FUNC 5a66c 58 0 std::priv::_Rb_tree<std::basic_string<char, std::char_traits<char>, std::allocator<char> >, std::less<std::basic_string<char, std::char_traits<char>, std::allocator<char> > >, std::pair<const std::basic_string<char, std::char_traits<char>, std::allocator<char> >, long unsigned int>, std::priv::_Select1st<std::pair<const std::basic_string<char, std::char_traits<char>, std::allocator<char> >, long unsigned int> >, std::priv::_MapTraitsT<std::pair<const std::basic_string<char, std::char_traits<char>, std::allocator<char> >, long unsigned int> >, std::allocator<std::pair<const std::basic_string<char, std::char_traits<char>, std::allocator<char> >, long unsigned int> > >::_M_erase
FUNC 5a6c4 44 0 std::priv::_List_base<std::pair<char, char const*>, std::allocator<std::pair<char, char const*> > >::clear
FUNC 5a708 3c 0 std::priv::_List_global<bool>::_Transfer
FUNC 5a744 9c 0 testing::internal::edit_distance::::Hunk::PushLine
FUNC 5a7e0 4c 0 std::operator==<char, std::char_traits<char>, std::allocator<char> >
FUNC 5a82c 144 0 std::priv::__find<const std::basic_string<char, std::char_traits<char>, std::allocator<char> >*, std::basic_string<char, std::char_traits<char>, std::allocator<char> > >
FUNC 5a970 154 0 testing::internal::XmlUnitTestResultPrinter::OutputXmlAttribute
FUNC 5aac4 124 0 std::priv::_Impl_vector<void*, std::allocator<void*> >::_M_insert_overflow
FUNC 5abe8 50 0 std::priv::_Impl_vector<void*, std::allocator<void*> >::push_back
FUNC 5ac38 28 0 testing::TestEventListeners::Append
FUNC 5ac60 5c 0 testing::TestEventListeners::SetDefaultResultPrinter
FUNC 5acbc 244 0 testing::internal::UnitTestImpl::UnitTestImpl
FUNC 5af00 44 0 testing::UnitTest::UnitTest
FUNC 5af44 5c 0 testing::UnitTest::GetInstance
FUNC 5afa0 244 0 testing::internal::UnitTestOptions::GetAbsolutePathToOutputFile
FUNC 5b1e4 18 0 testing::internal::GetUnitTestImpl
FUNC 5b1fc 4c 0 testing::internal::HandleExceptionsInMethodIfSupported<testing::Test, void>
FUNC 5b248 28 0 testing::Test::HasFatalFailure
FUNC 5b270 28 0 testing::Test::HasNonfatalFailure
FUNC 5b298 14 0 testing::internal::ScopedTrace::~ScopedTrace
FUNC 5b2ac 5c 0 testing::TestEventListeners::SetDefaultXmlGenerator
FUNC 5b308 c8 0 testing::internal::UnitTestImpl::ConfigureXmlOutput
FUNC 5b3d0 50 0 testing::TestCase::AddTestInfo
FUNC 5b420 38 0 std::_Destroy_Range<std::reverse_iterator<testing::internal::TraceInfo*> >
FUNC 5b458 5c 0 testing::internal::ThreadLocal<std::vector<testing::internal::TraceInfo, std::allocator<testing::internal::TraceInfo> > >::ValueHolder::~ValueHolder
FUNC 5b4b4 24 0 testing::internal::ThreadLocal<std::vector<testing::internal::TraceInfo, std::allocator<testing::internal::TraceInfo> > >::ValueHolder::~ValueHolder
FUNC 5b4d8 228 0 testing::internal::UnitTestImpl::~UnitTestImpl
FUNC 5b700 24 0 testing::internal::UnitTestImpl::~UnitTestImpl
FUNC 5b724 e4 0 testing::internal::StreamingListener::UrlEncode
FUNC 5b808 18c 0 testing::internal::UnitTestOptions::FilterMatchesTest
FUNC 5b994 1f8 0 testing::internal::UnitTestImpl::FilterTests
FUNC 5bb8c 58 0 testing::internal::StreamingListener::SendLn
FUNC 5bbe4 48 0 testing::internal::StreamingListener::OnTestProgramStart
FUNC 5bc2c 9c 0 testing::internal::StreamingListener::OnTestProgramEnd
FUNC 5bcc8 6c 0 testing::internal::StreamingListener::OnTestIterationStart
FUNC 5bd34 228 0 testing::internal::UnitTestImpl::ConfigureStreamingOutput
FUNC 5bf5c 64 0 testing::internal::UnitTestImpl::PostFlagParsingInit
FUNC 5bfc0 94 0 testing::internal::AppendUserMessage
FUNC 5c054 a0 0 testing::internal::AssertHelper::operator=
FUNC 5c0f4 314 0 testing::Test::HasSameFixtureClass
FUNC 5c408 bc 0 testing::Test::Run
FUNC 5c4c4 10c 0 testing::TestInfo::Run
FUNC 5c5d0 100 0 testing::TestCase::Run
FUNC 5c6d0 3fc 0 testing::internal::UnitTestImpl::RunAllTests
FUNC 5cacc cc 0 testing::UnitTest::Run
FUNC 5cb98 70 0 testing::internal::StreamingListener::OnTestStart
FUNC 5cc08 70 0 testing::internal::StreamingListener::OnTestCaseStart
FUNC 5cc78 88 0 testing::FormatCountableNoun
FUNC 5cd00 ac 0 testing::internal::PrettyUnitTestResultPrinter::OnTestCaseStart
FUNC 5cdac 18c 0 testing::internal::PrettyUnitTestResultPrinter::OnTestIterationStart
FUNC 5cf38 2a0 0 testing::internal::FormatEpochTimeInMillisAsIso8601
FUNC 5d1d8 e0 0 testing::internal::ParseFlagValue
FUNC 5d2b8 54 0 testing::internal::ParseBoolFlag
FUNC 5d30c 8c 0 testing::internal::ParseInt32Flag
FUNC 5d398 38 0 testing::internal::ParseStringFlag
FUNC 5d3d0 374 0 testing::internal::ParseGoogleTestFlagsOnlyImpl<char>
FUNC 5d744 150 0 testing::internal::StreamingListener::OnTestPartResult
FUNC 5d894 47c 0 testing::internal::XmlUnitTestResultPrinter::OutputXmlTestInfo
FUNC 5dd10 2e4 0 testing::internal::XmlUnitTestResultPrinter::PrintXmlTestCase
FUNC 5dff4 3ac 0 testing::internal::XmlUnitTestResultPrinter::PrintXmlUnitTest
FUNC 5e3a0 108 0 testing::internal::XmlUnitTestResultPrinter::OnTestIterationEnd
FUNC 5e4a8 c0 0 std::priv::__put_num<char, std::char_traits<char>, long long int>
FUNC 5e568 5c 0 testing::internal::StreamableToString<long long int>
FUNC 5e5c4 d4 0 testing::internal::PrettyUnitTestResultPrinter::OnTestEnd
FUNC 5e698 23c 0 testing::internal::PrettyUnitTestResultPrinter::OnTestIterationEnd
FUNC 5e8d4 bc 0 testing::internal::PrettyUnitTestResultPrinter::OnTestCaseEnd
FUNC 5e990 11c 0 testing::internal::StreamingListener::OnTestEnd
FUNC 5eaac 11c 0 testing::internal::StreamingListener::OnTestCaseEnd
FUNC 5ebc8 124 0 testing::internal::StreamingListener::OnTestIterationEnd
FUNC 5ecec 1a0 0 std::priv::_Impl_vector<testing::internal::edit_distance::EditType, std::allocator<testing::internal::edit_distance::EditType> >::_M_insert_overflow_aux
FUNC 5ee90 63c 0 testing::internal::edit_distance::CalculateOptimalEdits
FUNC 5f4d8 60 0 std::priv::_Impl_vector<testing::TestPartResult, std::allocator<testing::TestPartResult> >::push_back
FUNC 5f538 58 0 testing::internal::DefaultGlobalTestPartResultReporter::ReportTestPartResult
FUNC 5f590 244 0 std::priv::_Impl_vector<testing::internal::TraceInfo, std::allocator<testing::internal::TraceInfo> >::_M_insert_overflow_aux
FUNC 5f7d4 98 0 testing::UnitTest::PushGTestTrace
FUNC 5f86c 88 0 testing::internal::ScopedTrace::ScopedTrace
FUNC 5f8f4 148 0 std::priv::_Impl_vector<void*, std::allocator<void*> >::_M_fill_insert_aux
FUNC 5fa3c 1a4 0 testing::internal::UnitTestImpl::GetTestCase
FUNC 5fbe0 16c 0 testing::internal::MakeAndRegisterTestInfo
FUNC 5fd4c dc 0 std::priv::_Rb_tree<std::basic_string<char, std::char_traits<char>, std::allocator<char> >, std::less<std::basic_string<char, std::char_traits<char>, std::allocator<char> > >, std::pair<const std::basic_string<char, std::char_traits<char>, std::allocator<char> >, long unsigned int>, std::priv::_Select1st<std::pair<const std::basic_string<char, std::char_traits<char>, std::allocator<char> >, long unsigned int> >, std::priv::_MapTraitsT<std::pair<const std::basic_string<char, std::char_traits<char>, std::allocator<char> >, long unsigned int> >, std::allocator<std::pair<const std::basic_string<char, std::char_traits<char>, std::allocator<char> >, long unsigned int> > >::_M_insert
FUNC 5fe28 fc 0 std::priv::_Rb_tree<std::basic_string<char, std::char_traits<char>, std::allocator<char> >, std::less<std::basic_string<char, std::char_traits<char>, std::allocator<char> > >, std::pair<const std::basic_string<char, std::char_traits<char>, std::allocator<char> >, long unsigned int>, std::priv::_Select1st<std::pair<const std::basic_string<char, std::char_traits<char>, std::allocator<char> >, long unsigned int> >, std::priv::_MapTraitsT<std::pair<const std::basic_string<char, std::char_traits<char>, std::allocator<char> >, long unsigned int> >, std::allocator<std::pair<const std::basic_string<char, std::char_traits<char>, std::allocator<char> >, long unsigned int> > >::insert_unique
FUNC 5ff24 2d4 0 std::priv::_Rb_tree<std::basic_string<char, std::char_traits<char>, std::allocator<char> >, std::less<std::basic_string<char, std::char_traits<char>, std::allocator<char> > >, std::pair<const std::basic_string<char, std::char_traits<char>, std::allocator<char> >, long unsigned int>, std::priv::_Select1st<std::pair<const std::basic_string<char, std::char_traits<char>, std::allocator<char> >, long unsigned int> >, std::priv::_MapTraitsT<std::pair<const std::basic_string<char, std::char_traits<char>, std::allocator<char> >, long unsigned int> >, std::allocator<std::pair<const std::basic_string<char, std::char_traits<char>, std::allocator<char> >, long unsigned int> > >::insert_unique
FUNC 601f8 c8 0 std::map<std::basic_string<char, std::char_traits<char>, std::allocator<char> >, long unsigned int, std::less<std::basic_string<char, std::char_traits<char>, std::allocator<char> > >, std::allocator<std::pair<const std::basic_string<char, std::char_traits<char>, std::allocator<char> >, long unsigned int> > >::operator[]<std::basic_string<char, std::char_traits<char>, std::allocator<char> > >
FUNC 602c0 1b4 0 testing::internal::edit_distance::CalculateOptimalEdits
FUNC 60474 554 0 testing::internal::edit_distance::CreateUnifiedDiff
FUNC 609c8 54 0 std::priv::_String_base<char, std::allocator<char> >::_M_move_src
FUNC 60a1c d4 0 std::priv::_Impl_vector<std::basic_string<char, std::char_traits<char>, std::allocator<char> >, std::allocator<std::basic_string<char, std::char_traits<char>, std::allocator<char> > > >::_M_erase
FUNC 60af0 224 0 std::priv::_Impl_vector<std::basic_string<char, std::char_traits<char>, std::allocator<char> >, std::allocator<std::basic_string<char, std::char_traits<char>, std::allocator<char> > > >::_M_insert_overflow_aux
FUNC 60d14 b4 0 std::priv::_Impl_vector<std::basic_string<char, std::char_traits<char>, std::allocator<char> >, std::allocator<std::basic_string<char, std::char_traits<char>, std::allocator<char> > > >::push_back
FUNC 60dc8 128 0 testing::internal::::SplitEscapedString
FUNC 60ef0 22c 0 testing::internal::EqFailure
FUNC 6111c b0 0 testing::internal::CmpHelperSTREQ
FUNC 611cc f4 0 testing::InitGoogleTest
FUNC 612c0 4 0 testing::internal::DefaultDeathTestFactory::~DefaultDeathTestFactory
FUNC 612c4 4 0 testing::internal::DefaultDeathTestFactory::~DefaultDeathTestFactory
FUNC 612c8 1c 0 testing::internal::AlwaysFalse
FUNC 612e4 80 0 testing::internal::DeathTestAbort
FUNC 61364 50 0 testing::internal::GetLastErrnoDescription
FUNC 613b4 54 0 testing::internal::DeathTest::DeathTest
FUNC 61408 60 0 testing::internal::ForkingDeathTest::ForkingDeathTest
FUNC 61468 e8 0 testing::internal::ParseNaturalNumber<int>
FUNC 61550 c8 0 testing::internal::DeathTest::set_last_death_test_message
FUNC 61618 104 0 testing::internal::FormatDeathTestOutput
FUNC 6171c 348 0 testing::internal::DeathTestImpl::Passed
FUNC 61a64 18 0 testing::internal::DeathTestImpl::Passed
FUNC 61a7c 3c0 0 testing::internal::DeathTestImpl::ReadAndInterpretStatusByte
FUNC 61e3c 13c 0 testing::internal::DeathTestImpl::Abort
FUNC 61f78 74 0 testing::internal::ForkingDeathTest::Wait
FUNC 61fec 51c 0 testing::internal::NoExecDeathTest::AssumeRole
FUNC 62508 c0 0 testing::internal::DeathTestImpl::~DeathTestImpl
FUNC 625c8 50 0 testing::internal::DeathTestImpl::~DeathTestImpl
FUNC 62618 24 0 testing::internal::DeathTestImpl::~DeathTestImpl
FUNC 6263c 10 0 testing::internal::ExecDeathTest::~ExecDeathTest
FUNC 6264c 24 0 testing::internal::ExecDeathTest::~ExecDeathTest
FUNC 62670 10 0 testing::internal::NoExecDeathTest::~NoExecDeathTest
FUNC 62680 24 0 testing::internal::NoExecDeathTest::~NoExecDeathTest
FUNC 626a4 24c 0 testing::internal::DefaultDeathTestFactory::Create
FUNC 628f0 4c 0 std::priv::_Impl_vector<void*, std::allocator<void*> >::_M_fill_insert
FUNC 6293c 44 0 testing::internal::Arguments::AddArgument
FUNC 62980 c0c 0 testing::internal::ExecDeathTest::AssumeRole
FUNC 6358c 234 0 testing::internal::ParseInternalRunDeathTestFlag
FUNC 637c0 c 0 testing::internal::FilePath::FindLastPathSeparator
FUNC 637cc 24 0 testing::internal::FilePath::FileOrDirectoryExists
FUNC 637f0 38 0 testing::internal::FilePath::DirectoryExists
FUNC 63828 14 0 testing::internal::FilePath::IsAbsolutePath
FUNC 6383c 24 0 testing::internal::FilePath::IsDirectory
FUNC 63860 44 0 testing::internal::FilePath::CreateFolder
FUNC 638a4 c0 0 testing::internal::FilePath::Normalize
FUNC 63964 90 0 testing::internal::FilePath::GetCurrentDir
FUNC 639f4 68 0 testing::internal::FilePath::RemoveDirectoryName
FUNC 63a5c 78 0 testing::internal::FilePath::RemoveTrailingPathSeparator
FUNC 63ad4 1ec 0 testing::internal::FilePath::ConcatPaths
FUNC 63cc0 b4 0 testing::internal::FilePath::RemoveFileName
FUNC 63d74 a0 0 testing::internal::FilePath::CreateDirectoriesRecursively
FUNC 63e14 224 0 testing::internal::FilePath::MakeFileName
FUNC 64038 a4 0 testing::internal::FilePath::GenerateUniqueFileName
FUNC 640dc 8 0 testing::internal::GetThreadCount
FUNC 640e4 30 0 testing::internal::IsInSet
FUNC 64114 c 0 testing::internal::IsAsciiPunct
FUNC 64120 c 0 testing::internal::IsRepeat
FUNC 6412c c 0 testing::internal::IsAsciiWhiteSpace
FUNC 64138 3c 0 testing::internal::IsAsciiWordChar
FUNC 64174 158 0 testing::internal::AtomMatchesChar
FUNC 642cc bc 0 testing::internal::MatchRegexAtHead
FUNC 64388 c0 0 testing::internal::MatchRepetitionAndRegexAtHead
FUNC 64448 68 0 testing::internal::MatchRegexAnywhere
FUNC 644b0 1c 0 testing::internal::RE::PartialMatch
FUNC 644cc 2c 0 testing::internal::CapturedStream::GetFileSize
FUNC 644f8 18 0 testing::internal::GetInjectableArgvs
FUNC 64510 3c 0 std::_Destroy_Range<std::reverse_iterator<std::basic_string<char, std::char_traits<char>, std::allocator<char> >*> >
FUNC 6454c 5c 0 std::vector<std::basic_string<char, std::char_traits<char>, std::allocator<char> >, std::allocator<std::basic_string<char, std::char_traits<char>, std::allocator<char> > > >::~vector
FUNC 645a8 9c 0 testing::internal::CapturedStream::ReadEntireFile
FUNC 64644 a8 0 testing::internal::GetCapturedStream
FUNC 646ec 2c 0 testing::internal::GetCapturedStderr
FUNC 64718 38 0 testing::Message::operator<< <char const>
FUNC 64750 7c 0 std::endl<char, std::char_traits<char> >
FUNC 647cc 48 0 testing::internal::GTestLog::~GTestLog
FUNC 64814 1a8 0 testing::internal::ParseInt32
FUNC 649bc 150 0 testing::internal::FormatFileLocation
FUNC 64b0c cc 0 testing::internal::GTestLog::GTestLog
FUNC 64bd8 1a4 0 testing::internal::CaptureStream
FUNC 64d7c 18 0 testing::internal::CaptureStderr
FUNC 64d94 13c 0 testing::internal::FormatCompilerIndependentFileLocation
FUNC 64ed0 c8 0 testing::internal::FlagToEnvVar
FUNC 64f98 54 0 testing::internal::BoolFromGTestEnv
FUNC 64fec 10c 0 testing::internal::Int32FromGTestEnv
FUNC 650f8 48 0 testing::internal::StringFromGTestEnv
FUNC 65140 40 0 sys_sigaltstack
FUNC 65180 44 0 sys_close
FUNC 651c4 50 0 sys_prctl
FUNC 65214 fc 0 google_breakpad::ExceptionHandler::InstallHandlersLocked
FUNC 65310 2b0 0 google_breakpad::ExceptionHandler::ExceptionHandler
FUNC 655c0 84 0 google_breakpad::ExceptionHandler::RestoreHandlersLocked
FUNC 65644 c4 0 google_breakpad::ExceptionHandler::SendContinueSignalToChild
FUNC 65708 368 0 google_breakpad::ExceptionHandler::GenerateDump
FUNC 65a70 128 0 google_breakpad::ExceptionHandler::HandleSignal
FUNC 65b98 5c 0 google_breakpad::ExceptionHandler::HandleSignal
FUNC 65bf4 190 0 google_breakpad::ExceptionHandler::SignalHandler
FUNC 65d84 b8 0 google_breakpad::ExceptionHandler::WaitForContinueSignal
FUNC 65e3c 68 0 google_breakpad::ExceptionHandler::DoDump
FUNC 65ea4 40 0 google_breakpad::ExceptionHandler::ThreadEntry
FUNC 65ee4 130 0 google_breakpad::ExceptionHandler::WriteMinidump
FUNC 66014 b4 0 google_breakpad::ExceptionHandler::AddMappingInfo
FUNC 660c8 84 0 google_breakpad::ExceptionHandler::RegisterAppMemory
FUNC 6614c 48 0 google_breakpad::ExceptionHandler::UnregisterAppMemory
FUNC 66194 258 0 google_breakpad::ExceptionHandler::~ExceptionHandler
FUNC 663ec cc 0 google_breakpad::ExceptionHandler::WriteMinidumpForChild
FUNC 664b8 a4 0 google_breakpad::MinidumpDescriptor::MinidumpDescriptor
FUNC 6655c f0 0 google_breakpad::MinidumpDescriptor::UpdatePath
FUNC 6664c 88 0 google_breakpad::MinidumpDescriptor::operator=
FUNC 666d4 14 0 logger::write
FUNC 666e8 c 0 MicrodumpWriter::LogAppend
FUNC 666f4 40 0 MicrodumpWriter::LogAppend<unsigned char>
FUNC 66734 4c 0 MicrodumpWriter::LogAppend<long unsigned int>
FUNC 66780 44 0 MicrodumpWriter::LogCommitLine
FUNC 667c4 220 0 MicrodumpWriter::DumpModule
FUNC 669e4 678 0 google_breakpad::WriteMicrodump
FUNC 6705c 8 0 google_breakpad::LinuxCoreDumper::IsPostMortem
FUNC 67064 8 0 google_breakpad::LinuxCoreDumper::ThreadsSuspend
FUNC 6706c 8 0 google_breakpad::LinuxCoreDumper::ThreadsResume
FUNC 67074 64 0 google_breakpad::LinuxCoreDumper::GetThreadInfoByIndex
FUNC 670d8 54 0 google_breakpad::LinuxCoreDumper::CopyFromProcess
FUNC 6712c b4 0 google_breakpad::LinuxCoreDumper::BuildProcPath
FUNC 671e0 90 0 std::priv::__ucopy<google_breakpad::ThreadInfo*, google_breakpad::ThreadInfo*, long int>
FUNC 67270 84 0 google_breakpad::LinuxCoreDumper::LinuxCoreDumper
FUNC 672f4 190 0 std::priv::_Impl_vector<google_breakpad::ThreadInfo, google_breakpad::PageStdAllocator<google_breakpad::ThreadInfo> >::_M_insert_overflow_aux
FUNC 67484 2b4 0 google_breakpad::LinuxCoreDumper::EnumerateThreads
FUNC 67738 60 0 google_breakpad::LinuxCoreDumper::EnumerateThreads
FUNC 67798 1ac 0 google_breakpad::::ElfFileSoName
FUNC 67944 120 0 google_breakpad::LinuxDumper::HandleDeletedFileInMapping
FUNC 67a64 70 0 google_breakpad::LinuxDumper::~LinuxDumper
FUNC 67ad4 fc 0 google_breakpad::LinuxDumper::GetMappingEffectiveNameAndPath
FUNC 67bd0 11c 0 google_breakpad::LinuxDumper::ReadAuxv
FUNC 67cec 5c 0 google_breakpad::LinuxDumper::Init
FUNC 67d48 4c 0 google_breakpad::LinuxDumper::FindMapping
FUNC 67d94 84 0 google_breakpad::LinuxDumper::GetStackInfo
FUNC 67e18 64 0 google_breakpad::LinuxDumper::HandleDeletedFileInMapping
FUNC 67e7c 1bc 0 google_breakpad::LinuxDumper::ElfFileIdentifierForMapping
FUNC 68038 f4 0 std::priv::_Impl_vector<void*, google_breakpad::PageStdAllocator<void*> >::_M_insert_overflow
FUNC 6812c 148 0 std::priv::_Impl_vector<long unsigned int, google_breakpad::PageStdAllocator<long unsigned int> >::_M_fill_insert_aux
FUNC 68274 100 0 google_breakpad::LinuxDumper::LinuxDumper
FUNC 68374 148 0 std::priv::_Impl_vector<void*, google_breakpad::PageStdAllocator<void*> >::_M_fill_insert_aux
FUNC 684bc 58c 0 google_breakpad::LinuxDumper::EnumerateMappings
FUNC 68a48 8 0 google_breakpad::LinuxPtraceDumper::IsPostMortem
FUNC 68a50 48 0 sys_ptrace
FUNC 68a98 a0 0 google_breakpad::LinuxPtraceDumper::CopyFromProcess
FUNC 68b38 e4 0 google_breakpad::LinuxPtraceDumper::BuildProcPath
FUNC 68c1c 78 0 google_breakpad::LinuxPtraceDumper::ThreadsResume
FUNC 68c94 2dc 0 google_breakpad::LinuxPtraceDumper::GetThreadInfoByIndex
FUNC 68f70 30 0 google_breakpad::LinuxPtraceDumper::LinuxPtraceDumper
FUNC 68fa0 110 0 std::priv::_Impl_vector<int, google_breakpad::PageStdAllocator<int> >::_M_insert_overflow
FUNC 690b0 240 0 google_breakpad::LinuxPtraceDumper::EnumerateThreads
FUNC 692f0 154 0 std::priv::_Impl_vector<int, google_breakpad::PageStdAllocator<int> >::_M_fill_insert_aux
FUNC 69444 1a4 0 google_breakpad::LinuxPtraceDumper::ThreadsSuspend
FUNC 695e8 44 0 sys_read
FUNC 6962c 78 0 MinidumpWriter::Init
FUNC 696a4 50 0 sys_open
FUNC 696f4 184 0 MinidumpWriter::FillRawModule
FUNC 69878 48 0 MinidumpWriter::~MinidumpWriter
FUNC 698c0 ec 0 MinidumpWriter::WriteExceptionStream
FUNC 699ac 18 0 google_breakpad::TypedMDRVA<MDRawDirectory>::CopyIndex
FUNC 699c4 28 0 google_breakpad::TypedMDRVA<MDRawContextARM64>::~TypedMDRVA
FUNC 699ec 14 0 google_breakpad::TypedMDRVA<unsigned int>::CopyIndexAfterObject
FUNC 69a00 120 0 MinidumpWriter::WriteMemoryListStream
FUNC 69b20 2c8 0 MinidumpWriter::WriteMappings
FUNC 69de8 28 0 google_breakpad::TypedMDRVA<MDRawLinkMap>::~TypedMDRVA
FUNC 69e10 b8 0 std::priv::_Impl_vector<MDMemoryDescriptor, google_breakpad::PageStdAllocator<MDMemoryDescriptor> >::reserve
FUNC 69ec8 17c 0 std::priv::_Impl_vector<MDMemoryDescriptor, google_breakpad::PageStdAllocator<MDMemoryDescriptor> >::_M_insert_overflow_aux
FUNC 6a044 54 0 std::priv::_Impl_vector<MDMemoryDescriptor, google_breakpad::PageStdAllocator<MDMemoryDescriptor> >::push_back
FUNC 6a098 124 0 MinidumpWriter::FillThreadStack
FUNC 6a1bc 4c8 0 MinidumpWriter::WriteThreadListStream
FUNC 6a684 f4 0 MinidumpWriter::WriteAppMemory
FUNC 6a778 130 0 std::priv::_Impl_vector<char, google_breakpad::PageStdAllocator<char> >::_M_fill_insert_aux
FUNC 6a8a8 130 0 std::priv::_Impl_vector<char, google_breakpad::PageStdAllocator<char> >::resize
FUNC 6a9d8 d08 0 MinidumpWriter::Dump
FUNC 6b6e0 148 0 WriteMinidumpImpl
FUNC 6b828 74 0 google_breakpad::WriteMinidump
FUNC 6b89c 7c 0 google_breakpad::WriteMinidump
FUNC 6b918 2c 0 google_breakpad::WriteMinidump
FUNC 6b944 34 0 google_breakpad::WriteMinidump
FUNC 6b978 3c 0 google_breakpad::WriteMinidump
FUNC 6b9b4 108 0 google_breakpad::WriteMinidump
FUNC 6babc 1c 0 google_breakpad::MinidumpFileWriter::MinidumpFileWriter
FUNC 6bad8 58 0 google_breakpad::MinidumpFileWriter::Open
FUNC 6bb30 c 0 google_breakpad::MinidumpFileWriter::SetFile
FUNC 6bb3c 7c 0 google_breakpad::MinidumpFileWriter::Close
FUNC 6bbb8 10 0 google_breakpad::MinidumpFileWriter::~MinidumpFileWriter
FUNC 6bbc8 80 0 google_breakpad::MinidumpFileWriter::Allocate
FUNC 6bc48 ac 0 google_breakpad::MinidumpFileWriter::Copy
FUNC 6bcf4 34 0 google_breakpad::UntypedMDRVA::Allocate
FUNC 6bd28 8 0 google_breakpad::UntypedMDRVA::Copy
FUNC 6bd30 14 0 google_breakpad::TypedMDRVA<MDString>::CopyIndexAfterObject
FUNC 6bd44 9c 0 google_breakpad::MinidumpFileWriter::CopyStringToMDString
FUNC 6bde0 12c 0 google_breakpad::MinidumpFileWriter::WriteString
FUNC 6bf0c 3c 0 google_breakpad::MemoryRange::Subrange
FUNC 6bf48 c 0 google_breakpad::ElfCoreDump::Note::GetHeader
FUNC 6bf54 1c 0 google_breakpad::ElfCoreDump::Note::IsValid
FUNC 6bf70 24 0 google_breakpad::ElfCoreDump::Note::GetType
FUNC 6bf94 40 0 google_breakpad::ElfCoreDump::Note::GetName
FUNC 6bfd4 48 0 google_breakpad::ElfCoreDump::Note::GetDescription
FUNC 6c01c 58 0 google_breakpad::ElfCoreDump::Note::GetNextNote
FUNC 6c074 c 0 google_breakpad::ElfCoreDump::ElfCoreDump
FUNC 6c080 c 0 google_breakpad::ElfCoreDump::SetContent
FUNC 6c08c c 0 google_breakpad::ElfCoreDump::GetHeader
FUNC 6c098 58 0 google_breakpad::ElfCoreDump::IsValid
FUNC 6c0f0 48 0 google_breakpad::ElfCoreDump::GetProgramHeader
FUNC 6c138 24 0 google_breakpad::ElfCoreDump::GetProgramHeaderCount
FUNC 6c15c 60 0 google_breakpad::ElfCoreDump::GetFirstProgramHeaderOfType
FUNC 6c1bc c4 0 google_breakpad::ElfCoreDump::CopyData
FUNC 6c280 44 0 google_breakpad::ElfCoreDump::GetFirstNote
FUNC 6c2c4 28 0 google_breakpad::IsValidElf
FUNC 6c2ec 1e8 0 google_breakpad::FindElfSection
FUNC 6c4d4 104 0 google_breakpad::FindElfSegment
FUNC 6c5d8 ac 0 google_breakpad::FileID::FileID
FUNC 6c684 220 0 google_breakpad::FileID::ElfFileIdentifierFromMappedFile
FUNC 6c8a4 60 0 google_breakpad::FileID::ElfFileIdentifier
FUNC 6c904 d4 0 google_breakpad::FileID::ConvertIdentifierToString
FUNC 6c9d8 18 0 GUIDGenerator::InitOnceImpl
FUNC 6c9f0 8c 0 CreateGUID
FUNC 6ca7c 98 0 GUIDToString
FUNC 6cb14 1c 0 my_strlen
FUNC 6cb30 38 0 my_strcmp
FUNC 6cb68 4c 0 my_strncmp
FUNC 6cbb4 5c 0 my_strtoui
FUNC 6cc10 24 0 my_uint_len
FUNC 6cc34 28 0 my_uitos
FUNC 6cc5c 28 0 my_strchr
FUNC 6cc84 28 0 my_strrchr
FUNC 6ccac 28 0 my_memchr
FUNC 6ccd4 6c 0 my_read_hex_ptr
FUNC 6cd40 38 0 my_read_decimal_ptr
FUNC 6cd78 20 0 my_memset
FUNC 6cd98 3c 0 my_strlcpy
FUNC 6cdd4 4c 0 my_strlcat
FUNC 6ce20 48 0 my_isspace
FUNC 6ce68 44 0 sys_close
FUNC 6ceac c 0 google_breakpad::MemoryMappedFile::MemoryMappedFile
FUNC 6ceb8 50 0 google_breakpad::MemoryMappedFile::Unmap
FUNC 6cf08 4 0 google_breakpad::MemoryMappedFile::~MemoryMappedFile
FUNC 6cf0c 13c 0 google_breakpad::MemoryMappedFile::Map
FUNC 6d048 c 0 google_breakpad::MemoryMappedFile::MemoryMappedFile
FUNC 6d054 7c 0 google_breakpad::SafeReadLink
FUNC 6d0d0 8c 0 google_breakpad::UTF8ToUTF16Char
FUNC 6d200 4 0 google_breakpad::::CrashGenerationClientImpl::~CrashGenerationClientImpl
FUNC 6d204 44 0 sys_close
FUNC 6d248 4 0 google_breakpad::::CrashGenerationClientImpl::~CrashGenerationClientImpl
FUNC 6d24c 158 0 google_breakpad::::CrashGenerationClientImpl::RequestDump
FUNC 6d3a4 44 0 google_breakpad::CrashGenerationClient::TryCreate
FUNC 6d3e8 4 0 google_breakpad::SeccompUnwinder::PopSeccompStackFrame
FUNC 6d3ec 8 0 google_breakpad::ThreadInfo::GetInstructionPointer
FUNC 6d3f4 68 0 google_breakpad::ThreadInfo::FillCPUContext
FUNC 6d45c 8 0 google_breakpad::UContextReader::GetStackPointer
FUNC 6d464 8 0 google_breakpad::UContextReader::GetInstructionPointer
FUNC 6d46c 64 0 google_breakpad::UContextReader::FillCPUContext
FUNC 6d4d0 fc 0 isLegalUTF8
FUNC 6d5cc 220 0 ConvertUTF8toUTF16
FUNC 6d7ec 38 0 google_breakpad::DumpContext::DumpContext
FUNC 6d824 1c 0 google_breakpad::DumpContext::GetContextCPU
FUNC 6d840 8 0 google_breakpad::DumpContext::GetContextFlags
FUNC 6d848 8 0 google_breakpad::DumpContext::SetContextFlags
FUNC 6d850 8 0 google_breakpad::DumpContext::SetContextX86
FUNC 6d858 8 0 google_breakpad::DumpContext::SetContextPPC
FUNC 6d860 8 0 google_breakpad::DumpContext::SetContextPPC64
FUNC 6d868 8 0 google_breakpad::DumpContext::SetContextAMD64
FUNC 6d870 8 0 google_breakpad::DumpContext::SetContextSPARC
FUNC 6d878 8 0 google_breakpad::DumpContext::SetContextARM
FUNC 6d880 8 0 google_breakpad::DumpContext::SetContextARM64
FUNC 6d888 8 0 google_breakpad::DumpContext::SetContextMIPS
FUNC 6d890 88 0 google_breakpad::DumpContext::FreeContext
FUNC 6d918 10 0 google_breakpad::DumpContext::~DumpContext
FUNC 6d928 24 0 google_breakpad::DumpContext::~DumpContext
FUNC 6d94c 70 0 google_breakpad::DumpContext::GetContextX86
FUNC 6d9bc 74 0 google_breakpad::DumpContext::GetContextPPC
FUNC 6da30 74 0 google_breakpad::DumpContext::GetContextARM
FUNC 6daa4 74 0 google_breakpad::DumpContext::GetContextPPC64
FUNC 6db18 70 0 google_breakpad::DumpContext::GetContextAMD64
FUNC 6db88 74 0 google_breakpad::DumpContext::GetContextSPARC
FUNC 6dbfc 74 0 google_breakpad::DumpContext::GetContextARM64
FUNC 6dc70 70 0 google_breakpad::DumpContext::GetContextMIPS
FUNC 6dce0 1e0 0 google_breakpad::DumpContext::GetInstructionPointer
FUNC 6dec0 8 0 google_breakpad::DumpObject::DumpObject
FUNC 6dec8 4c 0 google_breakpad::HexString
FUNC 6df14 4c 0 google_breakpad::HexString
FUNC 6df60 4c 0 google_breakpad::HexString
FUNC 6dfac 7c 0 google_breakpad::LogStream::~LogStream
FUNC 6e028 20c 0 google_breakpad::LogStream::LogStream
FUNC 6e234 c0 0 google_breakpad::ErrnoString
FUNC 6e2f4 4 0 google_breakpad::MinidumpObject::~MinidumpObject
FUNC 6e2f8 18 0 google_breakpad::MinidumpThreadList::thread_count
FUNC 6e310 18 0 google_breakpad::MinidumpModule::base_address
FUNC 6e330 18 0 google_breakpad::MinidumpModule::size
FUNC 6e350 18 0 google_breakpad::MinidumpModuleList::module_count
FUNC 6e370 14 0 google_breakpad::Minidump::header
FUNC 6e384 8 0 google_breakpad::BasicCodeModule::base_address
FUNC 6e38c 8 0 google_breakpad::BasicCodeModule::size
FUNC 6e394 18 0 google_breakpad::Swap
FUNC 6e3ac 10 0 google_breakpad::Swap
FUNC 6e3bc 38 0 google_breakpad::Swap
FUNC 6e3f4 24 0 google_breakpad::Swap
FUNC 6e418 50 0 google_breakpad::MinidumpThread::~MinidumpThread
FUNC 6e468 30 0 google_breakpad::MinidumpException::~MinidumpException
FUNC 6e498 d4 0 std::basic_filebuf<char, std::char_traits<char> >::pbackfail
FUNC 6e56c 4 0 google_breakpad::MinidumpObject::~MinidumpObject
FUNC 6e570 24 0 google_breakpad::MinidumpThread::~MinidumpThread
FUNC 6e594 24 0 google_breakpad::MinidumpException::~MinidumpException
FUNC 6e5b8 10 0 google_breakpad::MinidumpContext::~MinidumpContext
FUNC 6e5c8 24 0 google_breakpad::MinidumpContext::~MinidumpContext
FUNC 6e5ec 34 0 google_breakpad::MinidumpModuleList::Copy
FUNC 6e628 4 0 std::basic_filebuf<char, std::char_traits<char> >::underflow
FUNC 6e62c 38 0 std::basic_filebuf<char, std::char_traits<char> >::sync
FUNC 6e664 88 0 std::basic_filebuf<char, std::char_traits<char> >::showmanyc
FUNC 6e6ec b8 0 std::basic_filebuf<char, std::char_traits<char> >::_M_unshift
FUNC 6e7a4 80 0 std::basic_filebuf<char, std::char_traits<char> >::_M_setup_codecvt
FUNC 6e824 98 0 std::basic_filebuf<char, std::char_traits<char> >::imbue
FUNC 6e8bc 54 0 std::priv::_Rb_tree<long unsigned int, std::less<long unsigned int>, std::pair<long unsigned int const, google_breakpad::RangeMap<long unsigned int, unsigned int>::Range>, std::priv::_Select1st<std::pair<long unsigned int const, google_breakpad::RangeMap<long unsigned int, unsigned int>::Range> >, std::priv::_MapTraitsT<std::pair<long unsigned int const, google_breakpad::RangeMap<long unsigned int, unsigned int>::Range> >, std::allocator<std::pair<long unsigned int const, google_breakpad::RangeMap<long unsigned int, unsigned int>::Range> > >::_M_create_node
FUNC 6e910 4c 0 std::priv::_Rb_tree<unsigned int, std::less<unsigned int>, std::pair<unsigned int const, google_breakpad::MinidumpThread*>, std::priv::_Select1st<std::pair<unsigned int const, google_breakpad::MinidumpThread*> >, std::priv::_MapTraitsT<std::pair<unsigned int const, google_breakpad::MinidumpThread*> >, std::allocator<std::pair<unsigned int const, google_breakpad::MinidumpThread*> > >::_M_create_node
FUNC 6e95c 54 0 std::priv::_Rb_tree<unsigned int, std::less<unsigned int>, std::pair<unsigned int const, google_breakpad::Minidump::MinidumpStreamInfo>, std::priv::_Select1st<std::pair<unsigned int const, google_breakpad::Minidump::MinidumpStreamInfo> >, std::priv::_MapTraitsT<std::pair<unsigned int const, google_breakpad::Minidump::MinidumpStreamInfo> >, std::allocator<std::pair<unsigned int const, google_breakpad::Minidump::MinidumpStreamInfo> > >::_M_create_node
FUNC 6e9b0 24 0 google_breakpad::Minidump::MinidumpStreamInfo::~MinidumpStreamInfo
FUNC 6e9d4 b8 0 google_breakpad::BasicCodeModule::BasicCodeModule
FUNC 6ea8c 34 0 google_breakpad::MinidumpModule::Copy
FUNC 6eac8 34 0 google_breakpad::BasicCodeModule::Copy
FUNC 6eafc 3c 0 google_breakpad::MinidumpStream::MinidumpStream
FUNC 6eb38 50 0 google_breakpad::MinidumpMemoryRegion::MinidumpMemoryRegion
FUNC 6eb88 28 0 google_breakpad::MinidumpMemoryRegion::SetDescriptor
FUNC 6ebb0 54 0 google_breakpad::MinidumpThread::MinidumpThread
FUNC 6ec04 4c 0 google_breakpad::MinidumpThreadList::MinidumpThreadList
FUNC 6ec50 84 0 google_breakpad::MinidumpModule::MinidumpModule
FUNC 6ecd4 60 0 google_breakpad::MinidumpModuleList::MinidumpModuleList
FUNC 6ed34 58 0 google_breakpad::MinidumpMemoryList::MinidumpMemoryList
FUNC 6ed8c 40 0 google_breakpad::MinidumpException::MinidumpException
FUNC 6edcc 48 0 google_breakpad::MinidumpSystemInfo::MinidumpSystemInfo
FUNC 6ee14 24 0 google_breakpad::scoped_ptr<google_breakpad::MinidumpContext>::~scoped_ptr
FUNC 6ee38 70 0 std::priv::_Impl_vector<google_breakpad::MinidumpThread, std::allocator<google_breakpad::MinidumpThread> >::~_Impl_vector
FUNC 6eea8 70 0 std::priv::_Impl_vector<google_breakpad::MinidumpModule, std::allocator<google_breakpad::MinidumpModule> >::~_Impl_vector
FUNC 6ef18 1c 0 std::priv::_Impl_vector<MDMemoryDescriptor, std::allocator<MDMemoryDescriptor> >::~_Impl_vector
FUNC 6ef34 70 0 std::priv::_Impl_vector<google_breakpad::MinidumpMemoryRegion, std::allocator<google_breakpad::MinidumpMemoryRegion> >::~_Impl_vector
FUNC 6efa4 1c 0 std::priv::_Impl_vector<MDRawDirectory, std::allocator<MDRawDirectory> >::~_Impl_vector
FUNC 6efc0 38 0 google_breakpad::scoped_ptr<std::basic_string<char, std::char_traits<char>, std::allocator<char> > >::~scoped_ptr
FUNC 6eff8 48 0 google_breakpad::BasicCodeModule::~BasicCodeModule
FUNC 6f040 24 0 google_breakpad::BasicCodeModule::~BasicCodeModule
FUNC 6f064 60 0 google_breakpad::MinidumpSystemInfo::~MinidumpSystemInfo
FUNC 6f0c4 24 0 google_breakpad::MinidumpSystemInfo::~MinidumpSystemInfo
FUNC 6f0e8 a0 0 std::priv::_Impl_vector<short unsigned int, std::allocator<short unsigned int> >::_Impl_vector
FUNC 6f188 1c 0 std::priv::_Vector_base<short unsigned int, std::allocator<short unsigned int> >::~_Vector_base
FUNC 6f1a4 1c 0 std::priv::_Vector_base<unsigned char, std::allocator<unsigned char> >::~_Vector_base
FUNC 6f1c0 50 0 google_breakpad::MinidumpMemoryRegion::~MinidumpMemoryRegion
FUNC 6f218 24 0 google_breakpad::MinidumpMemoryRegion::~MinidumpMemoryRegion
FUNC 6f244 38 0 google_breakpad::scoped_ptr<std::vector<unsigned char, std::allocator<unsigned char> > >::~scoped_ptr
FUNC 6f27c 84 0 google_breakpad::MinidumpModule::~MinidumpModule
FUNC 6f308 24 0 google_breakpad::MinidumpModule::~MinidumpModule
FUNC 6f334 90 0 std::priv::_Impl_vector<unsigned char, std::allocator<unsigned char> >::_Impl_vector
FUNC 6f3c4 60 0 std::priv::_Rb_tree<unsigned int, std::less<unsigned int>, std::pair<unsigned int const, google_breakpad::Minidump::MinidumpStreamInfo>, std::priv::_Select1st<std::pair<unsigned int const, google_breakpad::Minidump::MinidumpStreamInfo> >, std::priv::_MapTraitsT<std::pair<unsigned int const, google_breakpad::Minidump::MinidumpStreamInfo> >, std::allocator<std::pair<unsigned int const, google_breakpad::Minidump::MinidumpStreamInfo> > >::find<unsigned int>
FUNC 6f424 44 0 std::priv::_Rb_global<bool>::_M_increment
FUNC 6f468 170 0 std::priv::__read_unbuffered<char, std::char_traits<char>, std::priv::_Constant_unary_fun<bool, int> >
FUNC 6f5d8 28 0 google_breakpad::BasicCodeModule::code_file
FUNC 6f600 28 0 google_breakpad::BasicCodeModule::code_identifier
FUNC 6f628 28 0 google_breakpad::BasicCodeModule::debug_file
FUNC 6f650 28 0 google_breakpad::BasicCodeModule::debug_identifier
FUNC 6f678 28 0 google_breakpad::BasicCodeModule::version
FUNC 6f6a0 28 0 google_breakpad::Minidump::path
FUNC 6f6c8 84 0 google_breakpad::Minidump::Minidump
FUNC 6f74c 74 0 google_breakpad::MinidumpModuleList::GetMainModule
FUNC 6f7e8 68 0 google_breakpad::MinidumpThread::GetMemory
FUNC 6f850 6c 0 google_breakpad::MinidumpMemoryRegion::GetBase
FUNC 6f8c4 6c 0 google_breakpad::MinidumpMemoryRegion::GetSize
FUNC 6f938 68 0 google_breakpad::MinidumpThread::GetStartOfStackMemoryRange
FUNC 6f9a0 c0 0 google_breakpad::MinidumpThread::GetThreadID
FUNC 6fa60 c0 0 google_breakpad::MinidumpException::GetThreadID
FUNC 6fb20 8c 0 google_breakpad::MinidumpModule::code_file
FUNC 6fbb4 104 0 google_breakpad::RangeMap<long unsigned int, unsigned int>::RetrieveRange
FUNC 6fcb8 238 0 google_breakpad::MinidumpContext::CheckAgainstSystemInfo
FUNC 6fef0 108 0 google_breakpad::MinidumpModuleList::GetModuleForAddress
FUNC 70020 fc 0 google_breakpad::MinidumpThreadList::GetThreadAtIndex
FUNC 7011c fc 0 google_breakpad::MinidumpModuleList::GetModuleAtIndex
FUNC 70240 fc 0 google_breakpad::MinidumpMemoryList::GetMemoryRegionAtIndex
FUNC 7033c 100 0 google_breakpad::MinidumpMemoryList::GetMemoryRegionForAddress
FUNC 7043c 1e4 0 google_breakpad::MinidumpModuleList::GetModuleAtSequence
FUNC 70648 378 0 google_breakpad::UTF16ToUTF8
FUNC 709c0 214 0 google_breakpad::MinidumpModule::code_identifier
FUNC 70bdc 1e4 0 google_breakpad::MinidumpModule::debug_identifier
FUNC 70dc8 168 0 google_breakpad::MinidumpModule::version
FUNC 70f38 248 0 google_breakpad::MinidumpModule::debug_file
FUNC 71188 50 0 std::priv::_Rb_tree<unsigned int, std::less<unsigned int>, std::pair<unsigned int const, google_breakpad::MinidumpThread*>, std::priv::_Select1st<std::pair<unsigned int const, google_breakpad::MinidumpThread*> >, std::priv::_MapTraitsT<std::pair<unsigned int const, google_breakpad::MinidumpThread*> >, std::allocator<std::pair<unsigned int const, google_breakpad::MinidumpThread*> > >::_M_erase
FUNC 711d8 5c 0 google_breakpad::MinidumpThreadList::~MinidumpThreadList
FUNC 71234 24 0 google_breakpad::MinidumpThreadList::~MinidumpThreadList
FUNC 71258 50 0 std::priv::_Rb_tree<long unsigned int, std::less<long unsigned int>, std::pair<long unsigned int const, google_breakpad::RangeMap<long unsigned int, unsigned int>::Range>, std::priv::_Select1st<std::pair<long unsigned int const, google_breakpad::RangeMap<long unsigned int, unsigned int>::Range> >, std::priv::_MapTraitsT<std::pair<long unsigned int const, google_breakpad::RangeMap<long unsigned int, unsigned int>::Range> >, std::allocator<std::pair<long unsigned int const, google_breakpad::RangeMap<long unsigned int, unsigned int>::Range> > >::_M_erase
FUNC 712a8 3c 0 std::priv::_Rb_tree<long unsigned int, std::less<long unsigned int>, std::pair<long unsigned int const, google_breakpad::RangeMap<long unsigned int, unsigned int>::Range>, std::priv::_Select1st<std::pair<long unsigned int const, google_breakpad::RangeMap<long unsigned int, unsigned int>::Range> >, std::priv::_MapTraitsT<std::pair<long unsigned int const, google_breakpad::RangeMap<long unsigned int, unsigned int>::Range> >, std::allocator<std::pair<long unsigned int const, google_breakpad::RangeMap<long unsigned int, unsigned int>::Range> > >::clear
FUNC 712e4 6c 0 google_breakpad::MinidumpModuleList::~MinidumpModuleList
FUNC 71358 24 0 google_breakpad::MinidumpModuleList::~MinidumpModuleList
FUNC 71384 78 0 google_breakpad::MinidumpMemoryList::~MinidumpMemoryList
FUNC 713fc 24 0 google_breakpad::MinidumpMemoryList::~MinidumpMemoryList
FUNC 71420 58 0 std::priv::_Rb_tree<unsigned int, std::less<unsigned int>, std::pair<unsigned int const, google_breakpad::Minidump::MinidumpStreamInfo>, std::priv::_Select1st<std::pair<unsigned int const, google_breakpad::Minidump::MinidumpStreamInfo> >, std::priv::_MapTraitsT<std::pair<unsigned int const, google_breakpad::Minidump::MinidumpStreamInfo> >, std::allocator<std::pair<unsigned int const, google_breakpad::Minidump::MinidumpStreamInfo> > >::_M_erase
FUNC 71478 d4 0 google_breakpad::Minidump::~Minidump
FUNC 7154c 24 0 google_breakpad::Minidump::~Minidump
FUNC 71570 78 0 std::_M_init_noskip<char, std::char_traits<char> >
FUNC 715e8 134 0 google_breakpad::Minidump::SeekSet
FUNC 7171c 270 0 google_breakpad::Minidump::SeekToStreamType
FUNC 7198c 280 0 google_breakpad::Minidump::GetStream<google_breakpad::MinidumpException>
FUNC 71c0c 18 0 google_breakpad::Minidump::GetException
FUNC 71c24 280 0 google_breakpad::Minidump::GetStream<google_breakpad::MinidumpSystemInfo>
FUNC 71ea4 18 0 google_breakpad::Minidump::GetSystemInfo
FUNC 71ebc 280 0 google_breakpad::Minidump::GetStream<google_breakpad::MinidumpThreadList>
FUNC 7213c 18 0 google_breakpad::Minidump::GetThreadList
FUNC 72154 280 0 google_breakpad::Minidump::GetStream<google_breakpad::MinidumpModuleList>
FUNC 723d4 18 0 google_breakpad::Minidump::GetModuleList
FUNC 723ec 280 0 google_breakpad::Minidump::GetStream<google_breakpad::MinidumpMemoryList>
FUNC 7266c 18 0 google_breakpad::Minidump::GetMemoryList
FUNC 72684 370 0 google_breakpad::Minidump::Open
FUNC 729f4 8c 0 google_breakpad::Minidump::Tell
FUNC 72a80 134 0 google_breakpad::Minidump::GetContextCPUFlagsFromSystemInfo
FUNC 72bb4 1b0 0 std::basic_istream<char, std::char_traits<char> >::read
FUNC 72d64 158 0 google_breakpad::Minidump::ReadBytes
FUNC 72ebc 14f4 0 google_breakpad::MinidumpContext::Read
FUNC 743b0 170 0 google_breakpad::MinidumpThread::GetContext
FUNC 74520 170 0 google_breakpad::MinidumpException::GetContext
FUNC 74690 240 0 google_breakpad::MinidumpThread::Read
FUNC 748d0 268 0 google_breakpad::MinidumpModule::Read
FUNC 74b38 18c 0 google_breakpad::MinidumpException::Read
FUNC 74cc4 1f4 0 google_breakpad::MinidumpSystemInfo::Read
FUNC 74eb8 2c8 0 google_breakpad::Minidump::ReadString
FUNC 75180 238 0 google_breakpad::MinidumpMemoryRegion::GetMemory
FUNC 753b8 21c 0 google_breakpad::MinidumpMemoryRegion::GetMemoryAtAddressInternal<unsigned char>
FUNC 755d4 4 0 google_breakpad::MinidumpMemoryRegion::GetMemoryAtAddress
FUNC 755e0 240 0 google_breakpad::MinidumpMemoryRegion::GetMemoryAtAddressInternal<short unsigned int>
FUNC 75820 4 0 google_breakpad::MinidumpMemoryRegion::GetMemoryAtAddress
FUNC 7582c 240 0 google_breakpad::MinidumpMemoryRegion::GetMemoryAtAddressInternal<unsigned int>
FUNC 75a6c 4 0 google_breakpad::MinidumpMemoryRegion::GetMemoryAtAddress
FUNC 75a78 240 0 google_breakpad::MinidumpMemoryRegion::GetMemoryAtAddressInternal<long unsigned int>
FUNC 75cb8 4 0 google_breakpad::MinidumpMemoryRegion::GetMemoryAtAddress
FUNC 75cc4 cc 0 google_breakpad::MinidumpMemoryRegion::Print
FUNC 75d98 440 0 google_breakpad::MinidumpModule::GetCVRecord
FUNC 761d8 334 0 google_breakpad::MinidumpModule::GetMiscRecord
FUNC 7650c 17c 0 google_breakpad::MinidumpModule::ReadAuxiliaryData
FUNC 76688 c8 0 std::priv::_Rb_tree<unsigned int, std::less<unsigned int>, std::pair<unsigned int const, google_breakpad::MinidumpThread*>, std::priv::_Select1st<std::pair<unsigned int const, google_breakpad::MinidumpThread*> >, std::priv::_MapTraitsT<std::pair<unsigned int const, google_breakpad::MinidumpThread*> >, std::allocator<std::pair<unsigned int const, google_breakpad::MinidumpThread*> > >::_M_insert
FUNC 76750 e4 0 std::priv::_Rb_tree<unsigned int, std::less<unsigned int>, std::pair<unsigned int const, google_breakpad::MinidumpThread*>, std::priv::_Select1st<std::pair<unsigned int const, google_breakpad::MinidumpThread*> >, std::priv::_MapTraitsT<std::pair<unsigned int const, google_breakpad::MinidumpThread*> >, std::allocator<std::pair<unsigned int const, google_breakpad::MinidumpThread*> > >::insert_unique
FUNC 76834 1cc 0 std::priv::_Rb_tree<unsigned int, std::less<unsigned int>, std::pair<unsigned int const, google_breakpad::MinidumpThread*>, std::priv::_Select1st<std::pair<unsigned int const, google_breakpad::MinidumpThread*> >, std::priv::_MapTraitsT<std::pair<unsigned int const, google_breakpad::MinidumpThread*> >, std::allocator<std::pair<unsigned int const, google_breakpad::MinidumpThread*> > >::insert_unique
FUNC 76a00 84 0 std::map<unsigned int, google_breakpad::MinidumpThread*, std::less<unsigned int>, std::allocator<std::pair<unsigned int const, google_breakpad::MinidumpThread*> > >::operator[]<unsigned int>
FUNC 76a84 28 0 google_breakpad::MinidumpThreadList::GetThreadByID
FUNC 76aac 624 0 google_breakpad::MinidumpThreadList::Read
FUNC 770d0 c8 0 std::priv::_Rb_tree<long unsigned int, std::less<long unsigned int>, std::pair<long unsigned int const, google_breakpad::RangeMap<long unsigned int, unsigned int>::Range>, std::priv::_Select1st<std::pair<long unsigned int const, google_breakpad::RangeMap<long unsigned int, unsigned int>::Range> >, std::priv::_MapTraitsT<std::pair<long unsigned int const, google_breakpad::RangeMap<long unsigned int, unsigned int>::Range> >, std::allocator<std::pair<long unsigned int const, google_breakpad::RangeMap<long unsigned int, unsigned int>::Range> > >::_M_insert
FUNC 77198 254 0 google_breakpad::RangeMap<long unsigned int, unsigned int>::StoreRange
FUNC 773ec 7c8 0 google_breakpad::MinidumpModuleList::Read
FUNC 77bb4 70c 0 google_breakpad::MinidumpMemoryList::Read
FUNC 782c0 c8 0 std::priv::_Rb_tree<unsigned int, std::less<unsigned int>, std::pair<unsigned int const, google_breakpad::Minidump::MinidumpStreamInfo>, std::priv::_Select1st<std::pair<unsigned int const, google_breakpad::Minidump::MinidumpStreamInfo> >, std::priv::_MapTraitsT<std::pair<unsigned int const, google_breakpad::Minidump::MinidumpStreamInfo> >, std::allocator<std::pair<unsigned int const, google_breakpad::Minidump::MinidumpStreamInfo> > >::_M_insert
FUNC 78388 e4 0 std::priv::_Rb_tree<unsigned int, std::less<unsigned int>, std::pair<unsigned int const, google_breakpad::Minidump::MinidumpStreamInfo>, std::priv::_Select1st<std::pair<unsigned int const, google_breakpad::Minidump::MinidumpStreamInfo> >, std::priv::_MapTraitsT<std::pair<unsigned int const, google_breakpad::Minidump::MinidumpStreamInfo> >, std::allocator<std::pair<unsigned int const, google_breakpad::Minidump::MinidumpStreamInfo> > >::insert_unique
FUNC 7846c 1cc 0 std::priv::_Rb_tree<unsigned int, std::less<unsigned int>, std::pair<unsigned int const, google_breakpad::Minidump::MinidumpStreamInfo>, std::priv::_Select1st<std::pair<unsigned int const, google_breakpad::Minidump::MinidumpStreamInfo> >, std::priv::_MapTraitsT<std::pair<unsigned int const, google_breakpad::Minidump::MinidumpStreamInfo> >, std::allocator<std::pair<unsigned int const, google_breakpad::Minidump::MinidumpStreamInfo> > >::insert_unique
FUNC 78638 6e4 0 google_breakpad::Minidump::Read
FUNC 78d1c d4 0 std::basic_filebuf<char, std::char_traits<char> >::_M_allocate_buffers
FUNC 78df0 60 0 std::basic_filebuf<char, std::char_traits<char> >::setbuf
FUNC 78e50 1f8 0 std::basic_filebuf<char, std::char_traits<char> >::overflow
FUNC 79048 130 0 std::basic_filebuf<char, std::char_traits<char> >::~basic_filebuf
FUNC 79178 24 0 std::basic_filebuf<char, std::char_traits<char> >::~basic_filebuf
FUNC 7919c a8 0 std::basic_ifstream<char, std::char_traits<char> >::~basic_ifstream
FUNC 79244 c 0 std::basic_ifstream<char, std::char_traits<char> >::~basic_ifstream
FUNC 79260 24 0 std::basic_ifstream<char, std::char_traits<char> >::~basic_ifstream
FUNC 79294 c 0 std::basic_ifstream<char, std::char_traits<char> >::~basic_ifstream
FUNC 792a0 bc 0 std::basic_filebuf<char, std::char_traits<char> >::_M_seek_init
FUNC 7935c 94 0 std::basic_filebuf<char, std::char_traits<char> >::_M_seek_return
FUNC 793f0 8c 0 std::basic_filebuf<char, std::char_traits<char> >::seekpos
FUNC 7947c 1f4 0 std::basic_filebuf<char, std::char_traits<char> >::seekoff
FUNC 79670 fc 0 std::basic_string<char, std::char_traits<char>, std::allocator<char> >::rfind
FUNC 7976c 124 0 google_breakpad::PathnameStripper::File
FUNC 79890 c 0 google_breakpad::BasicCodeModules::module_count
FUNC 7989c 20 0 google_breakpad::BasicCodeModules::GetMainModule
FUNC 798bc 1c 0 google_breakpad::BasicCodeModules::GetModuleAtIndex
FUNC 798d8 54 0 google_breakpad::linked_ptr<const google_breakpad::CodeModule>::depart
FUNC 7992c 58 0 std::priv::_Rb_tree<long unsigned int, std::less<long unsigned int>, std::pair<long unsigned int const, google_breakpad::RangeMap<long unsigned int, google_breakpad::linked_ptr<const google_breakpad::CodeModule> >::Range>, std::priv::_Select1st<std::pair<long unsigned int const, google_breakpad::RangeMap<long unsigned int, google_breakpad::linked_ptr<const google_breakpad::CodeModule> >::Range> >, std::priv::_MapTraitsT<std::pair<long unsigned int const, google_breakpad::RangeMap<long unsigned int, google_breakpad::linked_ptr<const google_breakpad::CodeModule> >::Range> >, std::allocator<std::pair<long unsigned int const, google_breakpad::RangeMap<long unsigned int, google_breakpad::linked_ptr<const google_breakpad::CodeModule> >::Range> > >::_M_erase
FUNC 79984 50 0 google_breakpad::BasicCodeModules::~BasicCodeModules
FUNC 799d4 24 0 google_breakpad::BasicCodeModules::~BasicCodeModules
FUNC 799f8 40 0 google_breakpad::linked_ptr<const google_breakpad::CodeModule>::copy<const google_breakpad::CodeModule>
FUNC 79a38 12c 0 google_breakpad::BasicCodeModules::GetModuleForAddress
FUNC 79b64 234 0 google_breakpad::BasicCodeModules::GetModuleAtSequence
FUNC 79d98 64 0 std::priv::_Rb_tree<long unsigned int, std::less<long unsigned int>, std::pair<long unsigned int const, google_breakpad::RangeMap<long unsigned int, google_breakpad::linked_ptr<const google_breakpad::CodeModule> >::Range>, std::priv::_Select1st<std::pair<long unsigned int const, google_breakpad::RangeMap<long unsigned int, google_breakpad::linked_ptr<const google_breakpad::CodeModule> >::Range> >, std::priv::_MapTraitsT<std::pair<long unsigned int const, google_breakpad::RangeMap<long unsigned int, google_breakpad::linked_ptr<const google_breakpad::CodeModule> >::Range> >, std::allocator<std::pair<long unsigned int const, google_breakpad::RangeMap<long unsigned int, google_breakpad::linked_ptr<const google_breakpad::CodeModule> >::Range> > >::_M_create_node
FUNC 79dfc c8 0 std::priv::_Rb_tree<long unsigned int, std::less<long unsigned int>, std::pair<long unsigned int const, google_breakpad::RangeMap<long unsigned int, google_breakpad::linked_ptr<const google_breakpad::CodeModule> >::Range>, std::priv::_Select1st<std::pair<long unsigned int const, google_breakpad::RangeMap<long unsigned int, google_breakpad::linked_ptr<const google_breakpad::CodeModule> >::Range> >, std::priv::_MapTraitsT<std::pair<long unsigned int const, google_breakpad::RangeMap<long unsigned int, google_breakpad::linked_ptr<const google_breakpad::CodeModule> >::Range> >, std::allocator<std::pair<long unsigned int const, google_breakpad::RangeMap<long unsigned int, google_breakpad::linked_ptr<const google_breakpad::CodeModule> >::Range> > >::_M_insert
FUNC 79ec4 2d8 0 google_breakpad::RangeMap<long unsigned int, google_breakpad::linked_ptr<const google_breakpad::CodeModule> >::StoreRange
FUNC 7a19c 204 0 google_breakpad::BasicCodeModules::BasicCodeModules
FUNC 7a3a0 34 0 google_breakpad::BasicCodeModules::Copy
FUNC 7a3d4 5c 0 CxaThreadKey::freeObject
FUNC 7a430 74 0 CxaThreadKey::~CxaThreadKey
FUNC 7a4a4 10 0 __cxxabiv1::__shim_type_info::~__shim_type_info
FUNC 7a4b4 14 0 __cxxabiv1::__cxa_pure_virtual
FUNC 7a4c8 168 0 __cxxabiv1::__cxa_get_globals
FUNC 7a630 4c 0 throwException
FUNC 7a67c 2c 0 __cxxabiv1::__cxa_get_globals_fast
FUNC 7a6a8 5c 0 __cxxabiv1::__cxa_allocate_exception
FUNC 7a704 60 0 __cxxabiv1::__cxa_free_exception
FUNC 7a764 8 0 defaultExceptionCleanupFunc
FUNC 7a76c 3c 0 __cxxabiv1::__cxa_throw
FUNC 7a7a8 58 0 __cxxabiv1::__cxa_rethrow
FUNC 7a800 a4 0 __cxxabiv1::__cxa_begin_catch
FUNC 7a8a4 b4 0 __cxxabiv1::__cxa_end_catch
FUNC 7a958 c 0 operator delete
FUNC 7a964 4 0 operator delete []
FUNC 7a968 4 0 std::exception::~exception
FUNC 7a96c c 0 std::exception::what
FUNC 7a978 4 0 std::bad_exception::~bad_exception
FUNC 7a97c c 0 std::bad_exception::what
FUNC 7a988 4 0 std::exception::~exception
FUNC 7a98c 4 0 std::bad_exception::~bad_exception
FUNC 7a990 10 0 std::exception::exception
FUNC 7a9a0 10 0 std::bad_exception::bad_exception
FUNC 7a9b0 20 0 std::uncaught_exception
FUNC 7a9d0 78 0 __gabixx::__fatal_error
FUNC 7aa48 10 0 __cxxabiv1::call_terminate
FUNC 7aa58 a0 0 __cxxabiv1::getTypePtr
FUNC 7aaf8 c4 0 __cxxabiv1::canExceptionSpecCatch
FUNC 7abbc 3d4 0 __cxxabiv1::scanEHTable
FUNC 7af90 48 0 __cxxabiv1::setRegisters
FUNC 7afd8 8 0 __cxxabiv1::continueUnwinding
FUNC 7afe0 4 0 __cxxabiv1::saveDataToBarrierCache
FUNC 7afe4 4 0 __cxxabiv1::loadDataFromBarrierCache
FUNC 7afe8 4 0 __cxxabiv1::prepareBeginCleanup
FUNC 7afec 4 0 __cxxabiv1::saveUnexpectedDataToBarrierCache
FUNC 7aff0 c 0 std::bad_alloc::what
FUNC 7affc 10 0 std::bad_alloc::~bad_alloc
FUNC 7b00c 30 0 std::bad_alloc::~bad_alloc
FUNC 7b03c 2c 0 std::bad_alloc::bad_alloc
FUNC 7b068 90 0 operator new
FUNC 7b0f8 24 0 operator new []
FUNC 7b11c 1b4 0 __cxxabiv1::__gxx_personality_v0
FUNC 7b2d0 8 0 __cxxabiv1::__si_class_type_info::code
FUNC 7b2d8 10 0 __cxxabiv1::__si_class_type_info::~__si_class_type_info
FUNC 7b2e8 30 0 __cxxabiv1::__si_class_type_info::~__si_class_type_info
FUNC 7b318 60 0 __cxxabiv1::__si_class_type_info::walk_to
FUNC 7b378 18 0 __gabixx::__default_terminate
FUNC 7b390 30 0 __gabixx::__terminate
FUNC 7b3c0 1c 0 std::get_terminate
FUNC 7b3dc 24 0 std::terminate
FUNC 7b400 c 0 __gabixx::__default_unexpected
FUNC 7b40c 1c 0 std::get_unexpected
FUNC 7b428 4 0 std::type_info::~type_info
FUNC 7b42c c 0 std::bad_cast::what
FUNC 7b438 10 0 std::bad_cast::~bad_cast
FUNC 7b448 30 0 std::bad_cast::~bad_cast
FUNC 7b478 c 0 std::type_info::operator==
FUNC 7b484 c 0 std::type_info::operator!=
FUNC 7b490 2c 0 std::bad_cast::bad_cast
FUNC 7b4bc 8 0 std::__Named_exception::what
FUNC 7b4c4 44 0 std::__Named_exception::~__Named_exception
FUNC 7b508 24 0 std::__Named_exception::~__Named_exception
FUNC 7b52c 14 0 std::logic_error::~logic_error
FUNC 7b540 24 0 std::logic_error::~logic_error
FUNC 7b564 14 0 std::length_error::~length_error
FUNC 7b578 24 0 std::length_error::~length_error
FUNC 7b59c 14 0 std::out_of_range::~out_of_range
FUNC 7b5b0 24 0 std::out_of_range::~out_of_range
FUNC 7b5d4 18 0 std::allocator<char>::deallocate
FUNC 7b5ec a0 0 std::__Named_exception::__Named_exception
FUNC 7b68c c4 0 std::__stl_throw_out_of_range
FUNC 7b750 c4 0 std::__stl_throw_length_error
FUNC 7b814 18 0 std::_Filebuf_base::_Filebuf_base
FUNC 7b82c 28 0 std::_Filebuf_base::_S_initialize
FUNC 7b854 60 0 std::_Filebuf_base::_M_file_size
FUNC 7b8b4 140 0 std::_Filebuf_base::_M_open
FUNC 7b9f4 8 0 std::_Filebuf_base::_M_open
FUNC 7b9fc d4 0 std::_Filebuf_base::_M_open
FUNC 7bad0 58 0 std::_Filebuf_base::_M_close
FUNC 7bb28 8 0 std::_Filebuf_base::_M_read
FUNC 7bb30 68 0 std::_Filebuf_base::_M_write
FUNC 7bb98 90 0 std::_Filebuf_base::_M_seek
FUNC 7bc28 c 0 std::_Filebuf_base::_M_unmap
FUNC 7bc34 8c 0 std::_Filebuf_base::_M_mmap
FUNC 7bcc0 424 0 std::_Underflow<char, std::char_traits<char> >::_M_doit
FUNC 7c0e4 14 0 std::ios_base::failure::~failure
FUNC 7c0f8 24 0 std::ios_base::failure::~failure
FUNC 7c11c 18 0 std::allocator<char>::deallocate
FUNC 7c134 30 0 std::ios_base::failure::failure
FUNC 7c164 60 0 std::ios_base::_M_invoke_callbacks
FUNC 7c1c4 d0 0 std::ios_base::imbue
FUNC 7c294 64 0 std::ios_base::~ios_base
FUNC 7c2f8 24 0 std::ios_base::~ios_base
FUNC 7c31c c0 0 std::ios_base::_M_throw_failure
FUNC 7c3dc 6c 0 std::ios_base::ios_base
FUNC 7c448 4 0 std::basic_streambuf<wchar_t, std::char_traits<wchar_t> >::imbue
FUNC 7c44c 4 0 std::basic_streambuf<wchar_t, std::char_traits<wchar_t> >::setbuf
FUNC 7c450 c 0 std::basic_streambuf<wchar_t, std::char_traits<wchar_t> >::seekoff
FUNC 7c45c c 0 std::basic_streambuf<wchar_t, std::char_traits<wchar_t> >::seekpos
FUNC 7c468 8 0 std::basic_streambuf<wchar_t, std::char_traits<wchar_t> >::sync
FUNC 7c470 8 0 std::basic_streambuf<wchar_t, std::char_traits<wchar_t> >::showmanyc
FUNC 7c478 8 0 std::basic_streambuf<wchar_t, std::char_traits<wchar_t> >::underflow
FUNC 7c480 8 0 std::basic_streambuf<wchar_t, std::char_traits<wchar_t> >::pbackfail
FUNC 7c488 8 0 std::basic_streambuf<wchar_t, std::char_traits<wchar_t> >::overflow
FUNC 7c490 10 0 std::basic_streambuf<wchar_t, std::char_traits<wchar_t> >::~basic_streambuf
FUNC 7c4a0 30 0 std::basic_streambuf<wchar_t, std::char_traits<wchar_t> >::~basic_streambuf
FUNC 7c4d0 10 0 std::basic_ios<wchar_t, std::char_traits<wchar_t> >::~basic_ios
FUNC 7c4e0 30 0 std::basic_ios<wchar_t, std::char_traits<wchar_t> >::~basic_ios
FUNC 7c510 20 0 std::basic_istream<wchar_t, std::char_traits<wchar_t> >::~basic_istream
FUNC 7c540 3c 0 std::basic_istream<wchar_t, std::char_traits<wchar_t> >::~basic_istream
FUNC 7c58c 20 0 std::basic_ostream<wchar_t, std::char_traits<wchar_t> >::~basic_ostream
FUNC 7c5bc 3c 0 std::basic_ostream<wchar_t, std::char_traits<wchar_t> >::~basic_ostream
FUNC 7c608 c4 0 std::basic_streambuf<wchar_t, std::char_traits<wchar_t> >::_M_xsputnc
FUNC 7c6cc c8 0 std::basic_streambuf<wchar_t, std::char_traits<wchar_t> >::xsputn
FUNC 7c794 38 0 std::basic_filebuf<wchar_t, std::char_traits<wchar_t> >::sync
FUNC 7c7cc dc 0 std::basic_filebuf<wchar_t, std::char_traits<wchar_t> >::_M_unshift
FUNC 7c8a8 a4 0 std::basic_filebuf<wchar_t, std::char_traits<wchar_t> >::showmanyc
FUNC 7c94c 40 0 std::basic_streambuf<wchar_t, std::char_traits<wchar_t> >::uflow
FUNC 7c98c c4 0 std::basic_streambuf<wchar_t, std::char_traits<wchar_t> >::xsgetn
FUNC 7ca50 e4 0 std::basic_filebuf<wchar_t, std::char_traits<wchar_t> >::pbackfail
FUNC 7cb34 544 0 std::ios_base::_S_uninitialize
FUNC 7d078 34 0 std::ios_base::Init::~Init
FUNC 7d0ac 34 0 std::auto_ptr<std::basic_streambuf<char, std::char_traits<char> > >::~auto_ptr
FUNC 7d0e0 100 0 std::basic_filebuf<wchar_t, std::char_traits<wchar_t> >::_M_setup_codecvt
FUNC 7d1e0 1c 0 std::basic_filebuf<wchar_t, std::char_traits<wchar_t> >::imbue
FUNC 7d1fc 194 0 std::basic_ios<wchar_t, std::char_traits<wchar_t> >::init
FUNC 7d390 100 0 std::basic_filebuf<char, std::char_traits<char> >::_M_setup_codecvt
FUNC 7d490 dc 0 std::basic_filebuf<wchar_t, std::char_traits<wchar_t> >::_M_allocate_buffers
FUNC 7d56c 68 0 std::basic_filebuf<wchar_t, std::char_traits<wchar_t> >::setbuf
FUNC 7d5d4 2b8 0 std::basic_filebuf<wchar_t, std::char_traits<wchar_t> >::underflow
FUNC 7d88c 2b4 0 std::basic_filebuf<wchar_t, std::char_traits<wchar_t> >::overflow
FUNC 7db40 164 0 std::basic_filebuf<wchar_t, std::char_traits<wchar_t> >::~basic_filebuf
FUNC 7dca4 24 0 std::basic_filebuf<wchar_t, std::char_traits<wchar_t> >::~basic_filebuf
FUNC 7dcc8 64 0 std::auto_ptr<std::basic_filebuf<wchar_t, std::char_traits<wchar_t> > >::~auto_ptr
FUNC 7dd2c 230 0 std::_Stl_create_wfilebuf
FUNC 7df5c 22c 0 std::_Stl_create_filebuf<__sFILE*>
FUNC 7e188 80c 0 std::ios_base::_S_initialize
FUNC 7e994 38 0 std::ios_base::Init::Init
FUNC 7e9cc cc 0 std::basic_filebuf<wchar_t, std::char_traits<wchar_t> >::_M_seek_init
FUNC 7ea98 10c 0 std::basic_filebuf<wchar_t, std::char_traits<wchar_t> >::seekpos
FUNC 7eba4 c8 0 std::basic_filebuf<wchar_t, std::char_traits<wchar_t> >::_M_seek_return
FUNC 7ec6c 3ec 0 std::basic_filebuf<wchar_t, std::char_traits<wchar_t> >::seekoff
FUNC 7f058 14 0 std::locale::facet::~facet
FUNC 7f06c 24 0 std::locale::facet::~facet
FUNC 7f090 18 0 std::allocator<char>::deallocate
FUNC 7f0a8 3c 0 std::locale::locale
FUNC 7f0e4 38 0 std::locale::locale
FUNC 7f11c 28 0 std::locale::locale
FUNC 7f144 2c 0 std::locale::~locale
FUNC 7f170 60 0 std::locale::operator=
FUNC 7f1d0 2c 0 std::locale::_M_get_facet
FUNC 7f1fc 38 0 std::locale::_M_use_facet
FUNC 7f234 9c 0 std::locale::name
FUNC 7f2d0 1d0 0 std::locale::operator==
FUNC 7f4a0 1c 0 std::locale::operator!=
FUNC 7f4bc 8 0 std::time_get<wchar_t, std::istreambuf_iterator<wchar_t, std::char_traits<wchar_t> > >::do_date_order
FUNC 7f4c4 8 0 std::time_get<char, std::istreambuf_iterator<char, std::char_traits<char> > >::do_date_order
FUNC 7f4cc 10 0 std::money_put<wchar_t, std::ostreambuf_iterator<wchar_t, std::char_traits<wchar_t> > >::~money_put
FUNC 7f4dc 30 0 std::money_put<wchar_t, std::ostreambuf_iterator<wchar_t, std::char_traits<wchar_t> > >::~money_put
FUNC 7f50c 10 0 std::money_get<wchar_t, std::istreambuf_iterator<wchar_t, std::char_traits<wchar_t> > >::~money_get
FUNC 7f51c 30 0 std::money_get<wchar_t, std::istreambuf_iterator<wchar_t, std::char_traits<wchar_t> > >::~money_get
FUNC 7f54c 10 0 std::money_put<char, std::ostreambuf_iterator<char, std::char_traits<char> > >::~money_put
FUNC 7f55c 30 0 std::money_put<char, std::ostreambuf_iterator<char, std::char_traits<char> > >::~money_put
FUNC 7f58c 10 0 std::money_get<char, std::istreambuf_iterator<char, std::char_traits<char> > >::~money_get
FUNC 7f59c 30 0 std::money_get<char, std::istreambuf_iterator<char, std::char_traits<char> > >::~money_get
FUNC 7f5cc 10 0 std::num_put<wchar_t, std::ostreambuf_iterator<wchar_t, std::char_traits<wchar_t> > >::~num_put
FUNC 7f5dc 30 0 std::num_put<wchar_t, std::ostreambuf_iterator<wchar_t, std::char_traits<wchar_t> > >::~num_put
FUNC 7f60c 10 0 std::num_get<wchar_t, std::istreambuf_iterator<wchar_t, std::char_traits<wchar_t> > >::~num_get
FUNC 7f61c 30 0 std::num_get<wchar_t, std::istreambuf_iterator<wchar_t, std::char_traits<wchar_t> > >::~num_get
FUNC 7f64c 10 0 std::num_get<char, std::istreambuf_iterator<char, std::char_traits<char> > >::~num_get
FUNC 7f65c 30 0 std::num_get<char, std::istreambuf_iterator<char, std::char_traits<char> > >::~num_get
FUNC 7f68c 10 0 std::num_put<char, std::ostreambuf_iterator<char, std::char_traits<char> > >::~num_put
FUNC 7f69c 30 0 std::num_put<char, std::ostreambuf_iterator<char, std::char_traits<char> > >::~num_put
FUNC 7f6cc 8 0 std::_Refcount_Base::~_Refcount_Base
FUNC 7f6d4 18 0 std::allocator<char>::deallocate
FUNC 7f6ec 1c 0 std::allocator<wchar_t>::deallocate
FUNC 7f708 1c 0 std::basic_streambuf<char, std::char_traits<char> >::sbumpc
FUNC 7f724 110 0 std::priv::__write_integer_backward<long unsigned int>
FUNC 7f834 110 0 std::priv::__write_integer_backward<long long unsigned int>
FUNC 7f944 1c 0 std::basic_streambuf<wchar_t, std::char_traits<wchar_t> >::sbumpc
FUNC 7f960 98 0 std::istreambuf_iterator<wchar_t, std::char_traits<wchar_t> >::_M_getc
FUNC 7f9f8 98 0 std::istreambuf_iterator<char, std::char_traits<char> >::_M_getc
FUNC 7fa90 c4 0 std::priv::__copy<char const*, std::ostreambuf_iterator<char, std::char_traits<char> >, long int>
FUNC 7fb54 bc 0 std::priv::__copy<wchar_t*, std::ostreambuf_iterator<wchar_t, std::char_traits<wchar_t> >, long int>
FUNC 7fc10 bc 0 std::priv::__copy<wchar_t const*, std::ostreambuf_iterator<wchar_t, std::char_traits<wchar_t> >, long int>
FUNC 7fccc 100 0 std::istreambuf_iterator<wchar_t, std::char_traits<wchar_t> >::operator++
FUNC 7fdcc f4 0 std::istreambuf_iterator<char, std::char_traits<char> >::operator++
FUNC 7fec0 1fc 0 std::time_put<char, std::ostreambuf_iterator<char, std::char_traits<char> > >::do_put
FUNC 800bc 49c 0 std::priv::__copy_digits<std::istreambuf_iterator<char, std::char_traits<char> >, char>
FUNC 80558 68 0 std::_release_facet
FUNC 805c0 a0 0 std::_Locale_impl::Init::_M_count
FUNC 80660 4 0 std::_Locale_impl::_S_uninitialize
FUNC 80664 5c 0 std::_Locale_impl::Init::~Init
FUNC 806c0 120 0 std::_Locale_impl::~_Locale_impl
FUNC 807e0 34 0 std::_Locale_impl::_M_throw_bad_cast
FUNC 80814 40 0 std::_get_Locale_impl
FUNC 80854 84 0 std::_release_Locale_impl
FUNC 808d8 c 0 std::priv::_GetFacetId
FUNC 808e4 158 0 std::vector<std::locale::facet*, std::allocator<std::locale::facet*> >::reserve
FUNC 80a3c 1b8 0 std::priv::_Time_Info_Base::~_Time_Info_Base
FUNC 80bf4 18c 0 std::priv::_Time_Info::~_Time_Info
FUNC 80d80 44 0 std::time_put<char, std::ostreambuf_iterator<char, std::char_traits<char> > >::~time_put
FUNC 80dc4 4c 0 std::time_put<char, std::ostreambuf_iterator<char, std::char_traits<char> > >::~time_put
FUNC 80e10 44 0 std::time_get<char, std::istreambuf_iterator<char, std::char_traits<char> > >::~time_get
FUNC 80e54 4c 0 std::time_get<char, std::istreambuf_iterator<char, std::char_traits<char> > >::~time_get
FUNC 80ea0 1a0 0 std::priv::_WTime_Info::~_WTime_Info
FUNC 81040 44 0 std::time_put<wchar_t, std::ostreambuf_iterator<wchar_t, std::char_traits<wchar_t> > >::~time_put
FUNC 81084 4c 0 std::time_put<wchar_t, std::ostreambuf_iterator<wchar_t, std::char_traits<wchar_t> > >::~time_put
FUNC 810d0 44 0 std::time_get<wchar_t, std::istreambuf_iterator<wchar_t, std::char_traits<wchar_t> > >::~time_get
FUNC 81114 4c 0 std::time_get<wchar_t, std::istreambuf_iterator<wchar_t, std::char_traits<wchar_t> > >::~time_get
FUNC 81160 e0 0 std::_Locale_impl::_Locale_impl
FUNC 81240 810 0 std::_Locale_impl::make_classic_locale
FUNC 81a50 94 0 std::_Locale_impl::_S_initialize
FUNC 81ae4 60 0 std::_Locale_impl::Init::Init
FUNC 81b44 8c 0 std::_Stl_get_global_locale
FUNC 81bd0 214 0 std::priv::__get_decimal_integer<wchar_t*, long double, wchar_t>
FUNC 81e30 214 0 std::priv::__get_decimal_integer<char*, long double, char>
FUNC 82090 2c0 0 std::priv::__get_decimal_integer<std::istreambuf_iterator<wchar_t, std::char_traits<wchar_t> >, int, wchar_t>
FUNC 82350 290 0 std::time_get<wchar_t, std::istreambuf_iterator<wchar_t, std::char_traits<wchar_t> > >::do_get_year
FUNC 825e0 2bc 0 std::priv::__get_decimal_integer<std::istreambuf_iterator<char, std::char_traits<char> >, int, char>
FUNC 8289c 274 0 std::time_get<char, std::istreambuf_iterator<char, std::char_traits<char> > >::do_get_year
FUNC 82b10 3e0 0 std::priv::__do_put_bool<wchar_t, std::ostreambuf_iterator<wchar_t, std::char_traits<wchar_t> > >
FUNC 82ef0 4c 0 std::num_put<wchar_t, std::ostreambuf_iterator<wchar_t, std::char_traits<wchar_t> > >::do_put
FUNC 82f3c 80 0 std::ostreambuf_iterator<wchar_t, std::char_traits<wchar_t> >::operator=
FUNC 82fbc 3d8 0 std::priv::__do_put_bool<char, std::ostreambuf_iterator<char, std::char_traits<char> > >
FUNC 83394 50 0 std::num_put<char, std::ostreambuf_iterator<char, std::char_traits<char> > >::do_put
FUNC 833e4 8c 0 std::ostreambuf_iterator<char, std::char_traits<char> >::operator=
FUNC 83470 c6c 0 std::priv::__money_do_put<char, std::ostreambuf_iterator<char, std::char_traits<char> >, std::basic_string<char, std::char_traits<char>, std::allocator<char> >, std::basic_string<char, std::char_traits<char>, std::allocator<char> > >
FUNC 840dc 34 0 std::money_put<char, std::ostreambuf_iterator<char, std::char_traits<char> > >::do_put
FUNC 84110 c6c 0 std::priv::__money_do_put<char, std::ostreambuf_iterator<char, std::char_traits<char> >, std::basic_string<char, std::char_traits<char>, std::allocator<char> >, std::priv::__basic_iostring<char> >
FUNC 84d7c 138 0 std::money_put<char, std::ostreambuf_iterator<char, std::char_traits<char> > >::do_put
FUNC 84eb4 38 0 std::priv::_String_base<wchar_t, std::priv::__iostring_allocator<wchar_t> >::_M_deallocate_block
FUNC 84eec 1d4 0 std::time_put<wchar_t, std::ostreambuf_iterator<wchar_t, std::char_traits<wchar_t> > >::do_put
FUNC 850c0 c68 0 std::priv::__money_do_put<wchar_t, std::ostreambuf_iterator<wchar_t, std::char_traits<wchar_t> >, std::basic_string<wchar_t, std::char_traits<wchar_t>, std::allocator<wchar_t> >, std::basic_string<wchar_t, std::char_traits<wchar_t>, std::allocator<wchar_t> > >
FUNC 85d28 34 0 std::money_put<wchar_t, std::ostreambuf_iterator<wchar_t, std::char_traits<wchar_t> > >::do_put
FUNC 85d5c c68 0 std::priv::__money_do_put<wchar_t, std::ostreambuf_iterator<wchar_t, std::char_traits<wchar_t> >, std::basic_string<wchar_t, std::char_traits<wchar_t>, std::allocator<wchar_t> >, std::priv::__basic_iostring<wchar_t> >
FUNC 869c4 214 0 std::money_put<wchar_t, std::ostreambuf_iterator<wchar_t, std::char_traits<wchar_t> > >::do_put
FUNC 86bd8 278 0 std::priv::__get_string<std::istreambuf_iterator<wchar_t, std::char_traits<wchar_t> >, wchar_t*>
FUNC 86e50 26c 0 std::priv::__get_string<std::istreambuf_iterator<char, std::char_traits<char> >, char*>
FUNC 870bc 138 0 std::istreambuf_iterator<wchar_t, std::char_traits<wchar_t> >::equal
FUNC 871f4 290 0 std::priv::__match<std::istreambuf_iterator<wchar_t, std::char_traits<wchar_t> >, const std::basic_string<wchar_t, std::char_traits<wchar_t>, std::allocator<wchar_t> >*>
FUNC 87484 178 0 std::time_get<wchar_t, std::istreambuf_iterator<wchar_t, std::char_traits<wchar_t> > >::do_get_monthname
FUNC 875fc 188 0 std::time_get<wchar_t, std::istreambuf_iterator<wchar_t, std::char_traits<wchar_t> > >::do_get_weekday
FUNC 87784 4c4 0 std::priv::__get_formatted_time<std::istreambuf_iterator<wchar_t, std::char_traits<wchar_t> >, wchar_t, std::priv::_WTime_Info>
FUNC 87c48 1c0 0 std::time_get<wchar_t, std::istreambuf_iterator<wchar_t, std::char_traits<wchar_t> > >::do_get_date
FUNC 87e08 1b8 0 std::time_get<wchar_t, std::istreambuf_iterator<wchar_t, std::char_traits<wchar_t> > >::do_get_time
FUNC 87fc0 498 0 std::priv::__do_get_alphabool<std::istreambuf_iterator<wchar_t, std::char_traits<wchar_t> >, wchar_t>
FUNC 88458 130 0 std::istreambuf_iterator<char, std::char_traits<char> >::equal
FUNC 88588 268 0 std::priv::__match<std::istreambuf_iterator<char, std::char_traits<char> >, const std::basic_string<char, std::char_traits<char>, std::allocator<char> >*>
FUNC 887f0 160 0 std::time_get<char, std::istreambuf_iterator<char, std::char_traits<char> > >::do_get_monthname
FUNC 88950 174 0 std::time_get<char, std::istreambuf_iterator<char, std::char_traits<char> > >::do_get_weekday
FUNC 88ac4 4b4 0 std::priv::__get_formatted_time<std::istreambuf_iterator<char, std::char_traits<char> >, char, std::priv::_Time_Info>
FUNC 88f78 1ac 0 std::time_get<char, std::istreambuf_iterator<char, std::char_traits<char> > >::do_get_date
FUNC 89124 1a4 0 std::time_get<char, std::istreambuf_iterator<char, std::char_traits<char> > >::do_get_time
FUNC 892c8 450 0 std::priv::__do_get_alphabool<std::istreambuf_iterator<char, std::char_traits<char> >, char>
FUNC 89718 15c 0 std::priv::__write_integer_backward<long int>
FUNC 89874 4e0 0 std::priv::__put_float<std::ostreambuf_iterator<wchar_t, std::char_traits<wchar_t> > >
FUNC 89d54 220 0 std::priv::__do_put_float<wchar_t, std::ostreambuf_iterator<wchar_t, std::char_traits<wchar_t> >, long double>
FUNC 89f74 24 0 std::num_put<wchar_t, std::ostreambuf_iterator<wchar_t, std::char_traits<wchar_t> > >::do_put
FUNC 89f98 220 0 std::priv::__do_put_float<wchar_t, std::ostreambuf_iterator<wchar_t, std::char_traits<wchar_t> >, double>
FUNC 8a1b8 24 0 std::num_put<wchar_t, std::ostreambuf_iterator<wchar_t, std::char_traits<wchar_t> > >::do_put
FUNC 8a1dc 15c 0 std::priv::__write_integer_backward<long long int>
FUNC 8a338 3e8 0 std::priv::__get_base_or_zero<std::istreambuf_iterator<wchar_t, std::char_traits<wchar_t> >, wchar_t>
FUNC 8a720 5e0 0 std::priv::__do_get_integer<std::istreambuf_iterator<wchar_t, std::char_traits<wchar_t> >, long long unsigned int, wchar_t>
FUNC 8ad00 34 0 std::num_get<wchar_t, std::istreambuf_iterator<wchar_t, std::char_traits<wchar_t> > >::do_get
FUNC 8ad34 54 0 std::num_get<wchar_t, std::istreambuf_iterator<wchar_t, std::char_traits<wchar_t> > >::do_get
FUNC 8ad88 5f8 0 std::priv::__do_get_integer<std::istreambuf_iterator<wchar_t, std::char_traits<wchar_t> >, long long int, wchar_t>
FUNC 8b380 34 0 std::num_get<wchar_t, std::istreambuf_iterator<wchar_t, std::char_traits<wchar_t> > >::do_get
FUNC 8b3b4 5e0 0 std::priv::__do_get_integer<std::istreambuf_iterator<wchar_t, std::char_traits<wchar_t> >, long unsigned int, wchar_t>
FUNC 8b994 34 0 std::num_get<wchar_t, std::istreambuf_iterator<wchar_t, std::char_traits<wchar_t> > >::do_get
FUNC 8b9c8 5d0 0 std::priv::__do_get_integer<std::istreambuf_iterator<wchar_t, std::char_traits<wchar_t> >, unsigned int, wchar_t>
FUNC 8bf98 34 0 std::num_get<wchar_t, std::istreambuf_iterator<wchar_t, std::char_traits<wchar_t> > >::do_get
FUNC 8bfcc 4f4 0 std::priv::__do_get_integer<std::istreambuf_iterator<wchar_t, std::char_traits<wchar_t> >, short unsigned int, wchar_t>
FUNC 8c4c0 34 0 std::num_get<wchar_t, std::istreambuf_iterator<wchar_t, std::char_traits<wchar_t> > >::do_get
FUNC 8c4f4 5f8 0 std::priv::__do_get_integer<std::istreambuf_iterator<wchar_t, std::char_traits<wchar_t> >, long int, wchar_t>
FUNC 8caec 34 0 std::num_get<wchar_t, std::istreambuf_iterator<wchar_t, std::char_traits<wchar_t> > >::do_get
FUNC 8cb20 a8 0 std::num_get<wchar_t, std::istreambuf_iterator<wchar_t, std::char_traits<wchar_t> > >::do_get
FUNC 8cbc8 3e4 0 std::priv::__get_base_or_zero<std::istreambuf_iterator<char, std::char_traits<char> >, char>
FUNC 8cfac 5c4 0 std::priv::__do_get_integer<std::istreambuf_iterator<char, std::char_traits<char> >, long long unsigned int, char>
FUNC 8d570 34 0 std::num_get<char, std::istreambuf_iterator<char, std::char_traits<char> > >::do_get
FUNC 8d5a4 54 0 std::num_get<char, std::istreambuf_iterator<char, std::char_traits<char> > >::do_get
FUNC 8d5f8 5dc 0 std::priv::__do_get_integer<std::istreambuf_iterator<char, std::char_traits<char> >, long long int, char>
FUNC 8dbd4 34 0 std::num_get<char, std::istreambuf_iterator<char, std::char_traits<char> > >::do_get
FUNC 8dc08 5c4 0 std::priv::__do_get_integer<std::istreambuf_iterator<char, std::char_traits<char> >, long unsigned int, char>
FUNC 8e1cc 34 0 std::num_get<char, std::istreambuf_iterator<char, std::char_traits<char> > >::do_get
FUNC 8e200 4d4 0 std::priv::__do_get_integer<std::istreambuf_iterator<char, std::char_traits<char> >, unsigned int, char>
FUNC 8e6d4 34 0 std::num_get<char, std::istreambuf_iterator<char, std::char_traits<char> > >::do_get
FUNC 8e708 5c0 0 std::priv::__do_get_integer<std::istreambuf_iterator<char, std::char_traits<char> >, short unsigned int, char>
FUNC 8ecc8 34 0 std::num_get<char, std::istreambuf_iterator<char, std::char_traits<char> > >::do_get
FUNC 8ecfc 4fc 0 std::priv::__do_get_integer<std::istreambuf_iterator<char, std::char_traits<char> >, long int, char>
FUNC 8f1f8 34 0 std::num_get<char, std::istreambuf_iterator<char, std::char_traits<char> > >::do_get
FUNC 8f22c a8 0 std::num_get<char, std::istreambuf_iterator<char, std::char_traits<char> > >::do_get
FUNC 8f2d4 468 0 std::priv::__put_float<std::ostreambuf_iterator<char, std::char_traits<char> > >
FUNC 8f73c 220 0 std::priv::__do_put_float<char, std::ostreambuf_iterator<char, std::char_traits<char> >, long double>
FUNC 8f95c 24 0 std::num_put<char, std::ostreambuf_iterator<char, std::char_traits<char> > >::do_put
FUNC 8f980 220 0 std::priv::__do_put_float<char, std::ostreambuf_iterator<char, std::char_traits<char> >, double>
FUNC 8fba0 24 0 std::num_put<char, std::ostreambuf_iterator<char, std::char_traits<char> > >::do_put
FUNC 8fbc4 4b4 0 std::priv::__copy_integer_and_fill<wchar_t, std::ostreambuf_iterator<wchar_t, std::char_traits<wchar_t> > >
FUNC 90078 21c 0 std::priv::__put_integer<std::ostreambuf_iterator<wchar_t, std::char_traits<wchar_t> > >
FUNC 90294 a4 0 std::priv::__do_put_integer<wchar_t, std::ostreambuf_iterator<wchar_t, std::char_traits<wchar_t> >, long unsigned int>
FUNC 90338 1e8 0 std::num_put<wchar_t, std::ostreambuf_iterator<wchar_t, std::char_traits<wchar_t> > >::do_put
FUNC 90520 28 0 std::num_put<wchar_t, std::ostreambuf_iterator<wchar_t, std::char_traits<wchar_t> > >::do_put
FUNC 90548 a8 0 std::num_put<wchar_t, std::ostreambuf_iterator<wchar_t, std::char_traits<wchar_t> > >::do_put
FUNC 905f0 6c 0 std::num_put<wchar_t, std::ostreambuf_iterator<wchar_t, std::char_traits<wchar_t> > >::do_put
FUNC 9065c 6c 0 std::num_put<wchar_t, std::ostreambuf_iterator<wchar_t, std::char_traits<wchar_t> > >::do_put
FUNC 906c8 550 0 std::priv::__copy_sign<std::istreambuf_iterator<wchar_t, std::char_traits<wchar_t> >, wchar_t>
FUNC 90c18 4d8 0 std::priv::__copy_digits<std::istreambuf_iterator<wchar_t, std::char_traits<wchar_t> >, wchar_t>
FUNC 910f0 2bc 0 std::basic_string<char, std::char_traits<char>, std::priv::__iostring_allocator<char> >::push_back
FUNC 913ac 844 0 std::priv::__read_float<std::istreambuf_iterator<wchar_t, std::char_traits<wchar_t> >, wchar_t>
FUNC 91bf0 2a0 0 std::priv::__do_get_float<std::istreambuf_iterator<wchar_t, std::char_traits<wchar_t> >, long double, wchar_t>
FUNC 91e90 34 0 std::num_get<wchar_t, std::istreambuf_iterator<wchar_t, std::char_traits<wchar_t> > >::do_get
FUNC 91ec4 2a0 0 std::priv::__do_get_float<std::istreambuf_iterator<wchar_t, std::char_traits<wchar_t> >, double, wchar_t>
FUNC 92164 34 0 std::num_get<wchar_t, std::istreambuf_iterator<wchar_t, std::char_traits<wchar_t> > >::do_get
FUNC 92198 2a0 0 std::priv::__do_get_float<std::istreambuf_iterator<wchar_t, std::char_traits<wchar_t> >, float, wchar_t>
FUNC 92438 34 0 std::num_get<wchar_t, std::istreambuf_iterator<wchar_t, std::char_traits<wchar_t> > >::do_get
FUNC 9246c 4f4 0 std::priv::__copy_sign<std::istreambuf_iterator<char, std::char_traits<char> >, char>
FUNC 92960 7b8 0 std::priv::__read_float<std::istreambuf_iterator<char, std::char_traits<char> >, char>
FUNC 93118 298 0 std::priv::__do_get_float<std::istreambuf_iterator<char, std::char_traits<char> >, long double, char>
FUNC 933b0 34 0 std::num_get<char, std::istreambuf_iterator<char, std::char_traits<char> > >::do_get
FUNC 933e4 298 0 std::priv::__do_get_float<std::istreambuf_iterator<char, std::char_traits<char> >, double, char>
FUNC 9367c 34 0 std::num_get<char, std::istreambuf_iterator<char, std::char_traits<char> > >::do_get
FUNC 936b0 298 0 std::priv::__do_get_float<std::istreambuf_iterator<char, std::char_traits<char> >, float, char>
FUNC 93948 34 0 std::num_get<char, std::istreambuf_iterator<char, std::char_traits<char> > >::do_get
FUNC 9397c 4c8 0 std::priv::__copy_integer_and_fill<char, std::ostreambuf_iterator<char, std::char_traits<char> > >
FUNC 93e44 1e8 0 std::priv::__put_integer<std::ostreambuf_iterator<char, std::char_traits<char> > >
FUNC 9402c a4 0 std::priv::__do_put_integer<char, std::ostreambuf_iterator<char, std::char_traits<char> >, long unsigned int>
FUNC 940d0 1fc 0 std::num_put<char, std::ostreambuf_iterator<char, std::char_traits<char> > >::do_put
FUNC 942cc 28 0 std::num_put<char, std::ostreambuf_iterator<char, std::char_traits<char> > >::do_put
FUNC 942f4 a8 0 std::num_put<char, std::ostreambuf_iterator<char, std::char_traits<char> > >::do_put
FUNC 9439c 70 0 std::num_put<char, std::ostreambuf_iterator<char, std::char_traits<char> > >::do_put
FUNC 9440c 70 0 std::num_put<char, std::ostreambuf_iterator<char, std::char_traits<char> > >::do_put
FUNC 9447c 420 0 std::basic_string<wchar_t, std::char_traits<wchar_t>, std::allocator<wchar_t> >::_M_append
FUNC 9489c 1d0 0 std::basic_string<wchar_t, std::char_traits<wchar_t>, std::allocator<wchar_t> >::_M_reserve
FUNC 94a6c 4c4 0 std::basic_string<wchar_t, std::char_traits<wchar_t>, std::allocator<wchar_t> >::assign
FUNC 94f30 7f4 0 std::priv::__get_monetary_value<std::istreambuf_iterator<wchar_t, std::char_traits<wchar_t> >, std::back_insert_iterator<std::basic_string<wchar_t, std::char_traits<wchar_t>, std::allocator<wchar_t> > >, wchar_t>
FUNC 95724 b48 0 std::priv::__money_do_get<wchar_t, std::istreambuf_iterator<wchar_t, std::char_traits<wchar_t> >, std::basic_string<wchar_t, std::char_traits<wchar_t>, std::allocator<wchar_t> > >
FUNC 9626c 54 0 std::money_get<wchar_t, std::istreambuf_iterator<wchar_t, std::char_traits<wchar_t> > >::do_get
FUNC 962c0 154 0 std::money_get<wchar_t, std::istreambuf_iterator<wchar_t, std::char_traits<wchar_t> > >::do_get
FUNC 96414 504 0 std::basic_string<char, std::char_traits<char>, std::allocator<char> >::assign
FUNC 96918 7cc 0 std::priv::__get_monetary_value<std::istreambuf_iterator<char, std::char_traits<char> >, std::back_insert_iterator<std::basic_string<char, std::char_traits<char>, std::allocator<char> > >, char>
FUNC 970e4 a44 0 std::priv::__money_do_get<char, std::istreambuf_iterator<char, std::char_traits<char> >, std::basic_string<char, std::char_traits<char>, std::allocator<char> > >
FUNC 97b28 54 0 std::money_get<char, std::istreambuf_iterator<char, std::char_traits<char> > >::do_get
FUNC 97b7c 154 0 std::money_get<char, std::istreambuf_iterator<char, std::char_traits<char> > >::do_get
FUNC 97cd0 84 0 std::priv::_String_base<wchar_t, std::allocator<wchar_t> >::_M_allocate_block
FUNC 97d54 9c 0 std::basic_string<wchar_t, std::char_traits<wchar_t>, std::allocator<wchar_t> >::basic_string
FUNC 97df0 4 0 std::_STLP_mutex::~_STLP_mutex
FUNC 97df4 58 0 std::__node_alloc_impl::_M_deallocate
FUNC 97e4c 1d0 0 std::__node_alloc_impl::_S_chunk_alloc
FUNC 9801c 84 0 std::__node_alloc_impl::_S_refill
FUNC 980a0 b4 0 std::__node_alloc_impl::_M_allocate
FUNC 98154 4 0 std::__node_alloc::_M_allocate
FUNC 98158 4 0 std::__node_alloc::_M_deallocate
FUNC 9815c 124 0 _Locale_init
FUNC 98280 4 0 _Locale_final
FUNC 98284 1d0 0 __cxxabiv1::__cxa_call_unexpected
FUNC 98454 8 0 __cxxabiv1::__class_type_info::code
FUNC 9845c 10 0 __cxxabiv1::__class_type_info::~__class_type_info
FUNC 9846c 30 0 __cxxabiv1::__class_type_info::~__class_type_info
FUNC 9849c 50 0 __cxxabiv1::__class_type_info::walk_to
FUNC 984ec 50 0 __cxxabiv1::__class_type_info::self_class_type_match
FUNC 9853c 64 0 __cxxabiv1::__UpcastInfo::__UpcastInfo
FUNC 985a0 c0 0 __cxxabiv1::__class_type_info::can_catch
FUNC 98660 30 0 __cxxabiv1::readULEB128
FUNC 98690 48 0 __cxxabiv1::readSLEB128
FUNC 986d8 1b8 0 __cxxabiv1::readEncodedPointer
FUNC 98890 184 0 base_to_derived_cast
FUNC 98a14 158 0 walk_object
FUNC 98b6c 124 0 __cxxabiv1::__dynamic_cast
FUNC 98c90 94 0 __cxa_guard_acquire
FUNC 98d24 48 0 __cxa_guard_release
FUNC 98d6c 44 0 __cxa_guard_abort
FUNC 98db0 8 0 __cxxabiv1::__vmi_class_type_info::code
FUNC 98db8 10 0 __cxxabiv1::__vmi_class_type_info::~__vmi_class_type_info
FUNC 98dc8 30 0 __cxxabiv1::__vmi_class_type_info::~__vmi_class_type_info
FUNC 98df8 270 0 __cxxabiv1::__vmi_class_type_info::walk_to
FUNC 99068 8 0 std::priv::stdio_istreambuf::showmanyc
FUNC 99070 8 0 std::priv::stdio_ostreambuf::showmanyc
FUNC 99078 60 0 std::priv::stdio_streambuf_base::~stdio_streambuf_base
FUNC 990d8 10 0 std::priv::stdio_istreambuf::~stdio_istreambuf
FUNC 990e8 30 0 std::priv::stdio_istreambuf::~stdio_istreambuf
FUNC 99118 10 0 std::priv::stdio_ostreambuf::~stdio_ostreambuf
FUNC 99128 30 0 std::priv::stdio_ostreambuf::~stdio_ostreambuf
FUNC 99158 24 0 std::priv::stdio_streambuf_base::~stdio_streambuf_base
FUNC 9917c 20 0 std::priv::stdio_streambuf_base::sync
FUNC 9919c 50 0 std::priv::stdio_streambuf_base::setbuf
FUNC 991ec 7c 0 std::priv::stdio_streambuf_base::seekoff
FUNC 99268 8 0 std::priv::stdio_istreambuf::uflow
FUNC 99270 3c 0 std::priv::stdio_istreambuf::underflow
FUNC 992ac 4c 0 std::priv::stdio_streambuf_base::seekpos
FUNC 992f8 3c 0 std::priv::stdio_istreambuf::pbackfail
FUNC 99334 80 0 std::priv::stdio_ostreambuf::overflow
FUNC 993b4 60 0 std::priv::stdio_streambuf_base::stdio_streambuf_base
FUNC 99414 10 0 std::codecvt<char, char, mbstate_t>::do_length
FUNC 99424 8 0 std::codecvt<char, char, mbstate_t>::do_max_length
FUNC 9942c 8 0 std::codecvt<char, char, mbstate_t>::do_always_noconv
FUNC 99434 8 0 std::codecvt<char, char, mbstate_t>::do_encoding
FUNC 9943c c 0 std::codecvt<char, char, mbstate_t>::do_unshift
FUNC 99448 10 0 std::codecvt<char, char, mbstate_t>::do_in
FUNC 99458 10 0 std::codecvt<char, char, mbstate_t>::do_out
FUNC 99468 1f4 0 std::codecvt<wchar_t, char, mbstate_t>::do_out
FUNC 9965c 1f0 0 std::codecvt<wchar_t, char, mbstate_t>::do_in
FUNC 9984c c 0 std::codecvt<wchar_t, char, mbstate_t>::do_unshift
FUNC 99858 8 0 std::codecvt<wchar_t, char, mbstate_t>::do_encoding
FUNC 99860 8 0 std::codecvt<wchar_t, char, mbstate_t>::do_always_noconv
FUNC 99868 10 0 std::codecvt<wchar_t, char, mbstate_t>::do_length
FUNC 99878 8 0 std::codecvt<wchar_t, char, mbstate_t>::do_max_length
FUNC 99880 14 0 std::codecvt<char, char, mbstate_t>::~codecvt
FUNC 99894 14 0 std::codecvt<wchar_t, char, mbstate_t>::~codecvt
FUNC 998a8 24 0 std::codecvt<char, char, mbstate_t>::~codecvt
FUNC 998cc 24 0 std::codecvt<wchar_t, char, mbstate_t>::~codecvt
FUNC 998f0 24 0 std::collate<char>::do_hash
FUNC 99914 5c 0 std::collate<wchar_t>::do_compare
FUNC 99970 24 0 std::collate<wchar_t>::do_hash
FUNC 99994 14 0 std::collate<char>::~collate
FUNC 999a8 14 0 std::collate<wchar_t>::~collate
FUNC 999bc 24 0 std::collate<char>::~collate
FUNC 999e0 24 0 std::collate<wchar_t>::~collate
FUNC 99a04 48 0 std::collate<char>::do_compare
FUNC 99a4c f4 0 std::collate<char>::do_transform
FUNC 99b40 108 0 std::collate<wchar_t>::do_transform
FUNC 99c48 14 0 std::ctype<char>::do_toupper
FUNC 99c5c 14 0 std::ctype<char>::do_tolower
FUNC 99c70 2c 0 std::ctype<char>::do_toupper
FUNC 99c9c 2c 0 std::ctype<char>::do_tolower
FUNC 99cc8 8 0 std::ctype<char>::do_widen
FUNC 99cd0 8 0 std::ctype<char>::do_narrow
FUNC 99cd8 1c 0 std::ctype<wchar_t>::do_toupper
FUNC 99cf4 34 0 std::ctype<wchar_t>::do_toupper
FUNC 99d28 1c 0 std::ctype<wchar_t>::do_tolower
FUNC 99d44 34 0 std::ctype<wchar_t>::do_tolower
FUNC 99d78 8 0 std::ctype<wchar_t>::do_widen
FUNC 99d80 208 0 std::ctype<wchar_t>::do_widen
FUNC 99f88 14 0 std::ctype<wchar_t>::do_narrow
FUNC 99f9c 30 0 std::ctype<wchar_t>::do_narrow
FUNC 99fcc 44 0 std::ctype<char>::~ctype
FUNC 9a010 14 0 std::ctype<wchar_t>::~ctype
FUNC 9a024 24 0 std::ctype<char>::~ctype
FUNC 9a048 24 0 std::ctype<wchar_t>::~ctype
FUNC 9a06c 30 0 std::ctype<char>::do_widen
FUNC 9a09c 30 0 std::ctype<char>::do_narrow
FUNC 9a0cc c 0 std::ctype<char>::classic_table
FUNC 9a0d8 40 0 std::ctype<wchar_t>::do_is
FUNC 9a118 5c 0 std::ctype<wchar_t>::do_is
FUNC 9a174 184 0 std::ctype<wchar_t>::do_scan_is
FUNC 9a2f8 188 0 std::ctype<wchar_t>::do_scan_not
FUNC 9a480 78 0 std::ctype<char>::ctype
FUNC 9a4f8 8 0 std::moneypunct<char, true>::do_decimal_point
FUNC 9a500 8 0 std::moneypunct<char, true>::do_thousands_sep
FUNC 9a508 8 0 std::moneypunct<char, true>::do_pos_format
FUNC 9a510 8 0 std::moneypunct<char, true>::do_neg_format
FUNC 9a518 8 0 std::moneypunct<char, true>::do_frac_digits
FUNC 9a520 8 0 std::moneypunct<char, false>::do_decimal_point
FUNC 9a528 8 0 std::moneypunct<char, false>::do_thousands_sep
FUNC 9a530 8 0 std::moneypunct<char, false>::do_pos_format
FUNC 9a538 8 0 std::moneypunct<char, false>::do_neg_format
FUNC 9a540 8 0 std::moneypunct<char, false>::do_frac_digits
FUNC 9a548 8 0 std::moneypunct<wchar_t, true>::do_decimal_point
FUNC 9a550 8 0 std::moneypunct<wchar_t, true>::do_thousands_sep
FUNC 9a558 8 0 std::moneypunct<wchar_t, true>::do_frac_digits
FUNC 9a560 8 0 std::moneypunct<wchar_t, true>::do_pos_format
FUNC 9a568 8 0 std::moneypunct<wchar_t, true>::do_neg_format
FUNC 9a570 8 0 std::moneypunct<wchar_t, false>::do_decimal_point
FUNC 9a578 8 0 std::moneypunct<wchar_t, false>::do_thousands_sep
FUNC 9a580 8 0 std::moneypunct<wchar_t, false>::do_frac_digits
FUNC 9a588 8 0 std::moneypunct<wchar_t, false>::do_pos_format
FUNC 9a590 8 0 std::moneypunct<wchar_t, false>::do_neg_format
FUNC 9a598 14 0 std::moneypunct<char, true>::~moneypunct
FUNC 9a5ac 14 0 std::moneypunct<char, false>::~moneypunct
FUNC 9a5c0 14 0 std::moneypunct<wchar_t, true>::~moneypunct
FUNC 9a5d4 14 0 std::moneypunct<wchar_t, false>::~moneypunct
FUNC 9a5e8 24 0 std::moneypunct<char, true>::~moneypunct
FUNC 9a60c 24 0 std::moneypunct<char, false>::~moneypunct
FUNC 9a630 24 0 std::moneypunct<wchar_t, true>::~moneypunct
FUNC 9a654 24 0 std::moneypunct<wchar_t, false>::~moneypunct
FUNC 9a678 70 0 std::moneypunct<char, true>::moneypunct
FUNC 9a6e8 70 0 std::moneypunct<char, false>::moneypunct
FUNC 9a758 70 0 std::moneypunct<wchar_t, true>::moneypunct
FUNC 9a7c8 70 0 std::moneypunct<wchar_t, false>::moneypunct
FUNC 9a838 30 0 std::moneypunct<char, true>::do_grouping
FUNC 9a868 30 0 std::moneypunct<char, true>::do_curr_symbol
FUNC 9a898 30 0 std::moneypunct<char, true>::do_positive_sign
FUNC 9a8c8 30 0 std::moneypunct<char, true>::do_negative_sign
FUNC 9a8f8 30 0 std::moneypunct<char, false>::do_grouping
FUNC 9a928 30 0 std::moneypunct<char, false>::do_curr_symbol
FUNC 9a958 30 0 std::moneypunct<char, false>::do_positive_sign
FUNC 9a988 30 0 std::moneypunct<char, false>::do_negative_sign
FUNC 9a9b8 30 0 std::moneypunct<wchar_t, true>::do_grouping
FUNC 9a9e8 30 0 std::moneypunct<wchar_t, false>::do_grouping
FUNC 9aa18 30 0 std::moneypunct<wchar_t, true>::do_curr_symbol
FUNC 9aa48 30 0 std::moneypunct<wchar_t, true>::do_positive_sign
FUNC 9aa78 30 0 std::moneypunct<wchar_t, true>::do_negative_sign
FUNC 9aaa8 30 0 std::moneypunct<wchar_t, false>::do_curr_symbol
FUNC 9aad8 30 0 std::moneypunct<wchar_t, false>::do_positive_sign
FUNC 9ab08 30 0 std::moneypunct<wchar_t, false>::do_negative_sign
FUNC 9ab38 78 0 std::priv::__valid_grouping
FUNC 9abb0 10 0 std::priv::__digit_val_table
FUNC 9abc0 c 0 std::priv::__narrow_atoms
FUNC 9abcc 12c 0 std::priv::__get_fdigit
FUNC 9acf8 28 0 std::priv::__get_fdigit_or_sep
FUNC 9ad20 c 0 std::priv::__hex_char_table_lo
FUNC 9ad2c c 0 std::priv::__hex_char_table_hi
FUNC 9ad38 180 0 std::priv::__write_integer
FUNC 9aeb8 120 0 std::priv::__insert_grouping
FUNC 9afd8 7b4 0 std::priv::__insert_grouping
FUNC 9b78c 128 0 std::priv::__insert_grouping
FUNC 9b8b4 1c0 0 std::basic_string<wchar_t, std::char_traits<wchar_t>, std::priv::__iostring_allocator<wchar_t> >::_M_reserve
FUNC 9ba74 46c 0 std::priv::__insert_grouping
FUNC 9bee0 44 0 std::priv::_Stl_mult64
FUNC 9bf24 84 0 std::priv::_Stl_norm_and_round
FUNC 9bfa8 17c 0 std::priv::_Stl_tenscale
FUNC 9c124 3a8 0 std::priv::_Stl_string_to_double
FUNC 9c4cc d8 0 std::priv::_Initialize_get_float
FUNC 9c5a4 28 0 std::priv::__string_to_float
FUNC 9c5cc 24 0 std::priv::__string_to_float
FUNC 9c5f0 27c 0 std::priv::_Stl_atodT<long double, ieee854_long_double, 16, 16383>
FUNC 9c880 1f0 0 std::priv::_Stl_string_to_doubleT<long double, ieee854_long_double, 16, 16383>
FUNC 9ca70 24 0 std::priv::__string_to_float
FUNC 9ca94 f0 0 std::priv::__fill_fmtbuf
FUNC 9cb84 5f8 0 std::basic_string<char, std::char_traits<char>, std::priv::__iostring_allocator<char> >::_M_append
FUNC 9d17c 220 0 std::priv::__get_floor_digits
FUNC 9d39c 334 0 std::priv::__convert_float_buffer
FUNC 9d6d0 dc 0 std::basic_string<char, std::char_traits<char>, std::priv::__iostring_allocator<char> >::_M_assign
FUNC 9d7ac 230 0 std::priv::__write_floatT<long double>
FUNC 9d9dc 4 0 std::priv::__write_float
FUNC 9d9e0 210 0 std::priv::__write_floatT<double>
FUNC 9dbf0 4 0 std::priv::__write_float
FUNC 9dbf4 8 0 std::numpunct<char>::do_decimal_point
FUNC 9dbfc 8 0 std::numpunct<char>::do_thousands_sep
FUNC 9dc04 8 0 std::numpunct<wchar_t>::do_decimal_point
FUNC 9dc0c 8 0 std::numpunct<wchar_t>::do_thousands_sep
FUNC 9dc14 14 0 std::numpunct<char>::~numpunct
FUNC 9dc28 24 0 std::numpunct<char>::~numpunct
FUNC 9dc4c 14 0 std::numpunct<wchar_t>::~numpunct
FUNC 9dc60 24 0 std::numpunct<wchar_t>::~numpunct
FUNC 9dc84 14 0 std::numpunct<wchar_t>::do_grouping
FUNC 9dc98 14 0 std::numpunct<char>::do_grouping
FUNC 9dcac 30 0 std::numpunct<char>::do_truename
FUNC 9dcdc 30 0 std::numpunct<char>::do_falsename
FUNC 9dd0c 30 0 std::numpunct<wchar_t>::do_truename
FUNC 9dd3c 30 0 std::numpunct<wchar_t>::do_falsename
FUNC 9dd6c 1dc 0 std::priv::__append
FUNC 9df48 1b8 0 std::priv::__append
FUNC 9e100 208 0 std::basic_string<wchar_t, std::char_traits<wchar_t>, std::priv::__iostring_allocator<wchar_t> >::append
FUNC 9e308 2b8 0 std::basic_string<char, std::char_traits<char>, std::priv::__iostring_allocator<char> >::append
FUNC 9e5c0 a8 0 std::priv::__subformat<wchar_t, std::priv::_WTime_Info>
FUNC 9e668 8b4 0 std::priv::__write_formatted_timeT<wchar_t, std::priv::_WTime_Info>
FUNC 9ef1c 4 0 std::priv::__write_formatted_time
FUNC 9ef20 294 0 std::priv::time_init<char>::time_init
FUNC 9f1b4 c0 0 std::basic_string<wchar_t, std::char_traits<wchar_t>, std::allocator<wchar_t> >::_M_assign
FUNC 9f274 2bc 0 std::priv::time_init<wchar_t>::time_init
FUNC 9f530 1a8 0 std::basic_string<char, std::char_traits<char>, std::priv::__iostring_allocator<char> >::_M_appendT<char const*>
FUNC 9f6d8 1a8 0 std::basic_string<char, std::char_traits<char>, std::priv::__iostring_allocator<char> >::_M_appendT<char*>
FUNC 9f880 11f8 0 std::priv::__write_formatted_timeT<char, std::priv::_Time_Info>
FUNC a0a78 4 0 std::priv::__write_formatted_time
FUNC a0a7c a8 0 std::priv::__subformat<char, std::priv::_Time_Info>
FUNC a0b24 8 0 std::messages<char>::do_open
FUNC a0b2c 4 0 std::messages<char>::do_close
FUNC a0b30 8 0 std::messages<wchar_t>::do_open
FUNC a0b38 4 0 std::messages<wchar_t>::do_close
FUNC a0b3c 14 0 std::messages<char>::~messages
FUNC a0b50 34 0 std::messages<char>::~messages
FUNC a0b84 14 0 std::messages<wchar_t>::~messages
FUNC a0b98 34 0 std::messages<wchar_t>::~messages
FUNC a0bcc 44 0 std::messages<char>::messages
FUNC a0c10 44 0 std::messages<wchar_t>::messages
FUNC a0c54 28 0 std::messages<char>::do_get
FUNC a0c7c a8 0 std::basic_string<wchar_t, std::char_traits<wchar_t>, std::allocator<wchar_t> >::basic_string
FUNC a0d24 28 0 std::messages<wchar_t>::do_get
FUNC a0d4c 34 0 __popcountdi2
FUNC a0d80 aa4 0 __addtf3
FUNC a1824 100 0 __eqtf2
FUNC a1924 13c 0 __getf2
FUNC a1a60 6bc 0 __multf3
FUNC a211c 64 0 __floatsitf
FUNC a2180 28 0 read_uleb128
FUNC a21a8 40 0 read_sleb128
FUNC a21e8 f0 0 read_encoded_value_with_base
FUNC a22d8 114 0 init_dwarf_reg_size_table
FUNC a23ec 3c 0 _Unwind_SetSpColumn
FUNC a2428 58 0 _Unwind_GetGR
FUNC a2480 10c 0 uw_install_context_1
FUNC a258c 8 0 _Unwind_GetCFA
FUNC a2594 58 0 _Unwind_SetGR
FUNC a25ec 8 0 _Unwind_GetIP
FUNC a25f4 14 0 _Unwind_GetIPInfo
FUNC a2608 8 0 _Unwind_SetIP
FUNC a2610 8 0 _Unwind_GetLanguageSpecificData
FUNC a2618 8 0 _Unwind_GetRegionStart
FUNC a2620 28 0 _Unwind_FindEnclosingFunction
FUNC a2648 8 0 _Unwind_GetDataRelBase
FUNC a2650 8 0 _Unwind_GetTextRelBase
FUNC a2658 78 0 base_of_encoded_value
FUNC a26d0 4f8 0 execute_cfa_program
FUNC a2bc8 41c 0 uw_frame_state_for
FUNC a2fe4 598 0 execute_stack_op
FUNC a357c 224 0 uw_update_context_1
FUNC a37a0 cc 0 uw_init_context_1
FUNC a386c 4c 0 uw_update_context
FUNC a38b8 c0 0 _Unwind_RaiseException_Phase2
FUNC a3978 ec 0 _Unwind_ForcedUnwind_Phase2
FUNC a3a64 f4 0 __frame_state_for
FUNC a3b58 4 0 _Unwind_DebugHook
FUNC a3b5c 188 0 _Unwind_RaiseException
FUNC a3ce4 f4 0 _Unwind_ForcedUnwind
FUNC a3dd8 fc 0 _Unwind_Resume
FUNC a3ed4 fc 0 _Unwind_Resume_or_Rethrow
FUNC a3fd0 24 0 _Unwind_DeleteException
FUNC a3ff4 d0 0 _Unwind_Backtrace
FUNC a40c4 28 0 read_uleb128
FUNC a40ec 40 0 read_sleb128
FUNC a412c 1c 0 fde_unencoded_compare
FUNC a4148 c0 0 frame_downheap
FUNC a4208 b4 0 frame_heapsort
FUNC a42bc 60 0 size_of_encoded_value
FUNC a431c 60 0 base_from_object
FUNC a437c 60 0 base_from_cb_data
FUNC a43dc f0 0 read_encoded_value_with_base
FUNC a44cc 90 0 fde_single_encoding_compare
FUNC a455c fc 0 get_cie_encoding
FUNC a4658 160 0 linear_search_fdes
FUNC a47b8 10 0 get_fde_encoding
FUNC a47c8 414 0 _Unwind_IteratePhdrCallback
FUNC a4bdc 9c 0 fde_mixed_encoding_compare
FUNC a4c78 160 0 classify_object_over_fdes
FUNC a4dd8 134 0 add_fdes
FUNC a4f0c 578 0 search_object
FUNC a5484 84 0 __register_frame_info_bases
FUNC a5508 c 0 __register_frame_info
FUNC a5514 40 0 __register_frame
FUNC a5554 70 0 __register_frame_info_table_bases
FUNC a55c4 c 0 __register_frame_info_table
FUNC a55d0 2c 0 __register_frame_table
FUNC a55fc f0 0 __deregister_frame_info_bases
FUNC a56ec 4 0 __deregister_frame_info
FUNC a56f0 24 0 __deregister_frame
FUNC a5714 190 0 _Unwind_Find_FDE
FUNC a58a4 60 0 __sfp_handle_exceptions
PUBLIC 268d4 0 _ZN38ExceptionHandlerTest_SimpleWithFD_Test8TestBodyEv
PUBLIC 26aa8 0 _ZN7testing13PrintToStringIiEESsRKT_
PUBLIC 26b30 0 _ZN7testing8internal18CmpHelperOpFailureIiiEENS_15AssertionResultEPKcS4_RKT_RKT0_S4_
PUBLIC 26c44 0 _ZN7testing8internal11CmpHelperNEIiiEENS_15AssertionResultEPKcS4_RKT_RKT0_
PUBLIC 26c88 0 _ZN7testing8internal11CmpHelperEQIiiEENS_15AssertionResultEPKcS4_RKT_RKT0_
PUBLIC 26f1c 0 _ZN7testing13PrintToStringIlEESsRKT_
PUBLIC 26f78 0 _ZN7testing8internal11CmpHelperEQIllEENS_15AssertionResultEPKcS4_RKT_RKT0_
PUBLIC 27014 0 _ZN7testing8internal11CmpHelperEQIilEENS_15AssertionResultEPKcS4_RKT_RKT0_
PUBLIC 2744c 0 _ZN7testing8internal11CmpHelperGTIliEENS_15AssertionResultEPKcS4_RKT_RKT0_
PUBLIC 27580 0 _ZN53ExceptionHandlerTest_GenerateMultipleDumpsWithFD_Test8TestBodyEv
PUBLIC 27850 0 _ZN7testing13PrintToStringIPvEESsRKT_
PUBLIC 278d8 0 _ZN7testing8internal18CmpHelperOpFailureIPvS2_EENS_15AssertionResultEPKcS5_RKT_RKT0_S5_
PUBLIC 279ec 0 _ZN7testing13PrintToStringIjEESsRKT_
PUBLIC 27a48 0 _ZN7testing8internal11CmpHelperLTIjjEENS_15AssertionResultEPKcS4_RKT_RKT0_
PUBLIC 27b7c 0 _ZN7testing8internal11CmpHelperEQIjjEENS_15AssertionResultEPKcS4_RKT_RKT0_
PUBLIC 27c18 0 _ZN7testing8internal18CmpHelperEQFailureI20MDExceptionCodeLinuxjEENS_15AssertionResultEPKcS5_RKT_RKT0_
PUBLIC 27d70 0 _ZN7testing13PrintToStringISsEESsRKT_
PUBLIC 27dcc 0 _ZN7testing8internal11CmpHelperEQISsSsEENS_15AssertionResultEPKcS4_RKT_RKT0_
PUBLIC 27e8c 0 _ZN40ExceptionHandlerTest_SimpleWithPath_Test8TestBodyEv
PUBLIC 28074 0 _ZN7testing13PrintToStringImEESsRKT_
PUBLIC 280d0 0 _ZN7testing8internal11CmpHelperEQImjEENS_15AssertionResultEPKcS4_RKT_RKT0_
PUBLIC 2816c 0 _ZN7testing8internal11CmpHelperEQIjmEENS_15AssertionResultEPKcS4_RKT_RKT0_
PUBLIC 28208 0 _ZN7testing8internal11CmpHelperEQImmEENS_15AssertionResultEPKcS4_RKT_RKT0_
PUBLIC 289c8 0 _Z10ChildCrashb
PUBLIC 28dac 0 _ZN44ExceptionHandlerTest_ChildCrashWithPath_Test8TestBodyEv
PUBLIC 28e54 0 _ZN42ExceptionHandlerTest_ChildCrashWithFD_Test8TestBodyEv
PUBLIC 28efc 0 _ZN57ExceptionHandlerTest_RedeliveryOnFilterCallbackFalse_Test8TestBodyEv
PUBLIC 290a0 0 _ZN55ExceptionHandlerTest_RedeliveryOnDoneCallbackFalse_Test8TestBodyEv
PUBLIC 29244 0 _ZN56ExceptionHandlerTest_NoRedeliveryOnDoneCallbackTrue_Test8TestBodyEv
PUBLIC 293e8 0 _ZN58ExceptionHandlerTest_NoRedeliveryOnFilterCallbackTrue_Test8TestBodyEv
PUBLIC 2958c 0 _ZN52ExceptionHandlerTest_RedeliveryToDefaultHandler_Test8TestBodyEv
PUBLIC 29688 0 _ZN58ExceptionHandlerTest_RedeliveryOnBadSignalHandlerFlag_Test8TestBodyEv
PUBLIC 299ac 0 _ZN55ExceptionHandlerTest_StackedHandlersDeliveredToTop_Test8TestBodyEv
PUBLIC 29ae8 0 _ZN61ExceptionHandlerTest_StackedHandlersNotDeliveredToBottom_Test8TestBodyEv
PUBLIC 29c24 0 _ZN57ExceptionHandlerTest_StackedHandlersFilteredToBottom_Test8TestBodyEv
PUBLIC 29d64 0 _ZN58ExceptionHandlerTest_StackedHandlersUnhandledToBottom_Test8TestBodyEv
PUBLIC 29ea4 0 _ZN40ExceptionHandlerTest_ExternalDumper_Test8TestBodyEv
PUBLIC 2a868 0 _ZN50ExceptionHandlerTest_InstructionPointerMemory_Test8TestBodyEv
PUBLIC 2b30c 0 _ZN58ExceptionHandlerTest_InstructionPointerMemoryMinBound_Test8TestBodyEv
PUBLIC 2bcc0 0 _ZN58ExceptionHandlerTest_InstructionPointerMemoryMaxBound_Test8TestBodyEv
PUBLIC 2c678 0 _ZN61ExceptionHandlerTest_InstructionPointerMemoryNullPointer_Test8TestBodyEv
PUBLIC 2cc2c 0 _ZN36ExceptionHandlerTest_ModuleInfo_Test8TestBodyEv
PUBLIC 2d504 0 _ZN54ExceptionHandlerTest_WriteMinidumpExceptionStream_Test8TestBodyEv
PUBLIC 2d874 0 _ZN55ExceptionHandlerTest_GenerateMultipleDumpsWithPath_Test8TestBodyEv
PUBLIC 2de2c 0 _ZN42ExceptionHandlerTest_AdditionalMemory_Test8TestBodyEv
PUBLIC 2e2b4 0 _ZN48ExceptionHandlerTest_AdditionalMemoryRemove_Test8TestBodyEv
PUBLIC 2e584 0 _ZN47ExceptionHandlerTest_WriteMinidumpForChild_Test8TestBodyEv
PUBLIC 2eb58 0 _ZN7testing13PrintToStringIPKvEESsRKT_
PUBLIC 2ebe0 0 _ZN7testing8internal11CmpHelperNEIPcS2_EENS_15AssertionResultEPKcS5_RKT_RKT0_
PUBLIC 2ff78 0 _ZN26CpuSetTest_EmptyCount_Test8TestBodyEv
PUBLIC 3003c 0 _ZN22CpuSetTest_OneCpu_Test8TestBodyEv
PUBLIC 30260 0 _ZN32CpuSetTest_OneCpuTerminated_Test8TestBodyEv
PUBLIC 30484 0 _ZN32CpuSetTest_TwoCpusWithComma_Test8TestBodyEv
PUBLIC 306a8 0 _ZN32CpuSetTest_TwoCpusWithRange_Test8TestBodyEv
PUBLIC 308cc 0 _ZN32CpuSetTest_TenCpusWithRange_Test8TestBodyEv
PUBLIC 30af0 0 _ZN26CpuSetTest_MultiItems_Test8TestBodyEv
PUBLIC 30d14 0 _ZN29CpuSetTest_IntersectWith_Test8TestBodyEv
PUBLIC 31260 0 _ZN32CpuSetTest_SelfIntersection_Test8TestBodyEv
PUBLIC 314f0 0 _ZN33CpuSetTest_EmptyIntersection_Test8TestBodyEv
PUBLIC 31af8 0 _ZNSt4priv8_Rb_treeISsSt4lessISsESsNS_9_IdentityISsEENS_11_SetTraitsTISsEESaISsEE8_M_eraseEPNS_18_Rb_tree_node_baseE
PUBLIC 31d8c 0 _ZNSt4priv8_Rb_treeISsSt4lessISsESsNS_9_IdentityISsEENS_11_SetTraitsTISsEESaISsEE9_M_insertEPNS_18_Rb_tree_node_baseERKSsSA_SA_
PUBLIC 31e68 0 _ZN39DirectoryReaderTest_CompareResults_Test8TestBodyEv
PUBLIC 32d34 0 _ZN29LineReaderTest_EmptyFile_Test8TestBodyEv
PUBLIC 32edc 0 _ZN27LineReaderTest_TooLong_Test8TestBodyEv
PUBLIC 330b0 0 _ZN7testing8internal18CmpHelperEQFailureIccEENS_15AssertionResultEPKcS4_RKT_RKT0_
PUBLIC 33198 0 _ZN7testing8internal11CmpHelperEQIccEENS_15AssertionResultEPKcS4_RKT_RKT0_
PUBLIC 331d4 0 _ZN37LineReaderTest_OneLineTerminated_Test8TestBodyEv
PUBLIC 33548 0 _ZN27LineReaderTest_OneLine_Test8TestBodyEv
PUBLIC 338bc 0 _ZN38LineReaderTest_TwoLinesTerminated_Test8TestBodyEv
PUBLIC 33e24 0 _ZN28LineReaderTest_TwoLines_Test8TestBodyEv
PUBLIC 3438c 0 _ZN29LineReaderTest_MaxLength_Test8TestBodyEv
PUBLIC 3483c 0 _ZN7testing8internal18CmpHelperEQFailureIjmEENS_15AssertionResultEPKcS4_RKT_RKT0_
PUBLIC 34958 0 _ZN38LinuxCoreDumperTest_BuildProcPath_Test8TestBodyEv
PUBLIC 34e00 0 _ZN54LinuxCoreDumperTest_VerifyDumpWithMultipleThreads_Test8TestBodyEv
PUBLIC 35ed8 0 _ZN29LinuxPtraceDumperMappingsTest5SetUpEv
PUBLIC 36294 0 _ZN37LinuxPtraceDumperChildTest_Setup_Test12RealTestBodyEv
PUBLIC 362c8 0 _ZN44LinuxPtraceDumperChildTest_FindMappings_Test12RealTestBodyEv
PUBLIC 364f8 0 _ZN45LinuxPtraceDumperChildTest_BuildProcPath_Test12RealTestBodyEv
PUBLIC 369f4 0 _ZN44LinuxPtraceDumperChildTest_FileIDsMatch_Test12RealTestBodyEv
PUBLIC 36eac 0 _ZN42LinuxPtraceDumperChildTest_ThreadList_Test12RealTestBodyEv
PUBLIC 372b4 0 _ZN50LinuxPtraceDumperChildTest_LinuxGateMappingID_Test12RealTestBodyEv
PUBLIC 376c0 0 _ZN56LinuxPtraceDumperChildTest_MappingsIncludeLinuxGate_Test12RealTestBodyEv
PUBLIC 37aa0 0 _ZN49LinuxPtraceDumperMappingsTest_MergedMappings_Test12RealTestBodyEv
PUBLIC 37e78 0 _ZN61LinuxPtraceDumperTest_VerifyStackReadWithMultipleThreads_Test8TestBodyEv
PUBLIC 3db40 0 _ZN15google_breakpad15GetHelperBinaryEv
PUBLIC 3e620 0 _ZN36ProcCpuInfoReaderTest_EmptyFile_Test8TestBodyEv
PUBLIC 3e7cc 0 _ZN44ProcCpuInfoReaderTest_OneLineTerminated_Test8TestBodyEv
PUBLIC 3eac8 0 _ZN45ProcCpuInfoReaderTest_TwoLinesTerminated_Test8TestBodyEv
PUBLIC 3eee8 0 _ZN44ProcCpuInfoReaderTest_SkipMalformedLine_Test8TestBodyEv
PUBLIC 3f1e4 0 _ZN43ProcCpuInfoReaderTest_SkipOneEmptyLine_Test8TestBodyEv
PUBLIC 3f4e0 0 _ZN41ProcCpuInfoReaderTest_SkipEmptyField_Test8TestBodyEv
PUBLIC 3f7dc 0 _ZN44ProcCpuInfoReaderTest_SkipTwoEmptyLines_Test8TestBodyEv
PUBLIC 3fc18 0 _ZN42ProcCpuInfoReaderTest_FieldWithSpaces_Test8TestBodyEv
PUBLIC 3ff14 0 _ZN37ProcCpuInfoReaderTest_EmptyValue_Test8TestBodyEv
PUBLIC 402cc 0 _ZN34ProcCpuInfoReaderTest_OneLine_Test8TestBodyEv
PUBLIC 408a0 0 _ZN7testing8internal18CmpHelperEQFailureIPK9elf64_hdrS4_EENS_15AssertionResultEPKcS7_RKT_RKT0_
PUBLIC 40988 0 _ZN7testing8internal18CmpHelperEQFailureIPK10elf64_phdrS4_EENS_15AssertionResultEPKcS7_RKT_RKT0_
PUBLIC 40a70 0 _ZNSt4priv8_Rb_treeIiSt4lessIiEiNS_9_IdentityIiEENS_11_SetTraitsTIiEESaIiEE8_M_eraseEPNS_18_Rb_tree_node_baseE
PUBLIC 40afc 0 _ZNSt4priv8_Rb_treeIiSt4lessIiEiNS_9_IdentityIiEENS_11_SetTraitsTIiEESaIiEE9_M_insertEPNS_18_Rb_tree_node_baseERKiSA_SA_
PUBLIC 40c18 0 _ZNSt4priv8_Rb_treeIiSt4lessIiEiNS_9_IdentityIiEENS_11_SetTraitsTIiEESaIiEE13insert_uniqueERKi
PUBLIC 40d30 0 _ZN39ElfCoreDumpTest_DefaultConstructor_Test8TestBodyEv
PUBLIC 410f8 0 _ZN34ElfCoreDumpTest_TestElfHeader_Test8TestBodyEv
PUBLIC 42350 0 _ZN34ElfCoreDumpTest_ValidCoreFile_Test8TestBodyEv
PUBLIC 435f8 0 _ZNSt4priv8_Rb_treeISsSt4lessISsESt4pairIKSsN15google_breakpad14test_assembler5LabelEENS_10_Select1stIS8_EENS_11_MapTraitsTIS8_EESaIS8_EE8_M_eraseEPNS_18_Rb_tree_node_baseE
PUBLIC 44a34 0 _ZN7testing8internal18CmpHelperOpFailureIjmEENS_15AssertionResultEPKcS4_RKT_RKT0_S4_
PUBLIC 44e9c 0 _ZN24FileIDTest_ElfClass_TestIN15google_breakpad10ElfClass64EE8TestBodyEv
PUBLIC 450ec 0 _ZN23FileIDTest_BuildID_TestIN15google_breakpad10ElfClass64EE8TestBodyEv
PUBLIC 45460 0 _ZN25FileIDTest_BuildIDPH_TestIN15google_breakpad10ElfClass64EE8TestBodyEv
PUBLIC 4582c 0 _ZN28FileIDTest_UniqueHashes_TestIN15google_breakpad10ElfClass64EE8TestBodyEv
PUBLIC 45e7c 0 _ZN24FileIDTest_ElfClass_TestIN15google_breakpad10ElfClass32EE8TestBodyEv
PUBLIC 460cc 0 _ZN23FileIDTest_BuildID_TestIN15google_breakpad10ElfClass32EE8TestBodyEv
PUBLIC 46440 0 _ZN25FileIDTest_BuildIDPH_TestIN15google_breakpad10ElfClass32EE8TestBodyEv
PUBLIC 4680c 0 _ZN28FileIDTest_UniqueHashes_TestIN15google_breakpad10ElfClass32EE8TestBodyEv
PUBLIC 47148 0 _ZN32LinuxLibcSupportTest_strlen_Test8TestBodyEv
PUBLIC 47290 0 _ZN32LinuxLibcSupportTest_strcmp_Test8TestBodyEv
PUBLIC 473b4 0 _ZN33LinuxLibcSupportTest_strtoui_Test8TestBodyEv
PUBLIC 47af0 0 _ZN31LinuxLibcSupportTest_uitos_Test8TestBodyEv
PUBLIC 47e28 0 _ZN34LinuxLibcSupportTest_uint_len_Test8TestBodyEv
PUBLIC 48354 0 _ZN32LinuxLibcSupportTest_strchr_Test8TestBodyEv
PUBLIC 487ac 0 _ZN33LinuxLibcSupportTest_strrchr_Test8TestBodyEv
PUBLIC 48bc4 0 _ZN7testing8internal18CmpHelperEQFailureIPvS2_EENS_15AssertionResultEPKcS5_RKT_RKT0_
PUBLIC 48c48 0 _ZN7testing8internal11CmpHelperEQIA10_cPvEENS_15AssertionResultEPKcS6_RKT_RKT0_
PUBLIC 48d80 0 _ZN32LinuxLibcSupportTest_memchr_Test8TestBodyEv
PUBLIC 4913c 0 _ZN7testing13PrintToStringIcEESsRKT_
PUBLIC 49198 0 _ZN7testing8internal11CmpHelperEQIciEENS_15AssertionResultEPKcS4_RKT_RKT0_
PUBLIC 49234 0 _ZN38LinuxLibcSupportTest_read_hex_ptr_Test8TestBodyEv
PUBLIC 496b0 0 _ZN42LinuxLibcSupportTest_read_decimal_ptr_Test8TestBodyEv
PUBLIC 49a9c 0 _ZN15google_breakpad9synth_elf3ELF13AppendSectionERNS1_10ElfSectionE
PUBLIC 49b10 0 _ZN15google_breakpad9synth_elf3ELF10AddSegmentEiijj
PUBLIC 49cf0 0 _ZN15google_breakpad9synth_elf5Notes7AddNoteEiRKSsPKhm
PUBLIC 49f04 0 _ZN15google_breakpad9synth_elf11SymbolTableC2ENS_14test_assembler10EndiannessEmRNS0_11StringTableE
PUBLIC 49fe4 0 _ZNSt4priv12_Impl_vectorIN15google_breakpad9synth_elf3ELF10ElfSectionESaIS4_EE22_M_insert_overflow_auxEPS4_RKS4_RKSt12__false_typemb
PUBLIC 4a244 0 _ZNSt4priv8_Rb_treeISsSt4lessISsESt4pairIKSsN15google_breakpad14test_assembler5LabelEENS_10_Select1stIS8_EENS_11_MapTraitsTIS8_EESaIS8_EE9_M_insertEPNS_18_Rb_tree_node_baseERKS8_SG_SG_
PUBLIC 4a320 0 _ZNSt4priv8_Rb_treeISsSt4lessISsESt4pairIKSsN15google_breakpad14test_assembler5LabelEENS_10_Select1stIS8_EENS_11_MapTraitsTIS8_EESaIS8_EE13insert_uniqueERKS8_
PUBLIC 4a41c 0 _ZNSt4priv8_Rb_treeISsSt4lessISsESt4pairIKSsN15google_breakpad14test_assembler5LabelEENS_10_Select1stIS8_EENS_11_MapTraitsTIS8_EESaIS8_EE13insert_uniqueENS_17_Rb_tree_iteratorIS8_SC_EERKS8_
PUBLIC 4a8fc 0 _ZN15google_breakpad9synth_elf11SymbolTable9AddSymbolERKSsjjjt
PUBLIC 4a9a0 0 _ZN15google_breakpad9synth_elf11SymbolTable9AddSymbolERKSsmmjt
PUBLIC 4aa44 0 _ZN15google_breakpad9synth_elf3ELF10AddSectionERKSsRKNS_14test_assembler7SectionEjjmjmm
PUBLIC 4ac54 0 _ZN15google_breakpad9synth_elf3ELF6FinishEv
PUBLIC 4ad54 0 _ZN15google_breakpad9synth_elf3ELFC1EthNS_14test_assembler10EndiannessE
PUBLIC 4b264 0 _ZNK15google_breakpad14CrashGenerator21HasDefaultCorePatternEv
PUBLIC 4b2d0 0 _ZNK15google_breakpad14CrashGenerator11GetThreadIdEj
PUBLIC 4b2dc 0 _ZN15google_breakpad14CrashGenerator18GetThreadIdPointerEj
PUBLIC 4b2e8 0 _ZN15google_breakpad14CrashGenerator17UnmapSharedMemoryEv
PUBLIC 4b340 0 _ZN15google_breakpad14CrashGenerator15MapSharedMemoryEm
PUBLIC 4b3c8 0 _ZNK15google_breakpad14CrashGenerator20SetCoreFileSizeLimitEm
PUBLIC 4b40c 0 _ZNK15google_breakpad14CrashGenerator13CopyProcFilesEiPKc
PUBLIC 4b4e8 0 _ZN15google_breakpad14CrashGenerator27CreateThreadsInChildProcessEj
PUBLIC 4b6c4 0 _ZN15google_breakpad14CrashGeneratorC1Ev
PUBLIC 4b6ec 0 _ZN15google_breakpad14CrashGeneratorD2Ev
PUBLIC 4b71c 0 _ZNK15google_breakpad14CrashGenerator15GetCoreFilePathEv
PUBLIC 4b748 0 _ZNK15google_breakpad14CrashGenerator27GetDirectoryOfProcFilesCopyEv
PUBLIC 4b774 0 _ZN15google_breakpad14CrashGenerator16CreateChildCrashEjjiPi
PUBLIC 4be6c 0 _ZN28PageAllocatorTest_Setup_Test8TestBodyEv
PUBLIC 4be98 0 _ZN35PageAllocatorTest_SmallObjects_Test8TestBodyEv
PUBLIC 4bfac 0 _ZN34PageAllocatorTest_LargeObject_Test8TestBodyEv
PUBLIC 4c250 0 _ZNSt4priv12_Impl_vectorIjN15google_breakpad16PageStdAllocatorIjEEE7reserveEm
PUBLIC 4c2f8 0 _ZN41WastefulVectorTest_UsesPageAllocator_Test8TestBodyEv
PUBLIC 4c42c 0 _ZN7testing8internal18CmpHelperEQFailureImjEENS_15AssertionResultEPKcS4_RKT_RKT0_
PUBLIC 4c4e0 0 _ZN29WastefulVectorTest_Setup_Test8TestBodyEv
PUBLIC 4c5b8 0 _ZN7testing8internal18CmpHelperEQFailureIjjEENS_15AssertionResultEPKcS4_RKT_RKT0_
PUBLIC 4c63c 0 _ZN30WastefulVectorTest_Simple_Test8TestBodyEv
PUBLIC 4d4b0 0 _ZN15google_breakpad31NonAllocatingMapTest_Entry_Test8TestBodyEv
PUBLIC 4dab0 0 _ZN15google_breakpad39NonAllocatingMapTest_CopyAndAssign_Test8TestBodyEv
PUBLIC 4e440 0 _ZN15google_breakpad35NonAllocatingMapTest_AddRemove_Test8TestBodyEv
PUBLIC 4eae8 0 _ZN15google_breakpad35NonAllocatingMapTest_Serialize_Test8TestBodyEv
PUBLIC 4f08c 0 _ZN15google_breakpad36NonAllocatingMapTest_OutOfSpace_Test8TestBodyEv
PUBLIC 4f2a4 0 _ZN7testing8internal18CmpHelperOpFailureIPKcA7_cEENS_15AssertionResultES3_S3_RKT_RKT0_S3_
PUBLIC 4f3e8 0 _ZN7testing8internal11CmpHelperNEIPKcA7_cEENS_15AssertionResultES3_S3_RKT_RKT0_
PUBLIC 4f428 0 _ZN15google_breakpad48NonAllocatingMapTest_SimpleStringDictionary_Test8TestBodyEv
PUBLIC 4f9a4 0 _ZN15google_breakpad34NonAllocatingMapTest_Iterator_Test8TestBodyEv
PUBLIC 4ffb0 0 _ZN15google_breakpad14test_assembler5LabelC1Ev
PUBLIC 4ffe8 0 _ZN15google_breakpad14test_assembler5LabelC1Em
PUBLIC 50028 0 _ZN15google_breakpad14test_assembler5LabelC2ERKS1_
PUBLIC 50040 0 _ZN15google_breakpad14test_assembler5Label7BindingC2Ev
PUBLIC 50054 0 _ZN15google_breakpad14test_assembler5Label7BindingC2Em
PUBLIC 50068 0 _ZN15google_breakpad14test_assembler5Label7BindingD1Ev
PUBLIC 500c0 0 _ZN15google_breakpad14test_assembler5LabelD2Ev
PUBLIC 5010c 0 _ZN15google_breakpad14test_assembler5Label7Binding3GetEPPS2_Pm
PUBLIC 501bc 0 _ZNK15google_breakpad14test_assembler5Label15IsKnownConstantEPm
PUBLIC 50208 0 _ZNK15google_breakpad14test_assembler5Label5ValueEv
PUBLIC 50228 0 _ZNK15google_breakpad14test_assembler5Label17IsKnownOffsetFromERKS1_Pm
PUBLIC 50298 0 _ZNK15google_breakpad14test_assembler5LabelmiERKS1_
PUBLIC 502b4 0 _ZN15google_breakpad14test_assembler5Label7Binding3SetEPS2_m
PUBLIC 50380 0 _ZN15google_breakpad14test_assembler5LabelaSEm
PUBLIC 503b0 0 _ZN15google_breakpad14test_assembler5LabelaSERKS1_
PUBLIC 503e0 0 _ZNK15google_breakpad14test_assembler5LabelplEm
PUBLIC 50420 0 _ZNK15google_breakpad14test_assembler5LabelmiEm
PUBLIC 50468 0 _ZN15google_breakpad14test_assembler7Section5AlignEmh
PUBLIC 504b0 0 _ZN15google_breakpad14test_assembler7Section6LEB128Ex
PUBLIC 50508 0 _ZN15google_breakpad14test_assembler7Section7ULEB128Em
PUBLIC 505d8 0 _ZN15google_breakpad14test_assembler7Section6AppendENS0_10EndiannessEmm
PUBLIC 5060c 0 _ZN15google_breakpad14test_assembler7Section3L16Et
PUBLIC 50640 0 _ZN15google_breakpad14test_assembler7Section3L32Ej
PUBLIC 50674 0 _ZN15google_breakpad14test_assembler7Section3L64Em
PUBLIC 506a8 0 _ZN15google_breakpad14test_assembler7Section3B16Et
PUBLIC 506dc 0 _ZN15google_breakpad14test_assembler7Section3B32Ej
PUBLIC 50710 0 _ZN15google_breakpad14test_assembler7Section3B64Em
PUBLIC 50744 0 _ZN15google_breakpad14test_assembler7Section3D16Et
PUBLIC 50778 0 _ZN15google_breakpad14test_assembler7Section3D32Ej
PUBLIC 507ac 0 _ZN15google_breakpad14test_assembler7Section3D64Em
PUBLIC 50830 0 _ZN15google_breakpad14test_assembler7Section5ClearEv
PUBLIC 5095c 0 _ZN15google_breakpad14test_assembler7Section11GetContentsEPSs
PUBLIC 50a9c 0 _ZNSt4priv12_Impl_vectorIN15google_breakpad14test_assembler7Section9ReferenceESaIS4_EE22_M_insert_overflow_auxEPS4_RKS4_RKSt12__false_typemb
PUBLIC 50d88 0 _ZN15google_breakpad14test_assembler7Section6AppendENS0_10EndiannessEmRKNS0_5LabelE
PUBLIC 50e48 0 _ZN15google_breakpad14test_assembler7Section2L8ERKNS0_5LabelE
PUBLIC 50e58 0 _ZN15google_breakpad14test_assembler7Section2B8ERKNS0_5LabelE
PUBLIC 50e68 0 _ZN15google_breakpad14test_assembler7Section3L16ERKNS0_5LabelE
PUBLIC 50e78 0 _ZN15google_breakpad14test_assembler7Section3L32ERKNS0_5LabelE
PUBLIC 50e88 0 _ZN15google_breakpad14test_assembler7Section3L64ERKNS0_5LabelE
PUBLIC 50e98 0 _ZN15google_breakpad14test_assembler7Section3B16ERKNS0_5LabelE
PUBLIC 50ea8 0 _ZN15google_breakpad14test_assembler7Section3B32ERKNS0_5LabelE
PUBLIC 50eb8 0 _ZN15google_breakpad14test_assembler7Section3B64ERKNS0_5LabelE
PUBLIC 50ec8 0 _ZN15google_breakpad14test_assembler7Section2D8ERKNS0_5LabelE
PUBLIC 50ed8 0 _ZN15google_breakpad14test_assembler7Section3D16ERKNS0_5LabelE
PUBLIC 50ee8 0 _ZN15google_breakpad14test_assembler7Section3D32ERKNS0_5LabelE
PUBLIC 50ef8 0 _ZN15google_breakpad14test_assembler7Section3D64ERKNS0_5LabelE
PUBLIC 50f08 0 _ZN15google_breakpad14test_assembler7Section6AppendERKS1_
PUBLIC 510ec 0 _ZN15google_breakpad8CopyFileEPKcS1_
PUBLIC 512d0 0 _ZN15google_breakpad8ReadFileEPKcPvPl
PUBLIC 513d4 0 _ZN15google_breakpad9WriteFileEPKcPKvm
PUBLIC 51dbc 0 _ZN7testing8internal18CmpHelperEQFailureIPKiS3_EENS_15AssertionResultEPKcS6_RKT_RKT0_
PUBLIC 51ef4 0 _ZN7testing13PrintToStringIPKhEESsRKT_
PUBLIC 51f50 0 _ZN7testing8internal11CmpHelperEQIPKhS3_EENS_15AssertionResultEPKcS6_RKT_RKT0_
PUBLIC 51fec 0 _ZN47MinidumpMemoryRangeTest_DefaultConstructor_Test8TestBodyEv
PUBLIC 52118 0 _ZN55MinidumpMemoryRangeTest_SubrangeOfEmptyMemoryRange_Test8TestBodyEv
PUBLIC 52260 0 _ZN57MinidumpMemoryRangeTest_ConstructorWithDataAndLength_Test8TestBodyEv
PUBLIC 5239c 0 _ZN34MinidumpMemoryRangeTest_Reset_Test8TestBodyEv
PUBLIC 526d4 0 _ZN32MinidumpMemoryRangeTest_Set_Test8TestBodyEv
PUBLIC 52914 0 _ZN7testing8internal11CmpHelperEQIPKhPKvEENS_15AssertionResultEPKcS8_RKT_RKT0_
PUBLIC 529b0 0 _ZN7testing8internal18CmpHelperEQFailureIPKvS3_EENS_15AssertionResultEPKcS6_RKT_RKT0_
PUBLIC 52a34 0 _ZN61MinidumpMemoryRangeTest_SubrangeWithMDLocationDescriptor_Test8TestBodyEv
PUBLIC 52fe0 0 _ZN44MinidumpMemoryRangeTest_GetArrayElement_Test8TestBodyEv
PUBLIC 531e4 0 _ZN47MinidumpMemoryRangeTest_SubrangeAndGetData_Test8TestBodyEv
PUBLIC 53820 0 _ZN52MinidumpMemoryRangeTest_GetDataWithTemplateType_Test8TestBodyEv
PUBLIC 539b0 0 _ZN59MinidumpMemoryRangeTest_GetArrayElmentWithTemplateType_Test8TestBodyEv
PUBLIC 53b40 0 _ZN7testing8internal11CmpHelperEQIA1_cSsEENS_15AssertionResultEPKcS5_RKT_RKT0_
PUBLIC 53bfc 0 _ZN45MinidumpMemoryRangeTest_GetAsciiMDString_Test8TestBodyEv
PUBLIC 540c4 0 _ZN7testing8internal18CmpHelperEQFailureImmEENS_15AssertionResultEPKcS4_RKT_RKT0_
PUBLIC 54200 0 _ZN33AndroidUContext_SigmakOffset_Test8TestBodyEv
PUBLIC 5429c 0 _ZN32AndroidUContext_GRegsOffset_Test8TestBodyEv
STACK CFI INIT 2351c 4 .cfa: sp 0 + .ra: x30
STACK CFI INIT 23520 4 .cfa: sp 0 + .ra: x30
STACK CFI INIT 23524 8 .cfa: sp 0 + .ra: x30
STACK CFI INIT 2352c 8 .cfa: sp 0 + .ra: x30
STACK CFI INIT 23534 8 .cfa: sp 0 + .ra: x30
STACK CFI INIT 2353c 8 .cfa: sp 0 + .ra: x30
STACK CFI INIT 23544 8 .cfa: sp 0 + .ra: x30
STACK CFI INIT 2354c 8 .cfa: sp 0 + .ra: x30
STACK CFI INIT 23554 4 .cfa: sp 0 + .ra: x30
STACK CFI INIT 23558 8 .cfa: sp 0 + .ra: x30
STACK CFI INIT 23560 4 .cfa: sp 0 + .ra: x30
STACK CFI INIT 23564 4 .cfa: sp 0 + .ra: x30
STACK CFI INIT 23568 4 .cfa: sp 0 + .ra: x30
STACK CFI INIT 2356c 4 .cfa: sp 0 + .ra: x30
STACK CFI INIT 23570 4 .cfa: sp 0 + .ra: x30
STACK CFI INIT 23574 4 .cfa: sp 0 + .ra: x30
STACK CFI INIT 23578 4 .cfa: sp 0 + .ra: x30
STACK CFI INIT 2357c 4 .cfa: sp 0 + .ra: x30
STACK CFI INIT 23580 4 .cfa: sp 0 + .ra: x30
STACK CFI INIT 23584 4 .cfa: sp 0 + .ra: x30
STACK CFI INIT 23588 4 .cfa: sp 0 + .ra: x30
STACK CFI INIT 2358c 4 .cfa: sp 0 + .ra: x30
STACK CFI INIT 23590 4 .cfa: sp 0 + .ra: x30
STACK CFI INIT 23594 4 .cfa: sp 0 + .ra: x30
STACK CFI INIT 23598 4 .cfa: sp 0 + .ra: x30
STACK CFI INIT 2359c 4 .cfa: sp 0 + .ra: x30
STACK CFI INIT 235a0 4 .cfa: sp 0 + .ra: x30
STACK CFI INIT 235a4 4 .cfa: sp 0 + .ra: x30
STACK CFI INIT 235a8 4 .cfa: sp 0 + .ra: x30
STACK CFI INIT 235ac 4 .cfa: sp 0 + .ra: x30
STACK CFI INIT 235b0 4 .cfa: sp 0 + .ra: x30
STACK CFI INIT 235b4 4 .cfa: sp 0 + .ra: x30
STACK CFI INIT 235b8 4 .cfa: sp 0 + .ra: x30
STACK CFI INIT 235bc 4 .cfa: sp 0 + .ra: x30
STACK CFI INIT 235c0 4 .cfa: sp 0 + .ra: x30
STACK CFI INIT 235c4 4 .cfa: sp 0 + .ra: x30
STACK CFI INIT 235c8 8 .cfa: sp 0 + .ra: x30
STACK CFI INIT 235d0 1c .cfa: sp 0 + .ra: x30
STACK CFI INIT 235ec 24 .cfa: sp 0 + .ra: x30
STACK CFI INIT 23610 6c .cfa: sp 0 + .ra: x30
STACK CFI INIT 2367c 4 .cfa: sp 0 + .ra: x30
STACK CFI INIT 23680 8 .cfa: sp 0 + .ra: x30
STACK CFI INIT 23688 40 .cfa: sp 0 + .ra: x30
STACK CFI 2368c .cfa: sp 32 + .ra: .cfa -24 + ^ x29: .cfa -32 + ^
STACK CFI 23690 .cfa: x29 32 +
STACK CFI 23694 x19: .cfa -16 + ^
STACK CFI 236c0 x19: x19
STACK CFI 236c4 .cfa: sp 0 + .ra: .ra x29: x29
STACK CFI INIT 236c8 8 .cfa: sp 0 + .ra: x30
STACK CFI INIT 236d0 4 .cfa: sp 0 + .ra: x30
STACK CFI INIT 236d4 4 .cfa: sp 0 + .ra: x30
STACK CFI INIT 236d8 4 .cfa: sp 0 + .ra: x30
STACK CFI INIT 236dc 4 .cfa: sp 0 + .ra: x30
STACK CFI INIT 236e0 4 .cfa: sp 0 + .ra: x30
STACK CFI INIT 236e4 4 .cfa: sp 0 + .ra: x30
STACK CFI INIT 236e8 4 .cfa: sp 0 + .ra: x30
STACK CFI INIT 236ec 4 .cfa: sp 0 + .ra: x30
STACK CFI INIT 236f0 4 .cfa: sp 0 + .ra: x30
STACK CFI INIT 236f4 4 .cfa: sp 0 + .ra: x30
STACK CFI INIT 236f8 4 .cfa: sp 0 + .ra: x30
STACK CFI INIT 236fc 4 .cfa: sp 0 + .ra: x30
STACK CFI INIT 23700 4 .cfa: sp 0 + .ra: x30
STACK CFI INIT 23704 4 .cfa: sp 0 + .ra: x30
STACK CFI INIT 23708 4 .cfa: sp 0 + .ra: x30
STACK CFI INIT 2370c 4 .cfa: sp 0 + .ra: x30
STACK CFI INIT 23710 4 .cfa: sp 0 + .ra: x30
STACK CFI INIT 23714 4 .cfa: sp 0 + .ra: x30
STACK CFI INIT 23718 4 .cfa: sp 0 + .ra: x30
STACK CFI INIT 2371c 4 .cfa: sp 0 + .ra: x30
STACK CFI INIT 23720 4 .cfa: sp 0 + .ra: x30
STACK CFI INIT 23724 4 .cfa: sp 0 + .ra: x30
STACK CFI INIT 23728 4 .cfa: sp 0 + .ra: x30
STACK CFI INIT 2372c 4 .cfa: sp 0 + .ra: x30
STACK CFI INIT 23730 4 .cfa: sp 0 + .ra: x30
STACK CFI INIT 23734 4 .cfa: sp 0 + .ra: x30
STACK CFI INIT 23738 b4 .cfa: sp 0 + .ra: x30
STACK CFI 2373c .cfa: sp 64 + .ra: .cfa -56 + ^ x29: .cfa -64 + ^
STACK CFI 23740 .cfa: x29 64 +
STACK CFI 2374c x19: .cfa -48 + ^ x20: .cfa -40 + ^ x21: .cfa -32 + ^ x22: .cfa -24 + ^ x23: .cfa -16 + ^
STACK CFI 237dc x23: x23
STACK CFI 237e0 x19: x19 x20: x20
STACK CFI 237e4 x21: x21 x22: x22
STACK CFI 237e8 .cfa: sp 0 + .ra: .ra x29: x29
STACK CFI INIT 237ec a8 .cfa: sp 0 + .ra: x30
STACK CFI 237f0 .cfa: sp 64 + .ra: .cfa -56 + ^ x29: .cfa -64 + ^
STACK CFI 237f4 .cfa: x29 64 +
STACK CFI 23800 x19: .cfa -48 + ^ x20: .cfa -40 + ^ x21: .cfa -32 + ^ x22: .cfa -24 + ^ x23: .cfa -16 + ^
STACK CFI 23884 x23: x23
STACK CFI 23888 x19: x19 x20: x20
STACK CFI 2388c x21: x21 x22: x22
STACK CFI 23890 .cfa: sp 0 + .ra: .ra x29: x29
STACK CFI INIT 23894 14 .cfa: sp 0 + .ra: x30
STACK CFI INIT 238a8 24 .cfa: sp 0 + .ra: x30
STACK CFI 238ac .cfa: sp 32 + .ra: .cfa -24 + ^ x29: .cfa -32 + ^
STACK CFI 238b0 .cfa: x29 32 +
STACK CFI 238b4 x19: .cfa -16 + ^
STACK CFI 238c4 x19: x19
STACK CFI 238c8 .cfa: sp 0 + .ra: .ra x29: x29
STACK CFI INIT 238cc 14 .cfa: sp 0 + .ra: x30
STACK CFI INIT 238e0 24 .cfa: sp 0 + .ra: x30
STACK CFI 238e4 .cfa: sp 32 + .ra: .cfa -24 + ^ x29: .cfa -32 + ^
STACK CFI 238e8 .cfa: x29 32 +
STACK CFI 238ec x19: .cfa -16 + ^
STACK CFI 238fc x19: x19
STACK CFI 23900 .cfa: sp 0 + .ra: .ra x29: x29
STACK CFI INIT 23904 3c .cfa: sp 0 + .ra: x30
STACK CFI 23908 .cfa: sp 48 + .ra: .cfa -40 + ^ x29: .cfa -48 + ^
STACK CFI 23914 .cfa: x29 48 +
STACK CFI 2393c .cfa: sp 0 + .ra: .ra x29: x29
STACK CFI INIT 23940 8 .cfa: sp 0 + .ra: x30
STACK CFI INIT 23948 1c .cfa: sp 0 + .ra: x30
STACK CFI 2394c .cfa: sp 16 + .ra: .cfa -8 + ^ x29: .cfa -16 + ^
STACK CFI 23954 .cfa: x29 16 +
STACK CFI 23960 .cfa: sp 0 + .ra: .ra x29: x29
STACK CFI INIT 23964 14 .cfa: sp 0 + .ra: x30
STACK CFI INIT 23978 24 .cfa: sp 0 + .ra: x30
STACK CFI 2397c .cfa: sp 32 + .ra: .cfa -24 + ^ x29: .cfa -32 + ^
STACK CFI 23980 .cfa: x29 32 +
STACK CFI 23984 x19: .cfa -16 + ^
STACK CFI 23994 x19: x19
STACK CFI 23998 .cfa: sp 0 + .ra: .ra x29: x29
STACK CFI INIT 2399c 14 .cfa: sp 0 + .ra: x30
STACK CFI INIT 239b0 24 .cfa: sp 0 + .ra: x30
STACK CFI 239b4 .cfa: sp 32 + .ra: .cfa -24 + ^ x29: .cfa -32 + ^
STACK CFI 239b8 .cfa: x29 32 +
STACK CFI 239bc x19: .cfa -16 + ^
STACK CFI 239cc x19: x19
STACK CFI 239d0 .cfa: sp 0 + .ra: .ra x29: x29
STACK CFI INIT 239d4 14 .cfa: sp 0 + .ra: x30
STACK CFI INIT 239e8 24 .cfa: sp 0 + .ra: x30
STACK CFI 239ec .cfa: sp 32 + .ra: .cfa -24 + ^ x29: .cfa -32 + ^
STACK CFI 239f0 .cfa: x29 32 +
STACK CFI 239f4 x19: .cfa -16 + ^
STACK CFI 23a04 x19: x19
STACK CFI 23a08 .cfa: sp 0 + .ra: .ra x29: x29
STACK CFI INIT 23a0c 14 .cfa: sp 0 + .ra: x30
STACK CFI INIT 23a20 24 .cfa: sp 0 + .ra: x30
STACK CFI 23a24 .cfa: sp 32 + .ra: .cfa -24 + ^ x29: .cfa -32 + ^
STACK CFI 23a28 .cfa: x29 32 +
STACK CFI 23a2c x19: .cfa -16 + ^
STACK CFI 23a3c x19: x19
STACK CFI 23a40 .cfa: sp 0 + .ra: .ra x29: x29
STACK CFI INIT 23a44 14 .cfa: sp 0 + .ra: x30
STACK CFI INIT 23a58 24 .cfa: sp 0 + .ra: x30
STACK CFI 23a5c .cfa: sp 32 + .ra: .cfa -24 + ^ x29: .cfa -32 + ^
STACK CFI 23a60 .cfa: x29 32 +
STACK CFI 23a64 x19: .cfa -16 + ^
STACK CFI 23a74 x19: x19
STACK CFI 23a78 .cfa: sp 0 + .ra: .ra x29: x29
STACK CFI INIT 23a7c 14 .cfa: sp 0 + .ra: x30
STACK CFI INIT 23a90 24 .cfa: sp 0 + .ra: x30
STACK CFI 23a94 .cfa: sp 32 + .ra: .cfa -24 + ^ x29: .cfa -32 + ^
STACK CFI 23a98 .cfa: x29 32 +
STACK CFI 23a9c x19: .cfa -16 + ^
STACK CFI 23aac x19: x19
STACK CFI 23ab0 .cfa: sp 0 + .ra: .ra x29: x29
STACK CFI INIT 23ab4 14 .cfa: sp 0 + .ra: x30
STACK CFI INIT 23ac8 24 .cfa: sp 0 + .ra: x30
STACK CFI 23acc .cfa: sp 32 + .ra: .cfa -24 + ^ x29: .cfa -32 + ^
STACK CFI 23ad0 .cfa: x29 32 +
STACK CFI 23ad4 x19: .cfa -16 + ^
STACK CFI 23ae4 x19: x19
STACK CFI 23ae8 .cfa: sp 0 + .ra: .ra x29: x29
STACK CFI INIT 23aec 14 .cfa: sp 0 + .ra: x30
STACK CFI INIT 23b00 24 .cfa: sp 0 + .ra: x30
STACK CFI 23b04 .cfa: sp 32 + .ra: .cfa -24 + ^ x29: .cfa -32 + ^
STACK CFI 23b08 .cfa: x29 32 +
STACK CFI 23b0c x19: .cfa -16 + ^
STACK CFI 23b1c x19: x19
STACK CFI 23b20 .cfa: sp 0 + .ra: .ra x29: x29
STACK CFI INIT 23b24 14 .cfa: sp 0 + .ra: x30
STACK CFI INIT 23b38 24 .cfa: sp 0 + .ra: x30
STACK CFI 23b3c .cfa: sp 32 + .ra: .cfa -24 + ^ x29: .cfa -32 + ^
STACK CFI 23b40 .cfa: x29 32 +
STACK CFI 23b44 x19: .cfa -16 + ^
STACK CFI 23b54 x19: x19
STACK CFI 23b58 .cfa: sp 0 + .ra: .ra x29: x29
STACK CFI INIT 23b5c 14 .cfa: sp 0 + .ra: x30
STACK CFI INIT 23b70 24 .cfa: sp 0 + .ra: x30
STACK CFI 23b74 .cfa: sp 32 + .ra: .cfa -24 + ^ x29: .cfa -32 + ^
STACK CFI 23b78 .cfa: x29 32 +
STACK CFI 23b7c x19: .cfa -16 + ^
STACK CFI 23b8c x19: x19
STACK CFI 23b90 .cfa: sp 0 + .ra: .ra x29: x29
STACK CFI INIT 23b94 14 .cfa: sp 0 + .ra: x30
STACK CFI INIT 23ba8 24 .cfa: sp 0 + .ra: x30
STACK CFI 23bac .cfa: sp 32 + .ra: .cfa -24 + ^ x29: .cfa -32 + ^
STACK CFI 23bb0 .cfa: x29 32 +
STACK CFI 23bb4 x19: .cfa -16 + ^
STACK CFI 23bc4 x19: x19
STACK CFI 23bc8 .cfa: sp 0 + .ra: .ra x29: x29
STACK CFI INIT 23bcc 14 .cfa: sp 0 + .ra: x30
STACK CFI INIT 23be0 24 .cfa: sp 0 + .ra: x30
STACK CFI 23be4 .cfa: sp 32 + .ra: .cfa -24 + ^ x29: .cfa -32 + ^
STACK CFI 23be8 .cfa: x29 32 +
STACK CFI 23bec x19: .cfa -16 + ^
STACK CFI 23bfc x19: x19
STACK CFI 23c00 .cfa: sp 0 + .ra: .ra x29: x29
STACK CFI INIT 23c04 14 .cfa: sp 0 + .ra: x30
STACK CFI INIT 23c18 24 .cfa: sp 0 + .ra: x30
STACK CFI 23c1c .cfa: sp 32 + .ra: .cfa -24 + ^ x29: .cfa -32 + ^
STACK CFI 23c20 .cfa: x29 32 +
STACK CFI 23c24 x19: .cfa -16 + ^
STACK CFI 23c34 x19: x19
STACK CFI 23c38 .cfa: sp 0 + .ra: .ra x29: x29
STACK CFI INIT 23c3c 14 .cfa: sp 0 + .ra: x30
STACK CFI INIT 23c50 24 .cfa: sp 0 + .ra: x30
STACK CFI 23c54 .cfa: sp 32 + .ra: .cfa -24 + ^ x29: .cfa -32 + ^
STACK CFI 23c58 .cfa: x29 32 +
STACK CFI 23c5c x19: .cfa -16 + ^
STACK CFI 23c6c x19: x19
STACK CFI 23c70 .cfa: sp 0 + .ra: .ra x29: x29
STACK CFI INIT 23c74 14 .cfa: sp 0 + .ra: x30
STACK CFI INIT 23c88 24 .cfa: sp 0 + .ra: x30
STACK CFI 23c8c .cfa: sp 32 + .ra: .cfa -24 + ^ x29: .cfa -32 + ^
STACK CFI 23c90 .cfa: x29 32 +
STACK CFI 23c94 x19: .cfa -16 + ^
STACK CFI 23ca4 x19: x19
STACK CFI 23ca8 .cfa: sp 0 + .ra: .ra x29: x29
STACK CFI INIT 23cac 14 .cfa: sp 0 + .ra: x30
STACK CFI INIT 23cc0 24 .cfa: sp 0 + .ra: x30
STACK CFI 23cc4 .cfa: sp 32 + .ra: .cfa -24 + ^ x29: .cfa -32 + ^
STACK CFI 23cc8 .cfa: x29 32 +
STACK CFI 23ccc x19: .cfa -16 + ^
STACK CFI 23cdc x19: x19
STACK CFI 23ce0 .cfa: sp 0 + .ra: .ra x29: x29
STACK CFI INIT 23ce4 14 .cfa: sp 0 + .ra: x30
STACK CFI INIT 23cf8 24 .cfa: sp 0 + .ra: x30
STACK CFI 23cfc .cfa: sp 32 + .ra: .cfa -24 + ^ x29: .cfa -32 + ^
STACK CFI 23d00 .cfa: x29 32 +
STACK CFI 23d04 x19: .cfa -16 + ^
STACK CFI 23d14 x19: x19
STACK CFI 23d18 .cfa: sp 0 + .ra: .ra x29: x29
STACK CFI INIT 23d1c 14 .cfa: sp 0 + .ra: x30
STACK CFI INIT 23d30 24 .cfa: sp 0 + .ra: x30
STACK CFI 23d34 .cfa: sp 32 + .ra: .cfa -24 + ^ x29: .cfa -32 + ^
STACK CFI 23d38 .cfa: x29 32 +
STACK CFI 23d3c x19: .cfa -16 + ^
STACK CFI 23d4c x19: x19
STACK CFI 23d50 .cfa: sp 0 + .ra: .ra x29: x29
STACK CFI INIT 23d54 14 .cfa: sp 0 + .ra: x30
STACK CFI INIT 23d68 24 .cfa: sp 0 + .ra: x30
STACK CFI 23d6c .cfa: sp 32 + .ra: .cfa -24 + ^ x29: .cfa -32 + ^
STACK CFI 23d70 .cfa: x29 32 +
STACK CFI 23d74 x19: .cfa -16 + ^
STACK CFI 23d84 x19: x19
STACK CFI 23d88 .cfa: sp 0 + .ra: .ra x29: x29
STACK CFI INIT 23d8c 14 .cfa: sp 0 + .ra: x30
STACK CFI INIT 23da0 24 .cfa: sp 0 + .ra: x30
STACK CFI 23da4 .cfa: sp 32 + .ra: .cfa -24 + ^ x29: .cfa -32 + ^
STACK CFI 23da8 .cfa: x29 32 +
STACK CFI 23dac x19: .cfa -16 + ^
STACK CFI 23dbc x19: x19
STACK CFI 23dc0 .cfa: sp 0 + .ra: .ra x29: x29
STACK CFI INIT 23dc4 14 .cfa: sp 0 + .ra: x30
STACK CFI INIT 23dd8 24 .cfa: sp 0 + .ra: x30
STACK CFI 23ddc .cfa: sp 32 + .ra: .cfa -24 + ^ x29: .cfa -32 + ^
STACK CFI 23de0 .cfa: x29 32 +
STACK CFI 23de4 x19: .cfa -16 + ^
STACK CFI 23df4 x19: x19
STACK CFI 23df8 .cfa: sp 0 + .ra: .ra x29: x29
STACK CFI INIT 23dfc 14 .cfa: sp 0 + .ra: x30
STACK CFI INIT 23e10 24 .cfa: sp 0 + .ra: x30
STACK CFI 23e14 .cfa: sp 32 + .ra: .cfa -24 + ^ x29: .cfa -32 + ^
STACK CFI 23e18 .cfa: x29 32 +
STACK CFI 23e1c x19: .cfa -16 + ^
STACK CFI 23e2c x19: x19
STACK CFI 23e30 .cfa: sp 0 + .ra: .ra x29: x29
STACK CFI INIT 23e34 14 .cfa: sp 0 + .ra: x30
STACK CFI INIT 23e48 24 .cfa: sp 0 + .ra: x30
STACK CFI 23e4c .cfa: sp 32 + .ra: .cfa -24 + ^ x29: .cfa -32 + ^
STACK CFI 23e50 .cfa: x29 32 +
STACK CFI 23e54 x19: .cfa -16 + ^
STACK CFI 23e64 x19: x19
STACK CFI 23e68 .cfa: sp 0 + .ra: .ra x29: x29
STACK CFI INIT 23e6c 14 .cfa: sp 0 + .ra: x30
STACK CFI INIT 23e80 24 .cfa: sp 0 + .ra: x30
STACK CFI 23e84 .cfa: sp 32 + .ra: .cfa -24 + ^ x29: .cfa -32 + ^
STACK CFI 23e88 .cfa: x29 32 +
STACK CFI 23e8c x19: .cfa -16 + ^
STACK CFI 23e9c x19: x19
STACK CFI 23ea0 .cfa: sp 0 + .ra: .ra x29: x29
STACK CFI INIT 23ea4 14 .cfa: sp 0 + .ra: x30
STACK CFI INIT 23eb8 24 .cfa: sp 0 + .ra: x30
STACK CFI 23ebc .cfa: sp 32 + .ra: .cfa -24 + ^ x29: .cfa -32 + ^
STACK CFI 23ec0 .cfa: x29 32 +
STACK CFI 23ec4 x19: .cfa -16 + ^
STACK CFI 23ed4 x19: x19
STACK CFI 23ed8 .cfa: sp 0 + .ra: .ra x29: x29
STACK CFI INIT 23edc 14 .cfa: sp 0 + .ra: x30
STACK CFI INIT 23ef0 24 .cfa: sp 0 + .ra: x30
STACK CFI 23ef4 .cfa: sp 32 + .ra: .cfa -24 + ^ x29: .cfa -32 + ^
STACK CFI 23ef8 .cfa: x29 32 +
STACK CFI 23efc x19: .cfa -16 + ^
STACK CFI 23f0c x19: x19
STACK CFI 23f10 .cfa: sp 0 + .ra: .ra x29: x29
STACK CFI INIT 23f14 194 .cfa: sp 0 + .ra: x30
STACK CFI 23f18 .cfa: sp 208 + .ra: .cfa -200 + ^ x29: .cfa -208 + ^
STACK CFI 23f1c .cfa: x29 208 +
STACK CFI 23f20 x19: .cfa -192 + ^ x20: .cfa -184 + ^
STACK CFI 23f2c x21: .cfa -176 + ^ x22: .cfa -168 + ^
STACK CFI 2409c x19: x19 x20: x20
STACK CFI 240a0 x21: x21 x22: x22
STACK CFI 240a4 .cfa: sp 0 + .ra: .ra x29: x29
STACK CFI INIT 240a8 d4 .cfa: sp 0 + .ra: x30
STACK CFI 240ac .cfa: sp 64 + .ra: .cfa -56 + ^ x29: .cfa -64 + ^
STACK CFI 240b4 .cfa: x29 64 +
STACK CFI 240bc x19: .cfa -48 + ^ x20: .cfa -40 + ^ x21: .cfa -32 + ^ x22: .cfa -24 + ^
STACK CFI 24170 x19: x19 x20: x20
STACK CFI 24174 x21: x21 x22: x22
STACK CFI 24178 .cfa: sp 0 + .ra: .ra x29: x29
STACK CFI INIT 2417c 3c .cfa: sp 0 + .ra: x30
STACK CFI 24180 .cfa: sp 32 + .ra: .cfa -24 + ^ x29: .cfa -32 + ^
STACK CFI 24188 .cfa: x29 32 +
STACK CFI 2418c x19: .cfa -16 + ^
STACK CFI 241b0 x19: x19
STACK CFI 241b4 .cfa: sp 0 + .ra: .ra x29: x29
STACK CFI INIT 241b8 3c .cfa: sp 0 + .ra: x30
STACK CFI 241bc .cfa: sp 32 + .ra: .cfa -24 + ^ x29: .cfa -32 + ^
STACK CFI 241c4 .cfa: x29 32 +
STACK CFI 241c8 x19: .cfa -16 + ^
STACK CFI 241ec x19: x19
STACK CFI 241f0 .cfa: sp 0 + .ra: .ra x29: x29
STACK CFI INIT 241f4 3c .cfa: sp 0 + .ra: x30
STACK CFI 241f8 .cfa: sp 32 + .ra: .cfa -24 + ^ x29: .cfa -32 + ^
STACK CFI 24200 .cfa: x29 32 +
STACK CFI 24204 x19: .cfa -16 + ^
STACK CFI 24228 x19: x19
STACK CFI 2422c .cfa: sp 0 + .ra: .ra x29: x29
STACK CFI INIT 24230 3c .cfa: sp 0 + .ra: x30
STACK CFI 24234 .cfa: sp 32 + .ra: .cfa -24 + ^ x29: .cfa -32 + ^
STACK CFI 2423c .cfa: x29 32 +
STACK CFI 24240 x19: .cfa -16 + ^
STACK CFI 24264 x19: x19
STACK CFI 24268 .cfa: sp 0 + .ra: .ra x29: x29
STACK CFI INIT 2426c 3c .cfa: sp 0 + .ra: x30
STACK CFI 24270 .cfa: sp 32 + .ra: .cfa -24 + ^ x29: .cfa -32 + ^
STACK CFI 24278 .cfa: x29 32 +
STACK CFI 2427c x19: .cfa -16 + ^
STACK CFI 242a0 x19: x19
STACK CFI 242a4 .cfa: sp 0 + .ra: .ra x29: x29
STACK CFI INIT 242a8 3c .cfa: sp 0 + .ra: x30
STACK CFI 242ac .cfa: sp 32 + .ra: .cfa -24 + ^ x29: .cfa -32 + ^
STACK CFI 242b4 .cfa: x29 32 +
STACK CFI 242b8 x19: .cfa -16 + ^
STACK CFI 242dc x19: x19
STACK CFI 242e0 .cfa: sp 0 + .ra: .ra x29: x29
STACK CFI INIT 242e4 3c .cfa: sp 0 + .ra: x30
STACK CFI 242e8 .cfa: sp 32 + .ra: .cfa -24 + ^ x29: .cfa -32 + ^
STACK CFI 242f0 .cfa: x29 32 +
STACK CFI 242f4 x19: .cfa -16 + ^
STACK CFI 24318 x19: x19
STACK CFI 2431c .cfa: sp 0 + .ra: .ra x29: x29
STACK CFI INIT 24320 3c .cfa: sp 0 + .ra: x30
STACK CFI 24324 .cfa: sp 32 + .ra: .cfa -24 + ^ x29: .cfa -32 + ^
STACK CFI 2432c .cfa: x29 32 +
STACK CFI 24330 x19: .cfa -16 + ^
STACK CFI 24354 x19: x19
STACK CFI 24358 .cfa: sp 0 + .ra: .ra x29: x29
STACK CFI INIT 2435c 3c .cfa: sp 0 + .ra: x30
STACK CFI 24360 .cfa: sp 32 + .ra: .cfa -24 + ^ x29: .cfa -32 + ^
STACK CFI 24368 .cfa: x29 32 +
STACK CFI 2436c x19: .cfa -16 + ^
STACK CFI 24390 x19: x19
STACK CFI 24394 .cfa: sp 0 + .ra: .ra x29: x29
STACK CFI INIT 24398 3c .cfa: sp 0 + .ra: x30
STACK CFI 2439c .cfa: sp 32 + .ra: .cfa -24 + ^ x29: .cfa -32 + ^
STACK CFI 243a4 .cfa: x29 32 +
STACK CFI 243a8 x19: .cfa -16 + ^
STACK CFI 243cc x19: x19
STACK CFI 243d0 .cfa: sp 0 + .ra: .ra x29: x29
STACK CFI INIT 243d4 3c .cfa: sp 0 + .ra: x30
STACK CFI 243d8 .cfa: sp 32 + .ra: .cfa -24 + ^ x29: .cfa -32 + ^
STACK CFI 243e0 .cfa: x29 32 +
STACK CFI 243e4 x19: .cfa -16 + ^
STACK CFI 24408 x19: x19
STACK CFI 2440c .cfa: sp 0 + .ra: .ra x29: x29
STACK CFI INIT 24410 3c .cfa: sp 0 + .ra: x30
STACK CFI 24414 .cfa: sp 32 + .ra: .cfa -24 + ^ x29: .cfa -32 + ^
STACK CFI 2441c .cfa: x29 32 +
STACK CFI 24420 x19: .cfa -16 + ^
STACK CFI 24444 x19: x19
STACK CFI 24448 .cfa: sp 0 + .ra: .ra x29: x29
STACK CFI INIT 2444c 3c .cfa: sp 0 + .ra: x30
STACK CFI 24450 .cfa: sp 32 + .ra: .cfa -24 + ^ x29: .cfa -32 + ^
STACK CFI 24458 .cfa: x29 32 +
STACK CFI 2445c x19: .cfa -16 + ^
STACK CFI 24480 x19: x19
STACK CFI 24484 .cfa: sp 0 + .ra: .ra x29: x29
STACK CFI INIT 24488 3c .cfa: sp 0 + .ra: x30
STACK CFI 2448c .cfa: sp 32 + .ra: .cfa -24 + ^ x29: .cfa -32 + ^
STACK CFI 24494 .cfa: x29 32 +
STACK CFI 24498 x19: .cfa -16 + ^
STACK CFI 244bc x19: x19
STACK CFI 244c0 .cfa: sp 0 + .ra: .ra x29: x29
STACK CFI INIT 244c4 3c .cfa: sp 0 + .ra: x30
STACK CFI 244c8 .cfa: sp 32 + .ra: .cfa -24 + ^ x29: .cfa -32 + ^
STACK CFI 244d0 .cfa: x29 32 +
STACK CFI 244d4 x19: .cfa -16 + ^
STACK CFI 244f8 x19: x19
STACK CFI 244fc .cfa: sp 0 + .ra: .ra x29: x29
STACK CFI INIT 24500 3c .cfa: sp 0 + .ra: x30
STACK CFI 24504 .cfa: sp 32 + .ra: .cfa -24 + ^ x29: .cfa -32 + ^
STACK CFI 2450c .cfa: x29 32 +
STACK CFI 24510 x19: .cfa -16 + ^
STACK CFI 24534 x19: x19
STACK CFI 24538 .cfa: sp 0 + .ra: .ra x29: x29
STACK CFI INIT 2453c 3c .cfa: sp 0 + .ra: x30
STACK CFI 24540 .cfa: sp 32 + .ra: .cfa -24 + ^ x29: .cfa -32 + ^
STACK CFI 24548 .cfa: x29 32 +
STACK CFI 2454c x19: .cfa -16 + ^
STACK CFI 24570 x19: x19
STACK CFI 24574 .cfa: sp 0 + .ra: .ra x29: x29
STACK CFI INIT 24578 3c .cfa: sp 0 + .ra: x30
STACK CFI 2457c .cfa: sp 32 + .ra: .cfa -24 + ^ x29: .cfa -32 + ^
STACK CFI 24584 .cfa: x29 32 +
STACK CFI 24588 x19: .cfa -16 + ^
STACK CFI 245ac x19: x19
STACK CFI 245b0 .cfa: sp 0 + .ra: .ra x29: x29
STACK CFI INIT 245b4 3c .cfa: sp 0 + .ra: x30
STACK CFI 245b8 .cfa: sp 32 + .ra: .cfa -24 + ^ x29: .cfa -32 + ^
STACK CFI 245c0 .cfa: x29 32 +
STACK CFI 245c4 x19: .cfa -16 + ^
STACK CFI 245e8 x19: x19
STACK CFI 245ec .cfa: sp 0 + .ra: .ra x29: x29
STACK CFI INIT 245f0 3c .cfa: sp 0 + .ra: x30
STACK CFI 245f4 .cfa: sp 32 + .ra: .cfa -24 + ^ x29: .cfa -32 + ^
STACK CFI 245fc .cfa: x29 32 +
STACK CFI 24600 x19: .cfa -16 + ^
STACK CFI 24624 x19: x19
STACK CFI 24628 .cfa: sp 0 + .ra: .ra x29: x29
STACK CFI INIT 2462c 3c .cfa: sp 0 + .ra: x30
STACK CFI 24630 .cfa: sp 32 + .ra: .cfa -24 + ^ x29: .cfa -32 + ^
STACK CFI 24638 .cfa: x29 32 +
STACK CFI 2463c x19: .cfa -16 + ^
STACK CFI 24660 x19: x19
STACK CFI 24664 .cfa: sp 0 + .ra: .ra x29: x29
STACK CFI INIT 24668 3c .cfa: sp 0 + .ra: x30
STACK CFI 2466c .cfa: sp 32 + .ra: .cfa -24 + ^ x29: .cfa -32 + ^
STACK CFI 24674 .cfa: x29 32 +
STACK CFI 24678 x19: .cfa -16 + ^
STACK CFI 2469c x19: x19
STACK CFI 246a0 .cfa: sp 0 + .ra: .ra x29: x29
STACK CFI INIT 246a4 3c .cfa: sp 0 + .ra: x30
STACK CFI 246a8 .cfa: sp 32 + .ra: .cfa -24 + ^ x29: .cfa -32 + ^
STACK CFI 246b0 .cfa: x29 32 +
STACK CFI 246b4 x19: .cfa -16 + ^
STACK CFI 246d8 x19: x19
STACK CFI 246dc .cfa: sp 0 + .ra: .ra x29: x29
STACK CFI INIT 246e0 3c .cfa: sp 0 + .ra: x30
STACK CFI 246e4 .cfa: sp 32 + .ra: .cfa -24 + ^ x29: .cfa -32 + ^
STACK CFI 246ec .cfa: x29 32 +
STACK CFI 246f0 x19: .cfa -16 + ^
STACK CFI 24714 x19: x19
STACK CFI 24718 .cfa: sp 0 + .ra: .ra x29: x29
STACK CFI INIT 2471c 3c .cfa: sp 0 + .ra: x30
STACK CFI 24720 .cfa: sp 32 + .ra: .cfa -24 + ^ x29: .cfa -32 + ^
STACK CFI 24728 .cfa: x29 32 +
STACK CFI 2472c x19: .cfa -16 + ^
STACK CFI 24750 x19: x19
STACK CFI 24754 .cfa: sp 0 + .ra: .ra x29: x29
STACK CFI INIT 24758 3c .cfa: sp 0 + .ra: x30
STACK CFI 2475c .cfa: sp 32 + .ra: .cfa -24 + ^ x29: .cfa -32 + ^
STACK CFI 24764 .cfa: x29 32 +
STACK CFI 24768 x19: .cfa -16 + ^
STACK CFI 2478c x19: x19
STACK CFI 24790 .cfa: sp 0 + .ra: .ra x29: x29
STACK CFI INIT 24794 b0 .cfa: sp 0 + .ra: x30
STACK CFI 24798 .cfa: sp 64 + .ra: .cfa -56 + ^ x29: .cfa -64 + ^
STACK CFI 2479c .cfa: x29 64 +
STACK CFI 247a8 x19: .cfa -48 + ^ x20: .cfa -40 + ^ x21: .cfa -32 + ^ x22: .cfa -24 + ^ x23: .cfa -16 + ^
STACK CFI 24834 x23: x23
STACK CFI 24838 x19: x19 x20: x20
STACK CFI 2483c x21: x21 x22: x22
STACK CFI 24840 .cfa: sp 0 + .ra: .ra x29: x29
STACK CFI INIT 24844 40 .cfa: sp 0 + .ra: x30
STACK CFI 24848 .cfa: sp 32 + .ra: .cfa -24 + ^ x29: .cfa -32 + ^
STACK CFI 24854 .cfa: x29 32 +
STACK CFI 24858 x19: .cfa -16 + ^
STACK CFI 2487c x19: x19
STACK CFI 24880 .cfa: sp 0 + .ra: .ra x29: x29
STACK CFI INIT 24884 1c .cfa: sp 0 + .ra: x30
STACK CFI INIT 248a0 48 .cfa: sp 0 + .ra: x30
STACK CFI 248a4 .cfa: sp 32 + .ra: .cfa -24 + ^ x29: .cfa -32 + ^
STACK CFI 248a8 .cfa: x29 32 +
STACK CFI 248ac x19: .cfa -16 + ^
STACK CFI 248e0 x19: x19
STACK CFI 248e4 .cfa: sp 0 + .ra: .ra x29: x29
STACK CFI INIT 248e8 30 .cfa: sp 0 + .ra: x30
STACK CFI INIT 24918 28 .cfa: sp 0 + .ra: x30
STACK CFI 2491c .cfa: sp 32 + .ra: .cfa -24 + ^ x29: .cfa -32 + ^
STACK CFI 24920 .cfa: x29 32 +
STACK CFI 24924 x19: .cfa -16 + ^
STACK CFI 24938 x19: x19
STACK CFI 2493c .cfa: sp 0 + .ra: .ra x29: x29
STACK CFI INIT 24940 34 .cfa: sp 0 + .ra: x30
STACK CFI 24948 .cfa: sp 32 + .ra: .cfa -24 + ^ x29: .cfa -32 + ^
STACK CFI 2494c .cfa: x29 32 +
STACK CFI 24954 x19: .cfa -16 + ^
STACK CFI 2496c x19: x19
STACK CFI 24970 .cfa: sp 0 + .ra: .ra x29: x29
STACK CFI INIT 24974 24 .cfa: sp 0 + .ra: x30
STACK CFI 24978 .cfa: sp 32 + .ra: .cfa -24 + ^ x29: .cfa -32 + ^
STACK CFI 2497c .cfa: x29 32 +
STACK CFI 24980 x19: .cfa -16 + ^
STACK CFI 24990 x19: x19
STACK CFI 24994 .cfa: sp 0 + .ra: .ra x29: x29
STACK CFI INIT 24998 60 .cfa: sp 0 + .ra: x30
STACK CFI 2499c .cfa: sp 48 + .ra: .cfa -40 + ^ x29: .cfa -48 + ^
STACK CFI 249a0 .cfa: x29 48 +
STACK CFI 249a8 x19: .cfa -32 + ^ x20: .cfa -24 + ^ x21: .cfa -16 + ^
STACK CFI 249ec x19: x19 x20: x20
STACK CFI 249f0 x21: x21
STACK CFI 249f4 .cfa: sp 0 + .ra: .ra x29: x29
STACK CFI INIT 249f8 8 .cfa: sp 0 + .ra: x30
STACK CFI INIT 24a00 fc .cfa: sp 0 + .ra: x30
STACK CFI 24a04 .cfa: sp 96 + .ra: .cfa -88 + ^ x29: .cfa -96 + ^
STACK CFI 24a0c .cfa: x29 96 +
STACK CFI 24a18 x19: .cfa -80 + ^ x20: .cfa -72 + ^ x21: .cfa -64 + ^ x22: .cfa -56 + ^ x23: .cfa -48 + ^ x24: .cfa -40 + ^
STACK CFI 24aec x21: x21 x22: x22
STACK CFI 24af0 x19: x19 x20: x20
STACK CFI 24af4 x23: x23 x24: x24
STACK CFI 24af8 .cfa: sp 0 + .ra: .ra x29: x29
STACK CFI INIT 24afc b4 .cfa: sp 0 + .ra: x30
STACK CFI 24b00 .cfa: sp 48 + .ra: .cfa -40 + ^ x29: .cfa -48 + ^
STACK CFI 24b04 .cfa: x29 48 +
STACK CFI 24b08 x19: .cfa -32 + ^ x20: .cfa -24 + ^
STACK CFI 24b18 x21: .cfa -16 + ^
STACK CFI 24ba4 x21: x21
STACK CFI 24ba8 x19: x19 x20: x20
STACK CFI 24bac .cfa: sp 0 + .ra: .ra x29: x29
STACK CFI INIT 24bb0 b0 .cfa: sp 0 + .ra: x30
STACK CFI 24bb4 .cfa: sp 48 + .ra: .cfa -40 + ^ x29: .cfa -48 + ^
STACK CFI 24bb8 .cfa: x29 48 +
STACK CFI 24bc0 x19: .cfa -32 + ^ x20: .cfa -24 + ^ x21: .cfa -16 + ^
STACK CFI 24c40 x21: x21
STACK CFI 24c58 x19: x19 x20: x20
STACK CFI 24c5c .cfa: sp 0 + .ra: .ra x29: x29
STACK CFI INIT 24c60 98 .cfa: sp 0 + .ra: x30
STACK CFI 24c64 .cfa: sp 64 + .ra: .cfa -56 + ^ x29: .cfa -64 + ^
STACK CFI 24c68 .cfa: x29 64 +
STACK CFI 24c70 x19: .cfa -48 + ^ x20: .cfa -40 + ^ x21: .cfa -32 + ^
STACK CFI 24cec x19: x19 x20: x20
STACK CFI 24cf0 x21: x21
STACK CFI 24cf4 .cfa: sp 0 + .ra: .ra x29: x29
STACK CFI INIT 24cf8 1c .cfa: sp 0 + .ra: x30
STACK CFI 24cfc .cfa: sp 16 + .ra: .cfa -8 + ^ x29: .cfa -16 + ^
STACK CFI 24d00 .cfa: x29 16 +
STACK CFI 24d10 .cfa: sp 0 + .ra: .ra x29: x29
STACK CFI INIT 24d14 3c .cfa: sp 0 + .ra: x30
STACK CFI 24d18 .cfa: sp 16 + .ra: .cfa -8 + ^ x29: .cfa -16 + ^
STACK CFI 24d1c .cfa: x29 16 +
STACK CFI 24d4c .cfa: sp 0 + .ra: .ra x29: x29
STACK CFI INIT 24d50 60 .cfa: sp 0 + .ra: x30
STACK CFI 24d54 .cfa: sp 32 + .ra: .cfa -24 + ^ x29: .cfa -32 + ^
STACK CFI 24d60 .cfa: x29 32 +
STACK CFI 24d64 x19: .cfa -16 + ^ x20: .cfa -8 + ^
STACK CFI 24da8 x19: x19 x20: x20
STACK CFI 24dac .cfa: sp 0 + .ra: .ra x29: x29
STACK CFI INIT 24db0 68 .cfa: sp 0 + .ra: x30
STACK CFI 24db4 .cfa: sp 48 + .ra: .cfa -40 + ^ x29: .cfa -48 + ^
STACK CFI 24db8 .cfa: x29 48 +
STACK CFI 24dbc x19: .cfa -32 + ^
STACK CFI 24e10 x19: x19
STACK CFI 24e14 .cfa: sp 0 + .ra: .ra x29: x29
STACK CFI INIT 24e18 34 .cfa: sp 0 + .ra: x30
STACK CFI 24e1c .cfa: sp 32 + .ra: .cfa -24 + ^ x29: .cfa -32 + ^
STACK CFI 24e24 .cfa: x29 32 +
STACK CFI 24e28 x19: .cfa -16 + ^
STACK CFI 24e44 x19: x19
STACK CFI 24e48 .cfa: sp 0 + .ra: .ra x29: x29
STACK CFI INIT 24e4c 50 .cfa: sp 0 + .ra: x30
STACK CFI 24e50 .cfa: sp 48 + .ra: .cfa -40 + ^ x29: .cfa -48 + ^
STACK CFI 24e54 .cfa: x29 48 +
STACK CFI 24e58 x19: .cfa -32 + ^ x20: .cfa -24 + ^
STACK CFI 24e94 x19: x19 x20: x20
STACK CFI 24e98 .cfa: sp 0 + .ra: .ra x29: x29
STACK CFI INIT 24e9c bc .cfa: sp 0 + .ra: x30
STACK CFI 24ea0 .cfa: sp 64 + .ra: .cfa -56 + ^ x29: .cfa -64 + ^
STACK CFI 24ea4 .cfa: x29 64 +
STACK CFI 24eac x19: .cfa -48 + ^ x20: .cfa -40 + ^ x21: .cfa -32 + ^
STACK CFI 24f4c x21: x21
STACK CFI 24f50 x19: x19 x20: x20
STACK CFI 24f54 .cfa: sp 0 + .ra: .ra x29: x29
STACK CFI INIT 24f58 e8 .cfa: sp 0 + .ra: x30
STACK CFI 24f5c .cfa: sp 64 + .ra: .cfa -56 + ^ x29: .cfa -64 + ^
STACK CFI 24f60 .cfa: x29 64 +
STACK CFI 24f64 x21: .cfa -32 + ^ x22: .cfa -24 + ^
STACK CFI 24f70 x19: .cfa -48 + ^ x20: .cfa -40 + ^
STACK CFI 25034 x19: x19 x20: x20
STACK CFI 25038 x21: x21 x22: x22
STACK CFI 2503c .cfa: sp 0 + .ra: .ra x29: x29
STACK CFI INIT 25040 64 .cfa: sp 0 + .ra: x30
STACK CFI 25044 .cfa: sp 48 + .ra: .cfa -40 + ^ x29: .cfa -48 + ^
STACK CFI 25048 .cfa: x29 48 +
STACK CFI 2504c x19: .cfa -32 + ^ x20: .cfa -24 + ^
STACK CFI 25058 x21: .cfa -16 + ^
STACK CFI 25098 x19: x19 x20: x20
STACK CFI 2509c x21: x21
STACK CFI 250a0 .cfa: sp 0 + .ra: .ra x29: x29
STACK CFI INIT 250a4 58 .cfa: sp 0 + .ra: x30
STACK CFI 250a8 .cfa: sp 48 + .ra: .cfa -40 + ^ x29: .cfa -48 + ^
STACK CFI 250ac .cfa: x29 48 +
STACK CFI 250b0 x19: .cfa -32 + ^ x20: .cfa -24 + ^
STACK CFI 250b8 x21: .cfa -16 + ^
STACK CFI 250f0 x19: x19 x20: x20
STACK CFI 250f4 x21: x21
STACK CFI 250f8 .cfa: sp 0 + .ra: .ra x29: x29
STACK CFI INIT 250fc 4c .cfa: sp 0 + .ra: x30
STACK CFI 25100 .cfa: sp 48 + .ra: .cfa -40 + ^ x29: .cfa -48 + ^
STACK CFI 25104 .cfa: x29 48 +
STACK CFI 25108 x19: .cfa -32 + ^
STACK CFI 25140 x19: x19
STACK CFI 25144 .cfa: sp 0 + .ra: .ra x29: x29
STACK CFI INIT 25148 7c .cfa: sp 0 + .ra: x30
STACK CFI 2514c .cfa: sp 384 + .ra: .cfa -376 + ^ x29: .cfa -384 + ^
STACK CFI 25150 .cfa: x29 384 +
STACK CFI 25154 x19: .cfa -368 + ^ x20: .cfa -360 + ^
STACK CFI 2515c x21: .cfa -352 + ^
STACK CFI 251b8 x21: x21
STACK CFI 251bc x19: x19 x20: x20
STACK CFI 251c0 .cfa: sp 0 + .ra: .ra x29: x29
STACK CFI INIT 251c4 2c .cfa: sp 0 + .ra: x30
STACK CFI 251c8 .cfa: sp 32 + .ra: .cfa -24 + ^ x29: .cfa -32 + ^
STACK CFI 251cc .cfa: x29 32 +
STACK CFI 251d0 x19: .cfa -16 + ^
STACK CFI 251e8 x19: x19
STACK CFI 251ec .cfa: sp 0 + .ra: .ra x29: x29
STACK CFI INIT 251f0 8c .cfa: sp 0 + .ra: x30
STACK CFI 251f4 .cfa: sp 48 + .ra: .cfa -40 + ^ x29: .cfa -48 + ^
STACK CFI 251f8 .cfa: x29 48 +
STACK CFI 251fc x19: .cfa -32 + ^
STACK CFI 25268 x19: x19
STACK CFI 2526c .cfa: sp 0 + .ra: .ra x29: x29
STACK CFI 25270 .cfa: x29 48 + .ra: .cfa -40 + ^ x19: .cfa -32 + ^ x29: .cfa -48 + ^
STACK CFI 25274 x19: x19
STACK CFI 25278 .cfa: sp 0 + .ra: .ra x29: x29
STACK CFI INIT 2527c c .cfa: sp 0 + .ra: x30
STACK CFI INIT 25288 10 .cfa: sp 0 + .ra: x30
STACK CFI INIT 25298 24 .cfa: sp 0 + .ra: x30
STACK CFI 2529c .cfa: sp 32 + .ra: .cfa -24 + ^ x29: .cfa -32 + ^
STACK CFI 252a0 .cfa: x29 32 +
STACK CFI 252a4 x19: .cfa -16 + ^
STACK CFI 252b4 x19: x19
STACK CFI 252b8 .cfa: sp 0 + .ra: .ra x29: x29
STACK CFI INIT 252bc 10 .cfa: sp 0 + .ra: x30
STACK CFI INIT 252cc c .cfa: sp 0 + .ra: x30
STACK CFI INIT 252d8 8c .cfa: sp 0 + .ra: x30
STACK CFI 252dc .cfa: sp 48 + .ra: .cfa -40 + ^ x29: .cfa -48 + ^
STACK CFI 252e0 .cfa: x29 48 +
STACK CFI 252e4 x19: .cfa -32 + ^
STACK CFI 25350 x19: x19
STACK CFI 25354 .cfa: sp 0 + .ra: .ra x29: x29
STACK CFI 25358 .cfa: x29 48 + .ra: .cfa -40 + ^ x19: .cfa -32 + ^ x29: .cfa -48 + ^
STACK CFI 2535c x19: x19
STACK CFI 25360 .cfa: sp 0 + .ra: .ra x29: x29
STACK CFI INIT 25364 c .cfa: sp 0 + .ra: x30
STACK CFI INIT 25370 10 .cfa: sp 0 + .ra: x30
STACK CFI INIT 25380 24 .cfa: sp 0 + .ra: x30
STACK CFI 25384 .cfa: sp 32 + .ra: .cfa -24 + ^ x29: .cfa -32 + ^
STACK CFI 25388 .cfa: x29 32 +
STACK CFI 2538c x19: .cfa -16 + ^
STACK CFI 2539c x19: x19
STACK CFI 253a0 .cfa: sp 0 + .ra: .ra x29: x29
STACK CFI INIT 253a4 10 .cfa: sp 0 + .ra: x30
STACK CFI INIT 253b4 c .cfa: sp 0 + .ra: x30
STACK CFI INIT 253c0 e0 .cfa: sp 0 + .ra: x30
STACK CFI 253c4 .cfa: sp 48 + .ra: .cfa -40 + ^ x29: .cfa -48 + ^
STACK CFI 253c8 .cfa: x29 48 +
STACK CFI 253cc x19: .cfa -32 + ^ x20: .cfa -24 + ^
STACK CFI 2548c x19: x19 x20: x20
STACK CFI 25490 .cfa: sp 0 + .ra: .ra x29: x29
STACK CFI 25494 .cfa: x29 48 + .ra: .cfa -40 + ^ x19: .cfa -32 + ^ x20: .cfa -24 + ^ x29: .cfa -48 + ^
STACK CFI 25498 x19: x19 x20: x20
STACK CFI 2549c .cfa: sp 0 + .ra: .ra x29: x29
STACK CFI INIT 254a0 c .cfa: sp 0 + .ra: x30
STACK CFI INIT 254ac cc .cfa: sp 0 + .ra: x30
STACK CFI 254b0 .cfa: sp 48 + .ra: .cfa -40 + ^ x29: .cfa -48 + ^
STACK CFI 254b4 .cfa: x29 48 +
STACK CFI 254b8 x19: .cfa -32 + ^ x20: .cfa -24 + ^
STACK CFI 25564 x19: x19 x20: x20
STACK CFI 25568 .cfa: sp 0 + .ra: .ra x29: x29
STACK CFI 2556c .cfa: x29 48 + .ra: .cfa -40 + ^ x19: .cfa -32 + ^ x20: .cfa -24 + ^ x29: .cfa -48 + ^
STACK CFI 25570 x19: x19 x20: x20
STACK CFI 25574 .cfa: sp 0 + .ra: .ra x29: x29
STACK CFI INIT 25578 c .cfa: sp 0 + .ra: x30
STACK CFI INIT 25584 c .cfa: sp 0 + .ra: x30
STACK CFI INIT 25590 8 .cfa: sp 0 + .ra: x30
STACK CFI INIT 25598 10 .cfa: sp 0 + .ra: x30
STACK CFI INIT 255a8 24 .cfa: sp 0 + .ra: x30
STACK CFI 255ac .cfa: sp 32 + .ra: .cfa -24 + ^ x29: .cfa -32 + ^
STACK CFI 255b0 .cfa: x29 32 +
STACK CFI 255b4 x19: .cfa -16 + ^
STACK CFI 255c4 x19: x19
STACK CFI 255c8 .cfa: sp 0 + .ra: .ra x29: x29
STACK CFI INIT 255cc 8 .cfa: sp 0 + .ra: x30
STACK CFI INIT 255d4 10 .cfa: sp 0 + .ra: x30
STACK CFI INIT 255e4 c .cfa: sp 0 + .ra: x30
STACK CFI INIT 255f0 8 .cfa: sp 0 + .ra: x30
STACK CFI INIT 255f8 10 .cfa: sp 0 + .ra: x30
STACK CFI INIT 25608 24 .cfa: sp 0 + .ra: x30
STACK CFI 2560c .cfa: sp 32 + .ra: .cfa -24 + ^ x29: .cfa -32 + ^
STACK CFI 25610 .cfa: x29 32 +
STACK CFI 25614 x19: .cfa -16 + ^
STACK CFI 25624 x19: x19
STACK CFI 25628 .cfa: sp 0 + .ra: .ra x29: x29
STACK CFI INIT 2562c 8 .cfa: sp 0 + .ra: x30
STACK CFI INIT 25634 10 .cfa: sp 0 + .ra: x30
STACK CFI INIT 25644 5c .cfa: sp 0 + .ra: x30
STACK CFI 25648 .cfa: sp 32 + .ra: .cfa -24 + ^ x29: .cfa -32 + ^
STACK CFI 2564c .cfa: x29 32 +
STACK CFI 25650 x19: .cfa -16 + ^
STACK CFI 25698 x19: x19
STACK CFI 2569c .cfa: sp 0 + .ra: .ra x29: x29
STACK CFI INIT 256a0 78 .cfa: sp 0 + .ra: x30
STACK CFI 256a4 .cfa: sp 32 + .ra: .cfa -24 + ^ x29: .cfa -32 + ^
STACK CFI 256ac .cfa: x29 32 +
STACK CFI 256b0 x19: .cfa -16 + ^
STACK CFI 25710 x19: x19
STACK CFI 25714 .cfa: sp 0 + .ra: .ra x29: x29
STACK CFI INIT 25718 50 .cfa: sp 0 + .ra: x30
STACK CFI 2571c .cfa: sp 32 + .ra: .cfa -24 + ^ x29: .cfa -32 + ^
STACK CFI 25720 .cfa: x29 32 +
STACK CFI 25724 x19: .cfa -16 + ^
STACK CFI 25754 x19: x19
STACK CFI 25758 .cfa: sp 0 + .ra: .ra x29: x29
STACK CFI 2575c .cfa: x29 32 + .ra: .cfa -24 + ^ x19: .cfa -16 + ^ x29: .cfa -32 + ^
STACK CFI 25760 x19: x19
STACK CFI 25764 .cfa: sp 0 + .ra: .ra x29: x29
STACK CFI INIT 25768 13c .cfa: sp 0 + .ra: x30
STACK CFI 2576c .cfa: sp 64 + .ra: .cfa -56 + ^ x29: .cfa -64 + ^
STACK CFI 25770 .cfa: x29 64 +
STACK CFI 25778 x19: .cfa -48 + ^ x20: .cfa -40 + ^ x21: .cfa -32 + ^ x22: .cfa -24 + ^
STACK CFI 25898 x19: x19 x20: x20
STACK CFI 2589c x21: x21 x22: x22
STACK CFI 258a0 .cfa: sp 0 + .ra: .ra x29: x29
STACK CFI INIT 258a4 c0 .cfa: sp 0 + .ra: x30
STACK CFI 258a8 .cfa: sp 80 + .ra: .cfa -72 + ^ x29: .cfa -80 + ^
STACK CFI 258ac .cfa: x29 80 +
STACK CFI 258b4 x19: .cfa -64 + ^ x20: .cfa -56 + ^ x21: .cfa -48 + ^
STACK CFI 25954 x21: x21
STACK CFI 2595c x19: x19 x20: x20
STACK CFI 25960 .cfa: sp 0 + .ra: .ra x29: x29
STACK CFI INIT 25964 104 .cfa: sp 0 + .ra: x30
STACK CFI 25968 .cfa: sp 80 + .ra: .cfa -72 + ^ x29: .cfa -80 + ^
STACK CFI 2596c .cfa: x29 80 +
STACK CFI 25978 x19: .cfa -64 + ^ x20: .cfa -56 + ^ x21: .cfa -48 + ^ x22: .cfa -40 + ^ x23: .cfa -32 + ^ x24: .cfa -24 + ^
STACK CFI 25a58 x19: x19 x20: x20
STACK CFI 25a5c x21: x21 x22: x22
STACK CFI 25a60 x23: x23 x24: x24
STACK CFI 25a64 .cfa: sp 0 + .ra: .ra x29: x29
STACK CFI INIT 25a68 c0 .cfa: sp 0 + .ra: x30
STACK CFI 25a6c .cfa: sp 80 + .ra: .cfa -72 + ^ x29: .cfa -80 + ^
STACK CFI 25a70 .cfa: x29 80 +
STACK CFI 25a78 x19: .cfa -64 + ^ x20: .cfa -56 + ^ x21: .cfa -48 + ^
STACK CFI 25b18 x21: x21
STACK CFI 25b20 x19: x19 x20: x20
STACK CFI 25b24 .cfa: sp 0 + .ra: .ra x29: x29
STACK CFI INIT 25b28 2c .cfa: sp 0 + .ra: x30
STACK CFI INIT 25b54 5c .cfa: sp 0 + .ra: x30
STACK CFI 25b58 .cfa: sp 16 + .ra: .cfa -8 + ^ x29: .cfa -16 + ^
STACK CFI 25b5c .cfa: x29 16 +
STACK CFI 25bac .cfa: sp 0 + .ra: .ra x29: x29
STACK CFI INIT 25bb0 164 .cfa: sp 0 + .ra: x30
STACK CFI 25bb4 .cfa: sp 80 + .ra: .cfa -72 + ^ x29: .cfa -80 + ^
STACK CFI 25bbc .cfa: x29 80 +
STACK CFI 25bc8 x19: .cfa -64 + ^ x20: .cfa -56 + ^ x21: .cfa -48 + ^ x22: .cfa -40 + ^ x23: .cfa -32 + ^
STACK CFI 25d04 x23: x23
STACK CFI 25d08 x19: x19 x20: x20
STACK CFI 25d0c x21: x21 x22: x22
STACK CFI 25d10 .cfa: sp 0 + .ra: .ra x29: x29
STACK CFI INIT 25d14 90 .cfa: sp 0 + .ra: x30
STACK CFI 25d18 .cfa: sp 48 + .ra: .cfa -40 + ^ x29: .cfa -48 + ^
STACK CFI 25d1c .cfa: x29 48 +
STACK CFI 25d20 x19: .cfa -32 + ^ x20: .cfa -24 + ^
STACK CFI 25d2c x21: .cfa -16 + ^ x22: .cfa -8 + ^
STACK CFI 25d98 x19: x19 x20: x20
STACK CFI 25d9c x21: x21 x22: x22
STACK CFI 25da0 .cfa: sp 0 + .ra: .ra x29: x29
STACK CFI INIT 25da4 234 .cfa: sp 0 + .ra: x30
STACK CFI 25da8 .cfa: sp 272 + .ra: .cfa -264 + ^ x29: .cfa -272 + ^
STACK CFI 25dac .cfa: x29 272 +
STACK CFI 25db0 x21: .cfa -240 + ^ x22: .cfa -232 + ^
STACK CFI 25dc0 x19: .cfa -256 + ^ x20: .cfa -248 + ^ x23: .cfa -224 + ^ x24: .cfa -216 + ^
STACK CFI 25dcc x25: .cfa -208 + ^ x26: .cfa -200 + ^
STACK CFI 25fc4 x19: x19 x20: x20
STACK CFI 25fc8 x21: x21 x22: x22
STACK CFI 25fcc x23: x23 x24: x24
STACK CFI 25fd0 x25: x25 x26: x26
STACK CFI 25fd4 .cfa: sp 0 + .ra: .ra x29: x29
STACK CFI INIT 25fd8 34 .cfa: sp 0 + .ra: x30
STACK CFI 25fdc .cfa: sp 48 + .ra: .cfa -40 + ^ x29: .cfa -48 + ^
STACK CFI 25fe0 .cfa: x29 48 +
STACK CFI 25fe4 x19: .cfa -32 + ^
STACK CFI 26004 x19: x19
STACK CFI 26008 .cfa: sp 0 + .ra: .ra x29: x29
STACK CFI INIT 2600c 24 .cfa: sp 0 + .ra: x30
STACK CFI 26018 .cfa: sp 16 + .ra: .cfa -8 + ^ x29: .cfa -16 + ^
STACK CFI 2601c .cfa: x29 16 +
STACK CFI 2602c .cfa: sp 0 + .ra: .ra x29: x29
STACK CFI INIT 26030 98 .cfa: sp 0 + .ra: x30
STACK CFI 26034 .cfa: sp 128 + .ra: .cfa -120 + ^ x29: .cfa -128 + ^
STACK CFI 26038 .cfa: x29 128 +
STACK CFI 26044 x19: .cfa -112 + ^ x20: .cfa -104 + ^ x21: .cfa -96 + ^ x22: .cfa -88 + ^ x23: .cfa -80 + ^
STACK CFI 260b8 x23: x23
STACK CFI 260bc x19: x19 x20: x20
STACK CFI 260c0 x21: x21 x22: x22
STACK CFI 260c4 .cfa: sp 0 + .ra: .ra x29: x29
STACK CFI INIT 260c8 c0 .cfa: sp 0 + .ra: x30
STACK CFI 260cc .cfa: sp 80 + .ra: .cfa -72 + ^ x29: .cfa -80 + ^
STACK CFI 260d0 .cfa: x29 80 +
STACK CFI 260d8 x19: .cfa -64 + ^ x20: .cfa -56 + ^ x21: .cfa -48 + ^
STACK CFI 26178 x21: x21
STACK CFI 26180 x19: x19 x20: x20
STACK CFI 26184 .cfa: sp 0 + .ra: .ra x29: x29
STACK CFI INIT 26188 54 .cfa: sp 0 + .ra: x30
STACK CFI 2618c .cfa: sp 64 + .ra: .cfa -56 + ^ x29: .cfa -64 + ^
STACK CFI 26190 .cfa: x29 64 +
STACK CFI 26194 x19: .cfa -48 + ^ x20: .cfa -40 + ^
STACK CFI 261d4 x19: x19 x20: x20
STACK CFI 261d8 .cfa: sp 0 + .ra: .ra x29: x29
STACK CFI INIT 261dc 64 .cfa: sp 0 + .ra: x30
STACK CFI 261e0 .cfa: sp 64 + .ra: .cfa -56 + ^ x29: .cfa -64 + ^
STACK CFI 261e4 .cfa: x29 64 +
STACK CFI 261e8 x19: .cfa -48 + ^ x20: .cfa -40 + ^
STACK CFI 26238 x19: x19 x20: x20
STACK CFI 2623c .cfa: sp 0 + .ra: .ra x29: x29
STACK CFI INIT 26240 54 .cfa: sp 0 + .ra: x30
STACK CFI 26244 .cfa: sp 64 + .ra: .cfa -56 + ^ x29: .cfa -64 + ^
STACK CFI 26248 .cfa: x29 64 +
STACK CFI 2624c x19: .cfa -48 + ^ x20: .cfa -40 + ^
STACK CFI 2628c x19: x19 x20: x20
STACK CFI 26290 .cfa: sp 0 + .ra: .ra x29: x29
STACK CFI INIT 26294 54 .cfa: sp 0 + .ra: x30
STACK CFI 26298 .cfa: sp 64 + .ra: .cfa -56 + ^ x29: .cfa -64 + ^
STACK CFI 2629c .cfa: x29 64 +
STACK CFI 262a0 x19: .cfa -48 + ^ x20: .cfa -40 + ^
STACK CFI 262e0 x19: x19 x20: x20
STACK CFI 262e4 .cfa: sp 0 + .ra: .ra x29: x29
STACK CFI INIT 262e8 54 .cfa: sp 0 + .ra: x30
STACK CFI 262ec .cfa: sp 64 + .ra: .cfa -56 + ^ x29: .cfa -64 + ^
STACK CFI 262f0 .cfa: x29 64 +
STACK CFI 262f4 x19: .cfa -48 + ^ x20: .cfa -40 + ^
STACK CFI 26334 x19: x19 x20: x20
STACK CFI 26338 .cfa: sp 0 + .ra: .ra x29: x29
STACK CFI INIT 2633c 104 .cfa: sp 0 + .ra: x30
STACK CFI 26340 .cfa: sp 80 + .ra: .cfa -72 + ^ x29: .cfa -80 + ^
STACK CFI 26348 .cfa: x29 80 +
STACK CFI 26350 x19: .cfa -64 + ^ x20: .cfa -56 + ^ x23: .cfa -32 + ^
STACK CFI 26358 x21: .cfa -48 + ^ x22: .cfa -40 + ^
STACK CFI 26430 x23: x23
STACK CFI 26434 x19: x19 x20: x20
STACK CFI 26438 x21: x21 x22: x22
STACK CFI 2643c .cfa: sp 0 + .ra: .ra x29: x29
STACK CFI INIT 26440 8c .cfa: sp 0 + .ra: x30
STACK CFI 26444 .cfa: sp 64 + .ra: .cfa -56 + ^ x29: .cfa -64 + ^
STACK CFI 26448 .cfa: x29 64 +
STACK CFI 2644c x19: .cfa -48 + ^ x20: .cfa -40 + ^
STACK CFI 2645c x21: .cfa -32 + ^ x22: .cfa -24 + ^
STACK CFI 264c0 x19: x19 x20: x20
STACK CFI 264c4 x21: x21 x22: x22
STACK CFI 264c8 .cfa: sp 0 + .ra: .ra x29: x29
STACK CFI INIT 264cc 370 .cfa: sp 0 + .ra: x30
STACK CFI 264d0 .cfa: sp 368 + .ra: .cfa -360 + ^ x29: .cfa -368 + ^
STACK CFI 264d4 .cfa: x29 368 +
STACK CFI 264e8 x19: .cfa -352 + ^ x20: .cfa -344 + ^ x21: .cfa -336 + ^ x22: .cfa -328 + ^ x23: .cfa -320 + ^ x24: .cfa -312 + ^ x25: .cfa -304 + ^ x26: .cfa -296 + ^ x27: .cfa -288 + ^ x28: .cfa -280 + ^
STACK CFI 26824 x19: x19 x20: x20
STACK CFI 26828 x21: x21 x22: x22
STACK CFI 2682c x23: x23 x24: x24
STACK CFI 26830 x25: x25 x26: x26
STACK CFI 26834 x27: x27 x28: x28
STACK CFI 26838 .cfa: sp 0 + .ra: .ra x29: x29
STACK CFI INIT 2683c 28 .cfa: sp 0 + .ra: x30
STACK CFI 26840 .cfa: sp 32 + .ra: .cfa -24 + ^ x29: .cfa -32 + ^
STACK CFI 26848 .cfa: x29 32 +
STACK CFI 2684c x19: .cfa -16 + ^
STACK CFI 2685c x19: x19
STACK CFI 26860 .cfa: sp 0 + .ra: .ra x29: x29
STACK CFI INIT 26864 70 .cfa: sp 0 + .ra: x30
STACK CFI 26868 .cfa: sp 96 + .ra: .cfa -88 + ^ x29: .cfa -96 + ^
STACK CFI 2686c .cfa: x29 96 +
STACK CFI 26874 x19: .cfa -80 + ^ x20: .cfa -72 + ^ x21: .cfa -64 + ^ x22: .cfa -56 + ^
STACK CFI 268c8 x19: x19 x20: x20
STACK CFI 268cc x21: x21 x22: x22
STACK CFI 268d0 .cfa: sp 0 + .ra: .ra x29: x29
STACK CFI INIT 268d4 b0 .cfa: sp 0 + .ra: x30
STACK CFI 268d8 .cfa: sp 480 + .ra: .cfa -472 + ^ x29: .cfa -480 + ^
STACK CFI 268dc .cfa: x29 480 +
STACK CFI 268e0 x21: .cfa -448 + ^ x22: .cfa -440 + ^
STACK CFI 268f4 x19: .cfa -464 + ^ x20: .cfa -456 + ^ x23: .cfa -432 + ^
STACK CFI 26974 x23: x23
STACK CFI 26978 x19: x19 x20: x20
STACK CFI 2697c x21: x21 x22: x22
STACK CFI 26980 .cfa: sp 0 + .ra: .ra x29: x29
STACK CFI INIT 26984 124 .cfa: sp 0 + .ra: x30
STACK CFI 26988 .cfa: sp 80 + .ra: .cfa -72 + ^ x29: .cfa -80 + ^
STACK CFI 26990 .cfa: x29 80 +
STACK CFI 2699c x19: .cfa -64 + ^ x20: .cfa -56 + ^ x21: .cfa -48 + ^ x22: .cfa -40 + ^ x23: .cfa -32 + ^
STACK CFI 26a98 x19: x19 x20: x20
STACK CFI 26a9c x21: x21 x22: x22
STACK CFI 26aa0 x23: x23
STACK CFI 26aa4 .cfa: sp 0 + .ra: .ra x29: x29
STACK CFI INIT 26aa8 88 .cfa: sp 0 + .ra: x30
STACK CFI 26aac .cfa: sp 336 + .ra: .cfa -328 + ^ x29: .cfa -336 + ^
STACK CFI 26ab4 .cfa: x29 336 +
STACK CFI 26ab8 x19: .cfa -320 + ^ x20: .cfa -312 + ^
STACK CFI 26ac0 x21: .cfa -304 + ^
STACK CFI 26b20 x21: x21
STACK CFI 26b28 x19: x19 x20: x20
STACK CFI 26b2c .cfa: sp 0 + .ra: .ra x29: x29
STACK CFI INIT 26b30 114 .cfa: sp 0 + .ra: x30
STACK CFI 26b34 .cfa: sp 224 + .ra: .cfa -216 + ^ x29: .cfa -224 + ^
STACK CFI 26b38 .cfa: x29 224 +
STACK CFI 26b3c x19: .cfa -208 + ^ x20: .cfa -200 + ^
STACK CFI 26b48 x21: .cfa -192 + ^ x22: .cfa -184 + ^ x23: .cfa -176 + ^
STACK CFI 26c30 x23: x23
STACK CFI 26c38 x19: x19 x20: x20
STACK CFI 26c3c x21: x21 x22: x22
STACK CFI 26c40 .cfa: sp 0 + .ra: .ra x29: x29
STACK CFI INIT 26c44 44 .cfa: sp 0 + .ra: x30
STACK CFI 26c48 .cfa: sp 32 + .ra: .cfa -24 + ^ x29: .cfa -32 + ^
STACK CFI 26c4c .cfa: x29 32 +
STACK CFI 26c58 x19: .cfa -16 + ^
STACK CFI 26c80 x19: x19
STACK CFI 26c84 .cfa: sp 0 + .ra: .ra x29: x29
STACK CFI INIT 26c88 9c .cfa: sp 0 + .ra: x30
STACK CFI 26c8c .cfa: sp 160 + .ra: .cfa -152 + ^ x29: .cfa -160 + ^
STACK CFI 26c90 .cfa: x29 160 +
STACK CFI 26c98 x19: .cfa -144 + ^ x20: .cfa -136 + ^ x21: .cfa -128 + ^ x22: .cfa -120 + ^
STACK CFI 26d18 x19: x19 x20: x20
STACK CFI 26d1c x21: x21 x22: x22
STACK CFI 26d20 .cfa: sp 0 + .ra: .ra x29: x29
STACK CFI INIT 26d24 1f8 .cfa: sp 0 + .ra: x30
STACK CFI 26d28 .cfa: sp 176 + .ra: .cfa -168 + ^ x29: .cfa -176 + ^
STACK CFI 26d2c .cfa: x29 176 +
STACK CFI 26d38 x19: .cfa -160 + ^ x20: .cfa -152 + ^ x21: .cfa -144 + ^ x22: .cfa -136 + ^ x23: .cfa -128 + ^
STACK CFI 26f0c x23: x23
STACK CFI 26f10 x19: x19 x20: x20
STACK CFI 26f14 x21: x21 x22: x22
STACK CFI 26f18 .cfa: sp 0 + .ra: .ra x29: x29
STACK CFI INIT 26f1c 5c .cfa: sp 0 + .ra: x30
STACK CFI 26f20 .cfa: sp 336 + .ra: .cfa -328 + ^ x29: .cfa -336 + ^
STACK CFI 26f28 .cfa: x29 336 +
STACK CFI 26f2c x19: .cfa -320 + ^ x20: .cfa -312 + ^
STACK CFI 26f34 x21: .cfa -304 + ^
STACK CFI 26f68 x21: x21
STACK CFI 26f70 x19: x19 x20: x20
STACK CFI 26f74 .cfa: sp 0 + .ra: .ra x29: x29
STACK CFI INIT 26f78 9c .cfa: sp 0 + .ra: x30
STACK CFI 26f7c .cfa: sp 160 + .ra: .cfa -152 + ^ x29: .cfa -160 + ^
STACK CFI 26f80 .cfa: x29 160 +
STACK CFI 26f88 x19: .cfa -144 + ^ x20: .cfa -136 + ^ x21: .cfa -128 + ^ x22: .cfa -120 + ^
STACK CFI 27008 x19: x19 x20: x20
STACK CFI 2700c x21: x21 x22: x22
STACK CFI 27010 .cfa: sp 0 + .ra: .ra x29: x29
STACK CFI INIT 27014 9c .cfa: sp 0 + .ra: x30
STACK CFI 27018 .cfa: sp 160 + .ra: .cfa -152 + ^ x29: .cfa -160 + ^
STACK CFI 2701c .cfa: x29 160 +
STACK CFI 27024 x19: .cfa -144 + ^ x20: .cfa -136 + ^ x21: .cfa -128 + ^ x22: .cfa -120 + ^
STACK CFI 270a4 x19: x19 x20: x20
STACK CFI 270a8 x21: x21 x22: x22
STACK CFI 270ac .cfa: sp 0 + .ra: .ra x29: x29
STACK CFI INIT 270b0 39c .cfa: sp 0 + .ra: x30
STACK CFI 270b4 .cfa: sp 176 + .ra: .cfa -168 + ^ x29: .cfa -176 + ^
STACK CFI 270b8 .cfa: x29 176 +
STACK CFI 270c4 x19: .cfa -160 + ^ x20: .cfa -152 + ^ x23: .cfa -128 + ^ x24: .cfa -120 + ^
STACK CFI 270d0 x25: .cfa -112 + ^ x26: .cfa -104 + ^
STACK CFI 270e0 x21: .cfa -144 + ^ x22: .cfa -136 + ^
STACK CFI 273f8 x19: x19 x20: x20
STACK CFI 273fc x21: x21 x22: x22
STACK CFI 27400 x23: x23 x24: x24
STACK CFI 27404 x25: x25 x26: x26
STACK CFI 27408 .cfa: sp 0 + .ra: .ra x29: x29
STACK CFI 2740c .cfa: x29 176 + .ra: .cfa -168 + ^ x19: .cfa -160 + ^ x20: .cfa -152 + ^ x21: .cfa -144 + ^ x22: .cfa -136 + ^ x23: .cfa -128 + ^ x24: .cfa -120 + ^ x25: .cfa -112 + ^ x26: .cfa -104 + ^ x29: .cfa -176 + ^
STACK CFI 27438 x19: x19 x20: x20
STACK CFI 2743c x21: x21 x22: x22
STACK CFI 27440 x23: x23 x24: x24
STACK CFI 27444 x25: x25 x26: x26
STACK CFI 27448 .cfa: sp 0 + .ra: .ra x29: x29
STACK CFI INIT 2744c 134 .cfa: sp 0 + .ra: x30
STACK CFI 27450 .cfa: sp 224 + .ra: .cfa -216 + ^ x29: .cfa -224 + ^
STACK CFI 27454 .cfa: x29 224 +
STACK CFI 27460 x19: .cfa -208 + ^ x20: .cfa -200 + ^ x21: .cfa -192 + ^ x22: .cfa -184 + ^ x23: .cfa -176 + ^
STACK CFI 27570 x23: x23
STACK CFI 27574 x19: x19 x20: x20
STACK CFI 27578 x21: x21 x22: x22
STACK CFI 2757c .cfa: sp 0 + .ra: .ra x29: x29
STACK CFI INIT 27580 2d0 .cfa: sp 0 + .ra: x30
STACK CFI 27584 .cfa: sp 480 +
STACK CFI 27588 .cfa: sp 576 + .ra: .cfa -568 + ^ x29: .cfa -576 + ^
STACK CFI 2758c .cfa: x29 576 +
STACK CFI 27590 x23: .cfa -528 + ^ x24: .cfa -520 + ^
STACK CFI 275a4 x19: .cfa -560 + ^ x20: .cfa -552 + ^ x21: .cfa -544 + ^ x22: .cfa -536 + ^ x25: .cfa -512 + ^ x26: .cfa -504 + ^
STACK CFI 275b0 x27: .cfa -496 + ^ x28: .cfa -488 + ^
STACK CFI 27834 x19: x19 x20: x20
STACK CFI 27838 x21: x21 x22: x22
STACK CFI 2783c x23: x23 x24: x24
STACK CFI 27840 x25: x25 x26: x26
STACK CFI 27844 x27: x27 x28: x28
STACK CFI 27848 .cfa: sp 480 + .ra: .ra x29: x29
STACK CFI 2784c .cfa: sp 384 +
STACK CFI INIT 27850 88 .cfa: sp 0 + .ra: x30
STACK CFI 27854 .cfa: sp 352 + .ra: .cfa -344 + ^ x29: .cfa -352 + ^
STACK CFI 2785c .cfa: x29 352 +
STACK CFI 27860 x19: .cfa -336 + ^ x20: .cfa -328 + ^
STACK CFI 27870 x21: .cfa -320 + ^
STACK CFI 278cc x21: x21
STACK CFI 278d0 x19: x19 x20: x20
STACK CFI 278d4 .cfa: sp 0 + .ra: .ra x29: x29
STACK CFI INIT 278d8 114 .cfa: sp 0 + .ra: x30
STACK CFI 278dc .cfa: sp 224 + .ra: .cfa -216 + ^ x29: .cfa -224 + ^
STACK CFI 278e0 .cfa: x29 224 +
STACK CFI 278e4 x19: .cfa -208 + ^ x20: .cfa -200 + ^
STACK CFI 278f0 x21: .cfa -192 + ^ x22: .cfa -184 + ^ x23: .cfa -176 + ^
STACK CFI 279d8 x23: x23
STACK CFI 279e0 x19: x19 x20: x20
STACK CFI 279e4 x21: x21 x22: x22
STACK CFI 279e8 .cfa: sp 0 + .ra: .ra x29: x29
STACK CFI INIT 279ec 5c .cfa: sp 0 + .ra: x30
STACK CFI 279f0 .cfa: sp 336 + .ra: .cfa -328 + ^ x29: .cfa -336 + ^
STACK CFI 279f8 .cfa: x29 336 +
STACK CFI 279fc x19: .cfa -320 + ^ x20: .cfa -312 + ^
STACK CFI 27a04 x21: .cfa -304 + ^
STACK CFI 27a38 x21: x21
STACK CFI 27a40 x19: x19 x20: x20
STACK CFI 27a44 .cfa: sp 0 + .ra: .ra x29: x29
STACK CFI INIT 27a48 134 .cfa: sp 0 + .ra: x30
STACK CFI 27a4c .cfa: sp 224 + .ra: .cfa -216 + ^ x29: .cfa -224 + ^
STACK CFI 27a50 .cfa: x29 224 +
STACK CFI 27a5c x19: .cfa -208 + ^ x20: .cfa -200 + ^ x21: .cfa -192 + ^ x22: .cfa -184 + ^ x23: .cfa -176 + ^
STACK CFI 27b6c x23: x23
STACK CFI 27b70 x19: x19 x20: x20
STACK CFI 27b74 x21: x21 x22: x22
STACK CFI 27b78 .cfa: sp 0 + .ra: .ra x29: x29
STACK CFI INIT 27b7c 9c .cfa: sp 0 + .ra: x30
STACK CFI 27b80 .cfa: sp 160 + .ra: .cfa -152 + ^ x29: .cfa -160 + ^
STACK CFI 27b84 .cfa: x29 160 +
STACK CFI 27b8c x19: .cfa -144 + ^ x20: .cfa -136 + ^ x21: .cfa -128 + ^ x22: .cfa -120 + ^
STACK CFI 27c0c x19: x19 x20: x20
STACK CFI 27c10 x21: x21 x22: x22
STACK CFI 27c14 .cfa: sp 0 + .ra: .ra x29: x29
STACK CFI INIT 27c18 158 .cfa: sp 0 + .ra: x30
STACK CFI 27c1c .cfa: sp 464 + .ra: .cfa -456 + ^ x29: .cfa -464 + ^
STACK CFI 27c20 .cfa: x29 464 +
STACK CFI 27c24 x19: .cfa -448 + ^ x20: .cfa -440 + ^
STACK CFI 27c34 x23: .cfa -416 + ^ x24: .cfa -408 + ^ x25: .cfa -400 + ^ x26: .cfa -392 + ^ x27: .cfa -384 + ^
STACK CFI 27c48 x21: .cfa -432 + ^ x22: .cfa -424 + ^
STACK CFI 27d54 x27: x27
STACK CFI 27d5c x19: x19 x20: x20
STACK CFI 27d60 x21: x21 x22: x22
STACK CFI 27d64 x23: x23 x24: x24
STACK CFI 27d68 x25: x25 x26: x26
STACK CFI 27d6c .cfa: sp 0 + .ra: .ra x29: x29
STACK CFI INIT 27d70 5c .cfa: sp 0 + .ra: x30
STACK CFI 27d74 .cfa: sp 336 + .ra: .cfa -328 + ^ x29: .cfa -336 + ^
STACK CFI 27d7c .cfa: x29 336 +
STACK CFI 27d80 x19: .cfa -320 + ^ x20: .cfa -312 + ^
STACK CFI 27d88 x21: .cfa -304 + ^
STACK CFI 27dbc x21: x21
STACK CFI 27dc4 x19: x19 x20: x20
STACK CFI 27dc8 .cfa: sp 0 + .ra: .ra x29: x29
STACK CFI INIT 27dcc c0 .cfa: sp 0 + .ra: x30
STACK CFI 27dd0 .cfa: sp 160 + .ra: .cfa -152 + ^ x29: .cfa -160 + ^
STACK CFI 27dd4 .cfa: x29 160 +
STACK CFI 27de0 x19: .cfa -144 + ^ x20: .cfa -136 + ^ x21: .cfa -128 + ^ x22: .cfa -120 + ^ x23: .cfa -112 + ^ x24: .cfa -104 + ^
STACK CFI 27e7c x19: x19 x20: x20
STACK CFI 27e80 x21: x21 x22: x22
STACK CFI 27e84 x23: x23 x24: x24
STACK CFI 27e88 .cfa: sp 0 + .ra: .ra x29: x29
STACK CFI INIT 27e8c 1e8 .cfa: sp 0 + .ra: x30
STACK CFI 27e90 .cfa: sp 448 +
STACK CFI 27e94 .cfa: sp 512 + .ra: .cfa -504 + ^ x29: .cfa -512 + ^
STACK CFI 27e98 .cfa: x29 512 +
STACK CFI 27e9c x21: .cfa -480 + ^ x22: .cfa -472 + ^
STACK CFI 27eb0 x19: .cfa -496 + ^ x20: .cfa -488 + ^ x23: .cfa -464 + ^ x24: .cfa -456 + ^
STACK CFI 28060 x19: x19 x20: x20
STACK CFI 28064 x21: x21 x22: x22
STACK CFI 28068 x23: x23 x24: x24
STACK CFI 2806c .cfa: sp 448 + .ra: .ra x29: x29
STACK CFI 28070 .cfa: sp 384 +
STACK CFI INIT 28074 5c .cfa: sp 0 + .ra: x30
STACK CFI 28078 .cfa: sp 336 + .ra: .cfa -328 + ^ x29: .cfa -336 + ^
STACK CFI 28080 .cfa: x29 336 +
STACK CFI 28084 x19: .cfa -320 + ^ x20: .cfa -312 + ^
STACK CFI 2808c x21: .cfa -304 + ^
STACK CFI 280c0 x21: x21
STACK CFI 280c8 x19: x19 x20: x20
STACK CFI 280cc .cfa: sp 0 + .ra: .ra x29: x29
STACK CFI INIT 280d0 9c .cfa: sp 0 + .ra: x30
STACK CFI 280d4 .cfa: sp 160 + .ra: .cfa -152 + ^ x29: .cfa -160 + ^
STACK CFI 280d8 .cfa: x29 160 +
STACK CFI 280e0 x19: .cfa -144 + ^ x20: .cfa -136 + ^ x21: .cfa -128 + ^ x22: .cfa -120 + ^
STACK CFI 28160 x19: x19 x20: x20
STACK CFI 28164 x21: x21 x22: x22
STACK CFI 28168 .cfa: sp 0 + .ra: .ra x29: x29
STACK CFI INIT 2816c 9c .cfa: sp 0 + .ra: x30
STACK CFI 28170 .cfa: sp 160 + .ra: .cfa -152 + ^ x29: .cfa -160 + ^
STACK CFI 28174 .cfa: x29 160 +
STACK CFI 2817c x19: .cfa -144 + ^ x20: .cfa -136 + ^ x21: .cfa -128 + ^ x22: .cfa -120 + ^
STACK CFI 281fc x19: x19 x20: x20
STACK CFI 28200 x21: x21 x22: x22
STACK CFI 28204 .cfa: sp 0 + .ra: .ra x29: x29
STACK CFI INIT 28208 9c .cfa: sp 0 + .ra: x30
STACK CFI 2820c .cfa: sp 160 + .ra: .cfa -152 + ^ x29: .cfa -160 + ^
STACK CFI 28210 .cfa: x29 160 +
STACK CFI 28218 x19: .cfa -144 + ^ x20: .cfa -136 + ^ x21: .cfa -128 + ^ x22: .cfa -120 + ^
STACK CFI 28298 x19: x19 x20: x20
STACK CFI 2829c x21: x21 x22: x22
STACK CFI 282a0 .cfa: sp 0 + .ra: .ra x29: x29
STACK CFI INIT 282a4 28 .cfa: sp 0 + .ra: x30
STACK CFI INIT 282cc 20 .cfa: sp 0 + .ra: x30
STACK CFI 282d0 .cfa: sp 32 + .ra: .cfa -24 + ^ x29: .cfa -32 + ^
STACK CFI 282d8 .cfa: x29 32 +
STACK CFI 282e8 .cfa: sp 0 + .ra: .ra x29: x29
STACK CFI INIT 282ec 20 .cfa: sp 0 + .ra: x30
STACK CFI 282f0 .cfa: sp 32 + .ra: .cfa -24 + ^ x29: .cfa -32 + ^
STACK CFI 282f8 .cfa: x29 32 +
STACK CFI 28308 .cfa: sp 0 + .ra: .ra x29: x29
STACK CFI INIT 2830c 110 .cfa: sp 0 + .ra: x30
STACK CFI 28310 .cfa: sp 32 + .ra: .cfa -24 + ^ x29: .cfa -32 + ^
STACK CFI 2831c .cfa: x29 32 +
STACK CFI 28398 .cfa: sp 0 + .ra: .ra x29: x29
STACK CFI 2839c .cfa: x29 32 + .ra: .cfa -24 + ^ x29: .cfa -32 + ^
STACK CFI INIT 2841c 124 .cfa: sp 0 + .ra: x30
STACK CFI 28420 .cfa: sp 80 + .ra: .cfa -72 + ^ x29: .cfa -80 + ^
STACK CFI 28424 .cfa: x29 80 +
STACK CFI 28430 x19: .cfa -64 + ^ x20: .cfa -56 + ^ x21: .cfa -48 + ^ x22: .cfa -40 + ^ x23: .cfa -32 + ^ x24: .cfa -24 + ^
STACK CFI 28530 x19: x19 x20: x20
STACK CFI 28534 x21: x21 x22: x22
STACK CFI 28538 x23: x23 x24: x24
STACK CFI 2853c .cfa: sp 0 + .ra: .ra x29: x29
STACK CFI INIT 28540 b0 .cfa: sp 0 + .ra: x30
STACK CFI 28544 .cfa: sp 80 + .ra: .cfa -72 + ^ x29: .cfa -80 + ^
STACK CFI 28548 .cfa: x29 80 +
STACK CFI 28550 x19: .cfa -64 + ^ x20: .cfa -56 + ^ x21: .cfa -48 + ^
STACK CFI 285e0 x21: x21
STACK CFI 285e8 x19: x19 x20: x20
STACK CFI 285ec .cfa: sp 0 + .ra: .ra x29: x29
STACK CFI INIT 285f0 60 .cfa: sp 0 + .ra: x30
STACK CFI 285f4 .cfa: sp 32 + .ra: .cfa -24 + ^ x29: .cfa -32 + ^
STACK CFI 285f8 .cfa: x29 32 +
STACK CFI 285fc x19: .cfa -16 + ^ x20: .cfa -8 + ^
STACK CFI 28648 x19: x19 x20: x20
STACK CFI 2864c .cfa: sp 0 + .ra: .ra x29: x29
STACK CFI INIT 28650 c4 .cfa: sp 0 + .ra: x30
STACK CFI 28654 .cfa: sp 48 + .ra: .cfa -40 + ^ x29: .cfa -48 + ^
STACK CFI 2865c .cfa: x29 48 +
STACK CFI 28664 x19: .cfa -32 + ^ x20: .cfa -24 + ^ x21: .cfa -16 + ^
STACK CFI 28708 x19: x19 x20: x20
STACK CFI 2870c x21: x21
STACK CFI 28710 .cfa: sp 0 + .ra: .ra x29: x29
STACK CFI INIT 28714 b8 .cfa: sp 0 + .ra: x30
STACK CFI 28718 .cfa: sp 48 + .ra: .cfa -40 + ^ x29: .cfa -48 + ^
STACK CFI 2871c .cfa: x29 48 +
STACK CFI 28724 x19: .cfa -32 + ^ x20: .cfa -24 + ^ x21: .cfa -16 + ^
STACK CFI 287c0 x21: x21
STACK CFI 287c4 x19: x19 x20: x20
STACK CFI 287c8 .cfa: sp 0 + .ra: .ra x29: x29
STACK CFI INIT 287cc 10c .cfa: sp 0 + .ra: x30
STACK CFI 287d0 .cfa: sp 64 + .ra: .cfa -56 + ^ x29: .cfa -64 + ^
STACK CFI 287d8 .cfa: x29 64 +
STACK CFI 287e0 x19: .cfa -48 + ^ x20: .cfa -40 + ^ x23: .cfa -16 + ^
STACK CFI 287e8 x21: .cfa -32 + ^ x22: .cfa -24 + ^
STACK CFI 288c8 x19: x19 x20: x20
STACK CFI 288cc x21: x21 x22: x22
STACK CFI 288d0 x23: x23
STACK CFI 288d4 .cfa: sp 0 + .ra: .ra x29: x29
STACK CFI INIT 288d8 f0 .cfa: sp 0 + .ra: x30
STACK CFI 288dc .cfa: sp 64 + .ra: .cfa -56 + ^ x29: .cfa -64 + ^
STACK CFI 288e4 .cfa: x29 64 +
STACK CFI 288f0 x19: .cfa -48 + ^ x20: .cfa -40 + ^ x21: .cfa -32 + ^ x22: .cfa -24 + ^ x23: .cfa -16 + ^
STACK CFI 289b8 x23: x23
STACK CFI 289bc x19: x19 x20: x20
STACK CFI 289c0 x21: x21 x22: x22
STACK CFI 289c4 .cfa: sp 0 + .ra: .ra x29: x29
STACK CFI INIT 208f4 858 .cfa: sp 0 + .ra: x30
STACK CFI 208f8 .cfa: sp 64 + .ra: .cfa -56 + ^ x29: .cfa -64 + ^
STACK CFI 208fc .cfa: x29 64 +
STACK CFI 20904 x19: .cfa -48 + ^ x20: .cfa -40 + ^ x21: .cfa -32 + ^
STACK CFI 21138 x21: x21
STACK CFI 21140 x19: x19 x20: x20
STACK CFI 21144 .cfa: sp 0 + .ra: .ra x29: x29
STACK CFI INIT 289c8 3e4 .cfa: sp 0 + .ra: x30
STACK CFI 289cc .cfa: sp 384 + .ra: .cfa -376 + ^ x29: .cfa -384 + ^
STACK CFI 289d0 .cfa: x29 384 +
STACK CFI 289d4 x23: .cfa -336 + ^ x24: .cfa -328 + ^
STACK CFI 289e0 x25: .cfa -320 + ^ x26: .cfa -312 + ^ x27: .cfa -304 + ^
STACK CFI 289f0 x19: .cfa -368 + ^ x20: .cfa -360 + ^ x21: .cfa -352 + ^ x22: .cfa -344 + ^
STACK CFI 28d94 x27: x27
STACK CFI 28d98 x19: x19 x20: x20
STACK CFI 28d9c x21: x21 x22: x22
STACK CFI 28da0 x23: x23 x24: x24
STACK CFI 28da4 x25: x25 x26: x26
STACK CFI 28da8 .cfa: sp 0 + .ra: .ra x29: x29
STACK CFI INIT 28dac a8 .cfa: sp 0 + .ra: x30
STACK CFI 28db0 .cfa: sp 64 + .ra: .cfa -56 + ^ x29: .cfa -64 + ^
STACK CFI 28db4 .cfa: x29 64 +
STACK CFI 28db8 x19: .cfa -48 + ^ x20: .cfa -40 + ^
STACK CFI 28e4c x19: x19 x20: x20
STACK CFI 28e50 .cfa: sp 0 + .ra: .ra x29: x29
STACK CFI INIT 28e54 a8 .cfa: sp 0 + .ra: x30
STACK CFI 28e58 .cfa: sp 64 + .ra: .cfa -56 + ^ x29: .cfa -64 + ^
STACK CFI 28e5c .cfa: x29 64 +
STACK CFI 28e60 x19: .cfa -48 + ^ x20: .cfa -40 + ^
STACK CFI 28ef4 x19: x19 x20: x20
STACK CFI 28ef8 .cfa: sp 0 + .ra: .ra x29: x29
STACK CFI INIT 28efc 1a4 .cfa: sp 0 + .ra: x30
STACK CFI 28f00 .cfa: sp 192 + .ra: .cfa -184 + ^ x29: .cfa -192 + ^
STACK CFI 28f04 .cfa: x29 192 +
STACK CFI 28f08 x19: .cfa -176 + ^ x20: .cfa -168 + ^
STACK CFI 28f1c x21: .cfa -160 + ^ x22: .cfa -152 + ^ x23: .cfa -144 + ^
STACK CFI 29090 x23: x23
STACK CFI 29094 x19: x19 x20: x20
STACK CFI 29098 x21: x21 x22: x22
STACK CFI 2909c .cfa: sp 0 + .ra: .ra x29: x29
STACK CFI INIT 290a0 1a4 .cfa: sp 0 + .ra: x30
STACK CFI 290a4 .cfa: sp 192 + .ra: .cfa -184 + ^ x29: .cfa -192 + ^
STACK CFI 290a8 .cfa: x29 192 +
STACK CFI 290ac x19: .cfa -176 + ^ x20: .cfa -168 + ^
STACK CFI 290c0 x21: .cfa -160 + ^ x22: .cfa -152 + ^ x23: .cfa -144 + ^
STACK CFI 29234 x23: x23
STACK CFI 29238 x19: x19 x20: x20
STACK CFI 2923c x21: x21 x22: x22
STACK CFI 29240 .cfa: sp 0 + .ra: .ra x29: x29
STACK CFI INIT 29244 1a4 .cfa: sp 0 + .ra: x30
STACK CFI 29248 .cfa: sp 192 + .ra: .cfa -184 + ^ x29: .cfa -192 + ^
STACK CFI 2924c .cfa: x29 192 +
STACK CFI 29250 x19: .cfa -176 + ^ x20: .cfa -168 + ^
STACK CFI 29264 x21: .cfa -160 + ^ x22: .cfa -152 + ^ x23: .cfa -144 + ^
STACK CFI 293d8 x23: x23
STACK CFI 293dc x19: x19 x20: x20
STACK CFI 293e0 x21: x21 x22: x22
STACK CFI 293e4 .cfa: sp 0 + .ra: .ra x29: x29
STACK CFI INIT 293e8 1a4 .cfa: sp 0 + .ra: x30
STACK CFI 293ec .cfa: sp 192 + .ra: .cfa -184 + ^ x29: .cfa -192 + ^
STACK CFI 293f0 .cfa: x29 192 +
STACK CFI 293f4 x19: .cfa -176 + ^ x20: .cfa -168 + ^
STACK CFI 29408 x21: .cfa -160 + ^ x22: .cfa -152 + ^ x23: .cfa -144 + ^
STACK CFI 2957c x23: x23
STACK CFI 29580 x19: x19 x20: x20
STACK CFI 29584 x21: x21 x22: x22
STACK CFI 29588 .cfa: sp 0 + .ra: .ra x29: x29
STACK CFI INIT 2958c fc .cfa: sp 0 + .ra: x30
STACK CFI 29590 .cfa: sp 160 + .ra: .cfa -152 + ^ x29: .cfa -160 + ^
STACK CFI 29594 .cfa: x29 160 +
STACK CFI 29598 x19: .cfa -144 + ^ x20: .cfa -136 + ^
STACK CFI 295a0 x21: .cfa -128 + ^
STACK CFI 2967c x21: x21
STACK CFI 29680 x19: x19 x20: x20
STACK CFI 29684 .cfa: sp 0 + .ra: .ra x29: x29
STACK CFI INIT 29688 324 .cfa: sp 0 + .ra: x30
STACK CFI 2968c .cfa: sp 464 + .ra: .cfa -456 + ^ x29: .cfa -464 + ^
STACK CFI 29690 .cfa: x29 464 +
STACK CFI 29694 x23: .cfa -416 + ^ x24: .cfa -408 + ^
STACK CFI 296a8 x19: .cfa -448 + ^ x20: .cfa -440 + ^ x21: .cfa -432 + ^ x22: .cfa -424 + ^ x25: .cfa -400 + ^ x26: .cfa -392 + ^
STACK CFI 29998 x19: x19 x20: x20
STACK CFI 2999c x21: x21 x22: x22
STACK CFI 299a0 x23: x23 x24: x24
STACK CFI 299a4 x25: x25 x26: x26
STACK CFI 299a8 .cfa: sp 0 + .ra: .ra x29: x29
STACK CFI INIT 299ac 13c .cfa: sp 0 + .ra: x30
STACK CFI 299b0 .cfa: sp 416 + .ra: .cfa -408 + ^ x29: .cfa -416 + ^
STACK CFI 299b4 .cfa: x29 416 +
STACK CFI 299b8 x21: .cfa -384 + ^ x22: .cfa -376 + ^
STACK CFI 299c4 x19: .cfa -400 + ^ x20: .cfa -392 + ^
STACK CFI 29adc x19: x19 x20: x20
STACK CFI 29ae0 x21: x21 x22: x22
STACK CFI 29ae4 .cfa: sp 0 + .ra: .ra x29: x29
STACK CFI INIT 29ae8 13c .cfa: sp 0 + .ra: x30
STACK CFI 29aec .cfa: sp 416 + .ra: .cfa -408 + ^ x29: .cfa -416 + ^
STACK CFI 29af0 .cfa: x29 416 +
STACK CFI 29af4 x21: .cfa -384 + ^ x22: .cfa -376 + ^
STACK CFI 29b00 x19: .cfa -400 + ^ x20: .cfa -392 + ^
STACK CFI 29c18 x19: x19 x20: x20
STACK CFI 29c1c x21: x21 x22: x22
STACK CFI 29c20 .cfa: sp 0 + .ra: .ra x29: x29
STACK CFI INIT 29c24 140 .cfa: sp 0 + .ra: x30
STACK CFI 29c28 .cfa: sp 416 + .ra: .cfa -408 + ^ x29: .cfa -416 + ^
STACK CFI 29c2c .cfa: x29 416 +
STACK CFI 29c30 x21: .cfa -384 + ^ x22: .cfa -376 + ^
STACK CFI 29c3c x19: .cfa -400 + ^ x20: .cfa -392 + ^
STACK CFI 29d58 x19: x19 x20: x20
STACK CFI 29d5c x21: x21 x22: x22
STACK CFI 29d60 .cfa: sp 0 + .ra: .ra x29: x29
STACK CFI INIT 29d64 140 .cfa: sp 0 + .ra: x30
STACK CFI 29d68 .cfa: sp 416 + .ra: .cfa -408 + ^ x29: .cfa -416 + ^
STACK CFI 29d6c .cfa: x29 416 +
STACK CFI 29d70 x21: .cfa -384 + ^ x22: .cfa -376 + ^
STACK CFI 29d7c x19: .cfa -400 + ^ x20: .cfa -392 + ^
STACK CFI 29e98 x19: x19 x20: x20
STACK CFI 29e9c x21: x21 x22: x22
STACK CFI 29ea0 .cfa: sp 0 + .ra: .ra x29: x29
STACK CFI INIT 29ea4 9c4 .cfa: sp 0 + .ra: x30
STACK CFI 29ea8 .cfa: sp 4096 +
STACK CFI 29eb0 .cfa: sp 5648 +
STACK CFI 29ebc .cfa: sp 5760 + .ra: .cfa -5752 + ^ x29: .cfa -5760 + ^
STACK CFI 29ec0 .cfa: x29 5760 +
STACK CFI 29ec4 x19: .cfa -5744 + ^ x20: .cfa -5736 + ^
STACK CFI 29ecc x23: .cfa -5712 + ^ x24: .cfa -5704 + ^
STACK CFI 29ee8 v8: .cfa -5664 + ^ x21: .cfa -5728 + ^ x22: .cfa -5720 + ^ x25: .cfa -5696 + ^ x26: .cfa -5688 + ^ x27: .cfa -5680 + ^ x28: .cfa -5672 + ^
STACK CFI 2a844 x19: x19 x20: x20
STACK CFI 2a848 x21: x21 x22: x22
STACK CFI 2a84c x23: x23 x24: x24
STACK CFI 2a850 x25: x25 x26: x26
STACK CFI 2a854 x27: x27 x28: x28
STACK CFI 2a858 v8: v8
STACK CFI 2a85c .cfa: sp 5648 + .ra: .ra x29: x29
STACK CFI 2a860 .cfa: sp 4096 +
STACK CFI 2a864 .cfa: sp 3984 +
STACK CFI INIT 2a868 aa4 .cfa: sp 0 + .ra: x30
STACK CFI 2a86c .cfa: sp 800 +
STACK CFI 2a870 .cfa: sp 912 + .ra: .cfa -904 + ^ x29: .cfa -912 + ^
STACK CFI 2a874 .cfa: x29 912 +
STACK CFI 2a878 x27: .cfa -832 + ^ x28: .cfa -824 + ^
STACK CFI 2a890 v8: .cfa -816 + ^ x19: .cfa -896 + ^ x20: .cfa -888 + ^ x21: .cfa -880 + ^ x22: .cfa -872 + ^ x23: .cfa -864 + ^ x24: .cfa -856 + ^
STACK CFI 2a898 x25: .cfa -848 + ^ x26: .cfa -840 + ^
STACK CFI 2b2ec v8: v8
STACK CFI 2b2f0 x19: x19 x20: x20
STACK CFI 2b2f4 x21: x21 x22: x22
STACK CFI 2b2f8 x23: x23 x24: x24
STACK CFI 2b2fc x25: x25 x26: x26
STACK CFI 2b300 x27: x27 x28: x28
STACK CFI 2b304 .cfa: sp 800 + .ra: .ra x29: x29
STACK CFI 2b308 .cfa: sp 688 +
STACK CFI INIT 2b30c 9b4 .cfa: sp 0 + .ra: x30
STACK CFI 2b310 .cfa: sp 640 +
STACK CFI 2b314 .cfa: sp 736 + .ra: .cfa -728 + ^ x29: .cfa -736 + ^
STACK CFI 2b318 .cfa: x29 736 +
STACK CFI 2b31c x27: .cfa -656 + ^ x28: .cfa -648 + ^
STACK CFI 2b334 x19: .cfa -720 + ^ x20: .cfa -712 + ^ x21: .cfa -704 + ^ x22: .cfa -696 + ^ x23: .cfa -688 + ^ x24: .cfa -680 + ^ x25: .cfa -672 + ^ x26: .cfa -664 + ^
STACK CFI 2bca4 x19: x19 x20: x20
STACK CFI 2bca8 x21: x21 x22: x22
STACK CFI 2bcac x23: x23 x24: x24
STACK CFI 2bcb0 x25: x25 x26: x26
STACK CFI 2bcb4 x27: x27 x28: x28
STACK CFI 2bcb8 .cfa: sp 640 + .ra: .ra x29: x29
STACK CFI 2bcbc .cfa: sp 544 +
STACK CFI INIT 2bcc0 9b8 .cfa: sp 0 + .ra: x30
STACK CFI 2bcc4 .cfa: sp 640 +
STACK CFI 2bcc8 .cfa: sp 736 + .ra: .cfa -728 + ^ x29: .cfa -736 + ^
STACK CFI 2bccc .cfa: x29 736 +
STACK CFI 2bcd0 x27: .cfa -656 + ^ x28: .cfa -648 + ^
STACK CFI 2bce8 x19: .cfa -720 + ^ x20: .cfa -712 + ^ x21: .cfa -704 + ^ x22: .cfa -696 + ^ x23: .cfa -688 + ^ x24: .cfa -680 + ^ x25: .cfa -672 + ^ x26: .cfa -664 + ^
STACK CFI 2c65c x19: x19 x20: x20
STACK CFI 2c660 x21: x21 x22: x22
STACK CFI 2c664 x23: x23 x24: x24
STACK CFI 2c668 x25: x25 x26: x26
STACK CFI 2c66c x27: x27 x28: x28
STACK CFI 2c670 .cfa: sp 640 + .ra: .ra x29: x29
STACK CFI 2c674 .cfa: sp 544 +
STACK CFI INIT 2c678 5b4 .cfa: sp 0 + .ra: x30
STACK CFI 2c67c .cfa: sp 512 +
STACK CFI 2c680 .cfa: sp 608 + .ra: .cfa -600 + ^ x29: .cfa -608 + ^
STACK CFI 2c684 .cfa: x29 608 +
STACK CFI 2c688 x25: .cfa -544 + ^ x26: .cfa -536 + ^
STACK CFI 2c6a0 x19: .cfa -592 + ^ x20: .cfa -584 + ^ x21: .cfa -576 + ^ x22: .cfa -568 + ^ x23: .cfa -560 + ^ x24: .cfa -552 + ^ x27: .cfa -528 + ^ x28: .cfa -520 + ^
STACK CFI 2cc10 x19: x19 x20: x20
STACK CFI 2cc14 x21: x21 x22: x22
STACK CFI 2cc18 x23: x23 x24: x24
STACK CFI 2cc1c x25: x25 x26: x26
STACK CFI 2cc20 x27: x27 x28: x28
STACK CFI 2cc24 .cfa: sp 512 + .ra: .ra x29: x29
STACK CFI 2cc28 .cfa: sp 416 +
STACK CFI INIT 2cc2c 8d8 .cfa: sp 0 + .ra: x30
STACK CFI 2cc30 .cfa: sp 896 +
STACK CFI 2cc38 .cfa: sp 1024 + .ra: .cfa -1016 + ^ x29: .cfa -1024 + ^
STACK CFI 2cc3c .cfa: x29 1024 +
STACK CFI 2cc44 v8: .cfa -928 + ^ v9: .cfa -920 + ^ x21: .cfa -992 + ^ x22: .cfa -984 + ^
STACK CFI 2cc54 v10: .cfa -912 + ^ x19: .cfa -1008 + ^ x20: .cfa -1000 + ^ x23: .cfa -976 + ^ x24: .cfa -968 + ^
STACK CFI 2cc60 x25: .cfa -960 + ^ x26: .cfa -952 + ^ x27: .cfa -944 + ^ x28: .cfa -936 + ^
STACK CFI 2d458 v8: v8 v9: v9
STACK CFI 2d45c x19: x19 x20: x20
STACK CFI 2d460 x21: x21 x22: x22
STACK CFI 2d464 x23: x23 x24: x24
STACK CFI 2d468 x25: x25 x26: x26
STACK CFI 2d46c x27: x27 x28: x28
STACK CFI 2d470 v10: v10
STACK CFI 2d474 .cfa: sp 896 + .ra: .ra x29: x29
STACK CFI 2d478 .cfa: sp 768 +
STACK CFI 2d47c .cfa: x29 1024 + .ra: .cfa -1016 + ^ v10: .cfa -912 + ^ v8: .cfa -928 + ^ v9: .cfa -920 + ^ x19: .cfa -1008 + ^ x20: .cfa -1000 + ^ x21: .cfa -992 + ^ x22: .cfa -984 + ^ x23: .cfa -976 + ^ x24: .cfa -968 + ^ x25: .cfa -960 + ^ x26: .cfa -952 + ^ x27: .cfa -944 + ^ x28: .cfa -936 + ^ x29: .cfa -1024 + ^
STACK CFI INIT 2d504 370 .cfa: sp 0 + .ra: x30
STACK CFI 2d508 .cfa: sp 496 +
STACK CFI 2d50c .cfa: sp 576 + .ra: .cfa -568 + ^ x29: .cfa -576 + ^
STACK CFI 2d510 .cfa: x29 576 +
STACK CFI 2d514 x25: .cfa -512 + ^ x26: .cfa -504 + ^
STACK CFI 2d52c x19: .cfa -560 + ^ x20: .cfa -552 + ^ x21: .cfa -544 + ^ x22: .cfa -536 + ^ x23: .cfa -528 + ^ x24: .cfa -520 + ^
STACK CFI 2d85c x19: x19 x20: x20
STACK CFI 2d860 x21: x21 x22: x22
STACK CFI 2d864 x23: x23 x24: x24
STACK CFI 2d868 x25: x25 x26: x26
STACK CFI 2d86c .cfa: sp 496 + .ra: .ra x29: x29
STACK CFI 2d870 .cfa: sp 416 +
STACK CFI INIT 2d874 5b8 .cfa: sp 0 + .ra: x30
STACK CFI 2d878 .cfa: sp 800 +
STACK CFI 2d87c .cfa: sp 928 + .ra: .cfa -920 + ^ x29: .cfa -928 + ^
STACK CFI 2d880 .cfa: x29 928 +
STACK CFI 2d88c v10: .cfa -816 + ^ v8: .cfa -832 + ^ v9: .cfa -824 + ^
STACK CFI 2d8a4 x19: .cfa -912 + ^ x20: .cfa -904 + ^ x21: .cfa -896 + ^ x22: .cfa -888 + ^ x23: .cfa -880 + ^ x24: .cfa -872 + ^ x25: .cfa -864 + ^ x26: .cfa -856 + ^ x27: .cfa -848 + ^ x28: .cfa -840 + ^
STACK CFI 2de08 v8: v8 v9: v9
STACK CFI 2de0c x19: x19 x20: x20
STACK CFI 2de10 x21: x21 x22: x22
STACK CFI 2de14 x23: x23 x24: x24
STACK CFI 2de18 x25: x25 x26: x26
STACK CFI 2de1c x27: x27 x28: x28
STACK CFI 2de20 v10: v10
STACK CFI 2de24 .cfa: sp 800 + .ra: .ra x29: x29
STACK CFI 2de28 .cfa: sp 672 +
STACK CFI INIT 2de2c 488 .cfa: sp 0 + .ra: x30
STACK CFI 2de30 .cfa: sp 464 +
STACK CFI 2de38 .cfa: sp 576 + .ra: .cfa -568 + ^ x29: .cfa -576 + ^
STACK CFI 2de3c .cfa: x29 576 +
STACK CFI 2de40 x27: .cfa -496 + ^ x28: .cfa -488 + ^
STACK CFI 2de58 v8: .cfa -480 + ^ x19: .cfa -560 + ^ x20: .cfa -552 + ^ x21: .cfa -544 + ^ x22: .cfa -536 + ^ x23: .cfa -528 + ^ x24: .cfa -520 + ^ x25: .cfa -512 + ^ x26: .cfa -504 + ^
STACK CFI 2e294 v8: v8
STACK CFI 2e298 x19: x19 x20: x20
STACK CFI 2e29c x21: x21 x22: x22
STACK CFI 2e2a0 x23: x23 x24: x24
STACK CFI 2e2a4 x25: x25 x26: x26
STACK CFI 2e2a8 x27: x27 x28: x28
STACK CFI 2e2ac .cfa: sp 464 + .ra: .ra x29: x29
STACK CFI 2e2b0 .cfa: sp 352 +
STACK CFI INIT 2e2b4 2d0 .cfa: sp 0 + .ra: x30
STACK CFI 2e2b8 .cfa: sp 464 +
STACK CFI 2e2c0 .cfa: sp 544 + .ra: .cfa -536 + ^ x29: .cfa -544 + ^
STACK CFI 2e2c4 .cfa: x29 544 +
STACK CFI 2e2d4 x19: .cfa -528 + ^ x20: .cfa -520 + ^ x21: .cfa -512 + ^ x22: .cfa -504 + ^ x23: .cfa -496 + ^ x24: .cfa -488 + ^ x25: .cfa -480 + ^ x26: .cfa -472 + ^
STACK CFI 2e56c x19: x19 x20: x20
STACK CFI 2e570 x21: x21 x22: x22
STACK CFI 2e574 x23: x23 x24: x24
STACK CFI 2e578 x25: x25 x26: x26
STACK CFI 2e57c .cfa: sp 464 + .ra: .ra x29: x29
STACK CFI 2e580 .cfa: sp 384 +
STACK CFI INIT 2e584 540 .cfa: sp 0 + .ra: x30
STACK CFI 2e588 .cfa: sp 416 + .ra: .cfa -408 + ^ x29: .cfa -416 + ^
STACK CFI 2e590 .cfa: x29 416 +
STACK CFI 2e594 x25: .cfa -352 + ^ x26: .cfa -344 + ^
STACK CFI 2e5b0 x19: .cfa -400 + ^ x20: .cfa -392 + ^ x21: .cfa -384 + ^ x22: .cfa -376 + ^ x23: .cfa -368 + ^ x24: .cfa -360 + ^ x27: .cfa -336 + ^ x28: .cfa -328 + ^
STACK CFI 2eaac x19: x19 x20: x20
STACK CFI 2eab0 x21: x21 x22: x22
STACK CFI 2eab4 x23: x23 x24: x24
STACK CFI 2eab8 x25: x25 x26: x26
STACK CFI 2eabc x27: x27 x28: x28
STACK CFI 2eac0 .cfa: sp 0 + .ra: .ra x29: x29
STACK CFI INIT 2351c 4 .cfa: sp 0 + .ra: x30
STACK CFI INIT 23520 4 .cfa: sp 0 + .ra: x30
STACK CFI INIT 23524 8 .cfa: sp 0 + .ra: x30
STACK CFI INIT 2354c 8 .cfa: sp 0 + .ra: x30
STACK CFI INIT 23554 4 .cfa: sp 0 + .ra: x30
STACK CFI INIT 23558 8 .cfa: sp 0 + .ra: x30
STACK CFI INIT 2eac4 4 .cfa: sp 0 + .ra: x30
STACK CFI INIT 235c8 8 .cfa: sp 0 + .ra: x30
STACK CFI INIT 235d0 1c .cfa: sp 0 + .ra: x30
STACK CFI INIT 235ec 24 .cfa: sp 0 + .ra: x30
STACK CFI INIT 23610 6c .cfa: sp 0 + .ra: x30
STACK CFI INIT 2367c 4 .cfa: sp 0 + .ra: x30
STACK CFI INIT 23680 8 .cfa: sp 0 + .ra: x30
STACK CFI INIT 23688 40 .cfa: sp 0 + .ra: x30
STACK CFI 2368c .cfa: sp 32 + .ra: .cfa -24 + ^ x29: .cfa -32 + ^
STACK CFI 23690 .cfa: x29 32 +
STACK CFI 23694 x19: .cfa -16 + ^
STACK CFI 236c0 x19: x19
STACK CFI 236c4 .cfa: sp 0 + .ra: .ra x29: x29
STACK CFI INIT 236c8 8 .cfa: sp 0 + .ra: x30
STACK CFI INIT 2eac8 3c .cfa: sp 0 + .ra: x30
STACK CFI 2eacc .cfa: sp 32 + .ra: .cfa -24 + ^ x29: .cfa -32 + ^
STACK CFI 2ead4 .cfa: x29 32 +
STACK CFI 2ead8 x19: .cfa -16 + ^
STACK CFI 2eafc x19: x19
STACK CFI 2eb00 .cfa: sp 0 + .ra: .ra x29: x29
STACK CFI INIT 237ec a8 .cfa: sp 0 + .ra: x30
STACK CFI 237f0 .cfa: sp 64 + .ra: .cfa -56 + ^ x29: .cfa -64 + ^
STACK CFI 237f4 .cfa: x29 64 +
STACK CFI 23800 x19: .cfa -48 + ^ x20: .cfa -40 + ^ x21: .cfa -32 + ^ x22: .cfa -24 + ^ x23: .cfa -16 + ^
STACK CFI 23884 x23: x23
STACK CFI 23888 x19: x19 x20: x20
STACK CFI 2388c x21: x21 x22: x22
STACK CFI 23890 .cfa: sp 0 + .ra: .ra x29: x29
STACK CFI INIT 2eb04 4 .cfa: sp 0 + .ra: x30
STACK CFI INIT 23738 b4 .cfa: sp 0 + .ra: x30
STACK CFI 2373c .cfa: sp 64 + .ra: .cfa -56 + ^ x29: .cfa -64 + ^
STACK CFI 23740 .cfa: x29 64 +
STACK CFI 2374c x19: .cfa -48 + ^ x20: .cfa -40 + ^ x21: .cfa -32 + ^ x22: .cfa -24 + ^ x23: .cfa -16 + ^
STACK CFI 237dc x23: x23
STACK CFI 237e0 x19: x19 x20: x20
STACK CFI 237e4 x21: x21 x22: x22
STACK CFI 237e8 .cfa: sp 0 + .ra: .ra x29: x29
STACK CFI INIT 23894 14 .cfa: sp 0 + .ra: x30
STACK CFI INIT 238a8 24 .cfa: sp 0 + .ra: x30
STACK CFI 238ac .cfa: sp 32 + .ra: .cfa -24 + ^ x29: .cfa -32 + ^
STACK CFI 238b0 .cfa: x29 32 +
STACK CFI 238b4 x19: .cfa -16 + ^
STACK CFI 238c4 x19: x19
STACK CFI 238c8 .cfa: sp 0 + .ra: .ra x29: x29
STACK CFI INIT 238cc 14 .cfa: sp 0 + .ra: x30
STACK CFI INIT 238e0 24 .cfa: sp 0 + .ra: x30
STACK CFI 238e4 .cfa: sp 32 + .ra: .cfa -24 + ^ x29: .cfa -32 + ^
STACK CFI 238e8 .cfa: x29 32 +
STACK CFI 238ec x19: .cfa -16 + ^
STACK CFI 238fc x19: x19
STACK CFI 23900 .cfa: sp 0 + .ra: .ra x29: x29
STACK CFI INIT 2eb08 14 .cfa: sp 0 + .ra: x30
STACK CFI INIT 2eb1c 24 .cfa: sp 0 + .ra: x30
STACK CFI 2eb20 .cfa: sp 32 + .ra: .cfa -24 + ^ x29: .cfa -32 + ^
STACK CFI 2eb24 .cfa: x29 32 +
STACK CFI 2eb28 x19: .cfa -16 + ^
STACK CFI 2eb38 x19: x19
STACK CFI 2eb3c .cfa: sp 0 + .ra: .ra x29: x29
STACK CFI INIT 24794 b0 .cfa: sp 0 + .ra: x30
STACK CFI 24798 .cfa: sp 64 + .ra: .cfa -56 + ^ x29: .cfa -64 + ^
STACK CFI 2479c .cfa: x29 64 +
STACK CFI 247a8 x19: .cfa -48 + ^ x20: .cfa -40 + ^ x21: .cfa -32 + ^ x22: .cfa -24 + ^ x23: .cfa -16 + ^
STACK CFI 24834 x23: x23
STACK CFI 24838 x19: x19 x20: x20
STACK CFI 2483c x21: x21 x22: x22
STACK CFI 24840 .cfa: sp 0 + .ra: .ra x29: x29
STACK CFI INIT 2eb40 18 .cfa: sp 0 + .ra: x30
STACK CFI INIT 24844 40 .cfa: sp 0 + .ra: x30
STACK CFI 24848 .cfa: sp 32 + .ra: .cfa -24 + ^ x29: .cfa -32 + ^
STACK CFI 24854 .cfa: x29 32 +
STACK CFI 24858 x19: .cfa -16 + ^
STACK CFI 2487c x19: x19
STACK CFI 24880 .cfa: sp 0 + .ra: .ra x29: x29
STACK CFI INIT 248a0 48 .cfa: sp 0 + .ra: x30
STACK CFI 248a4 .cfa: sp 32 + .ra: .cfa -24 + ^ x29: .cfa -32 + ^
STACK CFI 248a8 .cfa: x29 32 +
STACK CFI 248ac x19: .cfa -16 + ^
STACK CFI 248e0 x19: x19
STACK CFI 248e4 .cfa: sp 0 + .ra: .ra x29: x29
STACK CFI INIT 248e8 30 .cfa: sp 0 + .ra: x30
STACK CFI INIT 24940 34 .cfa: sp 0 + .ra: x30
STACK CFI 24948 .cfa: sp 32 + .ra: .cfa -24 + ^ x29: .cfa -32 + ^
STACK CFI 2494c .cfa: x29 32 +
STACK CFI 24954 x19: .cfa -16 + ^
STACK CFI 2496c x19: x19
STACK CFI 24970 .cfa: sp 0 + .ra: .ra x29: x29
STACK CFI INIT 24974 24 .cfa: sp 0 + .ra: x30
STACK CFI 24978 .cfa: sp 32 + .ra: .cfa -24 + ^ x29: .cfa -32 + ^
STACK CFI 2497c .cfa: x29 32 +
STACK CFI 24980 x19: .cfa -16 + ^
STACK CFI 24990 x19: x19
STACK CFI 24994 .cfa: sp 0 + .ra: .ra x29: x29
STACK CFI INIT 24998 60 .cfa: sp 0 + .ra: x30
STACK CFI 2499c .cfa: sp 48 + .ra: .cfa -40 + ^ x29: .cfa -48 + ^
STACK CFI 249a0 .cfa: x29 48 +
STACK CFI 249a8 x19: .cfa -32 + ^ x20: .cfa -24 + ^ x21: .cfa -16 + ^
STACK CFI 249ec x19: x19 x20: x20
STACK CFI 249f0 x21: x21
STACK CFI 249f4 .cfa: sp 0 + .ra: .ra x29: x29
STACK CFI INIT 249f8 8 .cfa: sp 0 + .ra: x30
STACK CFI INIT 24a00 fc .cfa: sp 0 + .ra: x30
STACK CFI 24a04 .cfa: sp 96 + .ra: .cfa -88 + ^ x29: .cfa -96 + ^
STACK CFI 24a0c .cfa: x29 96 +
STACK CFI 24a18 x19: .cfa -80 + ^ x20: .cfa -72 + ^ x21: .cfa -64 + ^ x22: .cfa -56 + ^ x23: .cfa -48 + ^ x24: .cfa -40 + ^
STACK CFI 24aec x21: x21 x22: x22
STACK CFI 24af0 x19: x19 x20: x20
STACK CFI 24af4 x23: x23 x24: x24
STACK CFI 24af8 .cfa: sp 0 + .ra: .ra x29: x29
STACK CFI INIT 24afc b4 .cfa: sp 0 + .ra: x30
STACK CFI 24b00 .cfa: sp 48 + .ra: .cfa -40 + ^ x29: .cfa -48 + ^
STACK CFI 24b04 .cfa: x29 48 +
STACK CFI 24b08 x19: .cfa -32 + ^ x20: .cfa -24 + ^
STACK CFI 24b18 x21: .cfa -16 + ^
STACK CFI 24ba4 x21: x21
STACK CFI 24ba8 x19: x19 x20: x20
STACK CFI 24bac .cfa: sp 0 + .ra: .ra x29: x29
STACK CFI INIT 24bb0 b0 .cfa: sp 0 + .ra: x30
STACK CFI 24bb4 .cfa: sp 48 + .ra: .cfa -40 + ^ x29: .cfa -48 + ^
STACK CFI 24bb8 .cfa: x29 48 +
STACK CFI 24bc0 x19: .cfa -32 + ^ x20: .cfa -24 + ^ x21: .cfa -16 + ^
STACK CFI 24c40 x21: x21
STACK CFI 24c58 x19: x19 x20: x20
STACK CFI 24c5c .cfa: sp 0 + .ra: .ra x29: x29
STACK CFI INIT 24c60 98 .cfa: sp 0 + .ra: x30
STACK CFI 24c64 .cfa: sp 64 + .ra: .cfa -56 + ^ x29: .cfa -64 + ^
STACK CFI 24c68 .cfa: x29 64 +
STACK CFI 24c70 x19: .cfa -48 + ^ x20: .cfa -40 + ^ x21: .cfa -32 + ^
STACK CFI 24cec x19: x19 x20: x20
STACK CFI 24cf0 x21: x21
STACK CFI 24cf4 .cfa: sp 0 + .ra: .ra x29: x29
STACK CFI INIT 24cf8 1c .cfa: sp 0 + .ra: x30
STACK CFI 24cfc .cfa: sp 16 + .ra: .cfa -8 + ^ x29: .cfa -16 + ^
STACK CFI 24d00 .cfa: x29 16 +
STACK CFI 24d10 .cfa: sp 0 + .ra: .ra x29: x29
STACK CFI INIT 24d14 3c .cfa: sp 0 + .ra: x30
STACK CFI 24d18 .cfa: sp 16 + .ra: .cfa -8 + ^ x29: .cfa -16 + ^
STACK CFI 24d1c .cfa: x29 16 +
STACK CFI 24d4c .cfa: sp 0 + .ra: .ra x29: x29
STACK CFI INIT 0 54 .cfa: sp 0 + .ra: x30
STACK CFI 4 .cfa: sp 48 + .ra: .cfa -40 + ^ x29: .cfa -48 + ^
STACK CFI 8 .cfa: x29 48 +
STACK CFI c x19: .cfa -32 + ^
STACK CFI 4c x19: x19
STACK CFI 50 .cfa: sp 0 + .ra: .ra x29: x29
STACK CFI INIT 250a4 58 .cfa: sp 0 + .ra: x30
STACK CFI 250a8 .cfa: sp 48 + .ra: .cfa -40 + ^ x29: .cfa -48 + ^
STACK CFI 250ac .cfa: x29 48 +
STACK CFI 250b0 x19: .cfa -32 + ^ x20: .cfa -24 + ^
STACK CFI 250b8 x21: .cfa -16 + ^
STACK CFI 250f0 x19: x19 x20: x20
STACK CFI 250f4 x21: x21
STACK CFI 250f8 .cfa: sp 0 + .ra: .ra x29: x29
STACK CFI INIT 0 c8 .cfa: sp 0 + .ra: x30
STACK CFI 4 .cfa: sp 48 + .ra: .cfa -40 + ^ x29: .cfa -48 + ^
STACK CFI 8 .cfa: x29 48 +
STACK CFI 10 x19: .cfa -32 + ^ x20: .cfa -24 + ^ x21: .cfa -16 + ^
STACK CFI b4 x21: x21
STACK CFI c0 x19: x19 x20: x20
STACK CFI c4 .cfa: sp 0 + .ra: .ra x29: x29
STACK CFI INIT 0 f4 .cfa: sp 0 + .ra: x30
STACK CFI 4 .cfa: sp 48 + .ra: .cfa -40 + ^ x29: .cfa -48 + ^
STACK CFI 8 .cfa: x29 48 +
STACK CFI c x21: .cfa -16 + ^ x22: .cfa -8 + ^
STACK CFI 18 x19: .cfa -32 + ^ x20: .cfa -24 + ^
STACK CFI e8 x19: x19 x20: x20
STACK CFI ec x21: x21 x22: x22
STACK CFI f0 .cfa: sp 0 + .ra: .ra x29: x29
STACK CFI INIT 251f0 8c .cfa: sp 0 + .ra: x30
STACK CFI 251f4 .cfa: sp 48 + .ra: .cfa -40 + ^ x29: .cfa -48 + ^
STACK CFI 251f8 .cfa: x29 48 +
STACK CFI 251fc x19: .cfa -32 + ^
STACK CFI 25268 x19: x19
STACK CFI 2526c .cfa: sp 0 + .ra: .ra x29: x29
STACK CFI 25270 .cfa: x29 48 + .ra: .cfa -40 + ^ x19: .cfa -32 + ^ x29: .cfa -48 + ^
STACK CFI 25274 x19: x19
STACK CFI 25278 .cfa: sp 0 + .ra: .ra x29: x29
STACK CFI INIT 2527c c .cfa: sp 0 + .ra: x30
STACK CFI INIT 25288 10 .cfa: sp 0 + .ra: x30
STACK CFI INIT 25298 24 .cfa: sp 0 + .ra: x30
STACK CFI 2529c .cfa: sp 32 + .ra: .cfa -24 + ^ x29: .cfa -32 + ^
STACK CFI 252a0 .cfa: x29 32 +
STACK CFI 252a4 x19: .cfa -16 + ^
STACK CFI 252b4 x19: x19
STACK CFI 252b8 .cfa: sp 0 + .ra: .ra x29: x29
STACK CFI INIT 252bc 10 .cfa: sp 0 + .ra: x30
STACK CFI INIT 252cc c .cfa: sp 0 + .ra: x30
STACK CFI INIT 252d8 8c .cfa: sp 0 + .ra: x30
STACK CFI 252dc .cfa: sp 48 + .ra: .cfa -40 + ^ x29: .cfa -48 + ^
STACK CFI 252e0 .cfa: x29 48 +
STACK CFI 252e4 x19: .cfa -32 + ^
STACK CFI 25350 x19: x19
STACK CFI 25354 .cfa: sp 0 + .ra: .ra x29: x29
STACK CFI 25358 .cfa: x29 48 + .ra: .cfa -40 + ^ x19: .cfa -32 + ^ x29: .cfa -48 + ^
STACK CFI 2535c x19: x19
STACK CFI 25360 .cfa: sp 0 + .ra: .ra x29: x29
STACK CFI INIT 25364 c .cfa: sp 0 + .ra: x30
STACK CFI INIT 25370 10 .cfa: sp 0 + .ra: x30
STACK CFI INIT 25380 24 .cfa: sp 0 + .ra: x30
STACK CFI 25384 .cfa: sp 32 + .ra: .cfa -24 + ^ x29: .cfa -32 + ^
STACK CFI 25388 .cfa: x29 32 +
STACK CFI 2538c x19: .cfa -16 + ^
STACK CFI 2539c x19: x19
STACK CFI 253a0 .cfa: sp 0 + .ra: .ra x29: x29
STACK CFI INIT 253a4 10 .cfa: sp 0 + .ra: x30
STACK CFI INIT 253b4 c .cfa: sp 0 + .ra: x30
STACK CFI INIT 253c0 e0 .cfa: sp 0 + .ra: x30
STACK CFI 253c4 .cfa: sp 48 + .ra: .cfa -40 + ^ x29: .cfa -48 + ^
STACK CFI 253c8 .cfa: x29 48 +
STACK CFI 253cc x19: .cfa -32 + ^ x20: .cfa -24 + ^
STACK CFI 2548c x19: x19 x20: x20
STACK CFI 25490 .cfa: sp 0 + .ra: .ra x29: x29
STACK CFI 25494 .cfa: x29 48 + .ra: .cfa -40 + ^ x19: .cfa -32 + ^ x20: .cfa -24 + ^ x29: .cfa -48 + ^
STACK CFI 25498 x19: x19 x20: x20
STACK CFI 2549c .cfa: sp 0 + .ra: .ra x29: x29
STACK CFI INIT 254a0 c .cfa: sp 0 + .ra: x30
STACK CFI INIT 254ac cc .cfa: sp 0 + .ra: x30
STACK CFI 254b0 .cfa: sp 48 + .ra: .cfa -40 + ^ x29: .cfa -48 + ^
STACK CFI 254b4 .cfa: x29 48 +
STACK CFI 254b8 x19: .cfa -32 + ^ x20: .cfa -24 + ^
STACK CFI 25564 x19: x19 x20: x20
STACK CFI 25568 .cfa: sp 0 + .ra: .ra x29: x29
STACK CFI 2556c .cfa: x29 48 + .ra: .cfa -40 + ^ x19: .cfa -32 + ^ x20: .cfa -24 + ^ x29: .cfa -48 + ^
STACK CFI 25570 x19: x19 x20: x20
STACK CFI 25574 .cfa: sp 0 + .ra: .ra x29: x29
STACK CFI INIT 25578 c .cfa: sp 0 + .ra: x30
STACK CFI INIT 25584 c .cfa: sp 0 + .ra: x30
STACK CFI INIT 25590 8 .cfa: sp 0 + .ra: x30
STACK CFI INIT 25598 10 .cfa: sp 0 + .ra: x30
STACK CFI INIT 255a8 24 .cfa: sp 0 + .ra: x30
STACK CFI 255ac .cfa: sp 32 + .ra: .cfa -24 + ^ x29: .cfa -32 + ^
STACK CFI 255b0 .cfa: x29 32 +
STACK CFI 255b4 x19: .cfa -16 + ^
STACK CFI 255c4 x19: x19
STACK CFI 255c8 .cfa: sp 0 + .ra: .ra x29: x29
STACK CFI INIT 255cc 8 .cfa: sp 0 + .ra: x30
STACK CFI INIT 255d4 10 .cfa: sp 0 + .ra: x30
STACK CFI INIT 255e4 c .cfa: sp 0 + .ra: x30
STACK CFI INIT 255f0 8 .cfa: sp 0 + .ra: x30
STACK CFI INIT 255f8 10 .cfa: sp 0 + .ra: x30
STACK CFI INIT 25608 24 .cfa: sp 0 + .ra: x30
STACK CFI 2560c .cfa: sp 32 + .ra: .cfa -24 + ^ x29: .cfa -32 + ^
STACK CFI 25610 .cfa: x29 32 +
STACK CFI 25614 x19: .cfa -16 + ^
STACK CFI 25624 x19: x19
STACK CFI 25628 .cfa: sp 0 + .ra: .ra x29: x29
STACK CFI INIT 2562c 8 .cfa: sp 0 + .ra: x30
STACK CFI INIT 25634 10 .cfa: sp 0 + .ra: x30
STACK CFI INIT 25644 5c .cfa: sp 0 + .ra: x30
STACK CFI 25648 .cfa: sp 32 + .ra: .cfa -24 + ^ x29: .cfa -32 + ^
STACK CFI 2564c .cfa: x29 32 +
STACK CFI 25650 x19: .cfa -16 + ^
STACK CFI 25698 x19: x19
STACK CFI 2569c .cfa: sp 0 + .ra: .ra x29: x29
STACK CFI INIT 256a0 78 .cfa: sp 0 + .ra: x30
STACK CFI 256a4 .cfa: sp 32 + .ra: .cfa -24 + ^ x29: .cfa -32 + ^
STACK CFI 256ac .cfa: x29 32 +
STACK CFI 256b0 x19: .cfa -16 + ^
STACK CFI 25710 x19: x19
STACK CFI 25714 .cfa: sp 0 + .ra: .ra x29: x29
STACK CFI INIT 25718 50 .cfa: sp 0 + .ra: x30
STACK CFI 2571c .cfa: sp 32 + .ra: .cfa -24 + ^ x29: .cfa -32 + ^
STACK CFI 25720 .cfa: x29 32 +
STACK CFI 25724 x19: .cfa -16 + ^
STACK CFI 25754 x19: x19
STACK CFI 25758 .cfa: sp 0 + .ra: .ra x29: x29
STACK CFI 2575c .cfa: x29 32 + .ra: .cfa -24 + ^ x19: .cfa -16 + ^ x29: .cfa -32 + ^
STACK CFI 25760 x19: x19
STACK CFI 25764 .cfa: sp 0 + .ra: .ra x29: x29
STACK CFI INIT 0 cc .cfa: sp 0 + .ra: x30
STACK CFI 4 .cfa: sp 80 + .ra: .cfa -72 + ^ x29: .cfa -80 + ^
STACK CFI 8 .cfa: x29 80 +
STACK CFI 10 x19: .cfa -64 + ^ x20: .cfa -56 + ^ x21: .cfa -48 + ^
STACK CFI bc x21: x21
STACK CFI c4 x19: x19 x20: x20
STACK CFI c8 .cfa: sp 0 + .ra: .ra x29: x29
STACK CFI INIT 25768 13c .cfa: sp 0 + .ra: x30
STACK CFI 2576c .cfa: sp 64 + .ra: .cfa -56 + ^ x29: .cfa -64 + ^
STACK CFI 25770 .cfa: x29 64 +
STACK CFI 25778 x19: .cfa -48 + ^ x20: .cfa -40 + ^ x21: .cfa -32 + ^ x22: .cfa -24 + ^
STACK CFI 25898 x19: x19 x20: x20
STACK CFI 2589c x21: x21 x22: x22
STACK CFI 258a0 .cfa: sp 0 + .ra: .ra x29: x29
STACK CFI INIT 25964 104 .cfa: sp 0 + .ra: x30
STACK CFI 25968 .cfa: sp 80 + .ra: .cfa -72 + ^ x29: .cfa -80 + ^
STACK CFI 2596c .cfa: x29 80 +
STACK CFI 25978 x19: .cfa -64 + ^ x20: .cfa -56 + ^ x21: .cfa -48 + ^ x22: .cfa -40 + ^ x23: .cfa -32 + ^ x24: .cfa -24 + ^
STACK CFI 25a58 x19: x19 x20: x20
STACK CFI 25a5c x21: x21 x22: x22
STACK CFI 25a60 x23: x23 x24: x24
STACK CFI 25a64 .cfa: sp 0 + .ra: .ra x29: x29
STACK CFI INIT 0 cc .cfa: sp 0 + .ra: x30
STACK CFI 4 .cfa: sp 80 + .ra: .cfa -72 + ^ x29: .cfa -80 + ^
STACK CFI 8 .cfa: x29 80 +
STACK CFI 10 x19: .cfa -64 + ^ x20: .cfa -56 + ^ x21: .cfa -48 + ^
STACK CFI bc x21: x21
STACK CFI c4 x19: x19 x20: x20
STACK CFI c8 .cfa: sp 0 + .ra: .ra x29: x29
STACK CFI INIT 25b28 2c .cfa: sp 0 + .ra: x30
STACK CFI INIT 25b54 5c .cfa: sp 0 + .ra: x30
STACK CFI 25b58 .cfa: sp 16 + .ra: .cfa -8 + ^ x29: .cfa -16 + ^
STACK CFI 25b5c .cfa: x29 16 +
STACK CFI 25bac .cfa: sp 0 + .ra: .ra x29: x29
STACK CFI INIT 0 154 .cfa: sp 0 + .ra: x30
STACK CFI 4 .cfa: sp 80 + .ra: .cfa -72 + ^ x29: .cfa -80 + ^
STACK CFI c .cfa: x29 80 +
STACK CFI 18 x19: .cfa -64 + ^ x20: .cfa -56 + ^ x21: .cfa -48 + ^ x22: .cfa -40 + ^ x23: .cfa -32 + ^
STACK CFI 144 x23: x23
STACK CFI 148 x19: x19 x20: x20
STACK CFI 14c x21: x21 x22: x22
STACK CFI 150 .cfa: sp 0 + .ra: .ra x29: x29
STACK CFI INIT 0 2ac .cfa: sp 0 + .ra: x30
STACK CFI 4 .cfa: sp 272 + .ra: .cfa -264 + ^ x29: .cfa -272 + ^
STACK CFI c .cfa: x29 272 +
STACK CFI 10 x19: .cfa -256 + ^ x20: .cfa -248 + ^
STACK CFI 20 x21: .cfa -240 + ^ x22: .cfa -232 + ^ x23: .cfa -224 + ^ x24: .cfa -216 + ^ x25: .cfa -208 + ^
STACK CFI 298 x19: x19 x20: x20
STACK CFI 29c x21: x21 x22: x22
STACK CFI 2a0 x23: x23 x24: x24
STACK CFI 2a4 x25: x25
STACK CFI 2a8 .cfa: sp 0 + .ra: .ra x29: x29
STACK CFI INIT 0 a8 .cfa: sp 0 + .ra: x30
STACK CFI 4 .cfa: sp 128 + .ra: .cfa -120 + ^ x29: .cfa -128 + ^
STACK CFI 8 .cfa: x29 128 +
STACK CFI 14 x19: .cfa -112 + ^ x20: .cfa -104 + ^ x21: .cfa -96 + ^ x22: .cfa -88 + ^ x23: .cfa -80 + ^
STACK CFI 98 x23: x23
STACK CFI 9c x19: x19 x20: x20
STACK CFI a0 x21: x21 x22: x22
STACK CFI a4 .cfa: sp 0 + .ra: .ra x29: x29
STACK CFI INIT 26188 54 .cfa: sp 0 + .ra: x30
STACK CFI 2618c .cfa: sp 64 + .ra: .cfa -56 + ^ x29: .cfa -64 + ^
STACK CFI 26190 .cfa: x29 64 +
STACK CFI 26194 x19: .cfa -48 + ^ x20: .cfa -40 + ^
STACK CFI 261d4 x19: x19 x20: x20
STACK CFI 261d8 .cfa: sp 0 + .ra: .ra x29: x29
STACK CFI INIT 261dc 64 .cfa: sp 0 + .ra: x30
STACK CFI 261e0 .cfa: sp 64 + .ra: .cfa -56 + ^ x29: .cfa -64 + ^
STACK CFI 261e4 .cfa: x29 64 +
STACK CFI 261e8 x19: .cfa -48 + ^ x20: .cfa -40 + ^
STACK CFI 26238 x19: x19 x20: x20
STACK CFI 2623c .cfa: sp 0 + .ra: .ra x29: x29
STACK CFI INIT 26240 54 .cfa: sp 0 + .ra: x30
STACK CFI 26244 .cfa: sp 64 + .ra: .cfa -56 + ^ x29: .cfa -64 + ^
STACK CFI 26248 .cfa: x29 64 +
STACK CFI 2624c x19: .cfa -48 + ^ x20: .cfa -40 + ^
STACK CFI 2628c x19: x19 x20: x20
STACK CFI 26290 .cfa: sp 0 + .ra: .ra x29: x29
STACK CFI INIT 26294 54 .cfa: sp 0 + .ra: x30
STACK CFI 26298 .cfa: sp 64 + .ra: .cfa -56 + ^ x29: .cfa -64 + ^
STACK CFI 2629c .cfa: x29 64 +
STACK CFI 262a0 x19: .cfa -48 + ^ x20: .cfa -40 + ^
STACK CFI 262e0 x19: x19 x20: x20
STACK CFI 262e4 .cfa: sp 0 + .ra: .ra x29: x29
STACK CFI INIT 262e8 54 .cfa: sp 0 + .ra: x30
STACK CFI 262ec .cfa: sp 64 + .ra: .cfa -56 + ^ x29: .cfa -64 + ^
STACK CFI 262f0 .cfa: x29 64 +
STACK CFI 262f4 x19: .cfa -48 + ^ x20: .cfa -40 + ^
STACK CFI 26334 x19: x19 x20: x20
STACK CFI 26338 .cfa: sp 0 + .ra: .ra x29: x29
STACK CFI INIT 0 f4 .cfa: sp 0 + .ra: x30
STACK CFI 4 .cfa: sp 80 + .ra: .cfa -72 + ^ x29: .cfa -80 + ^
STACK CFI c .cfa: x29 80 +
STACK CFI 18 x19: .cfa -64 + ^ x20: .cfa -56 + ^ x21: .cfa -48 + ^ x22: .cfa -40 + ^ x23: .cfa -32 + ^
STACK CFI e4 x23: x23
STACK CFI e8 x19: x19 x20: x20
STACK CFI ec x21: x21 x22: x22
STACK CFI f0 .cfa: sp 0 + .ra: .ra x29: x29
STACK CFI INIT 26440 8c .cfa: sp 0 + .ra: x30
STACK CFI 26444 .cfa: sp 64 + .ra: .cfa -56 + ^ x29: .cfa -64 + ^
STACK CFI 26448 .cfa: x29 64 +
STACK CFI 2644c x19: .cfa -48 + ^ x20: .cfa -40 + ^
STACK CFI 2645c x21: .cfa -32 + ^ x22: .cfa -24 + ^
STACK CFI 264c0 x19: x19 x20: x20
STACK CFI 264c4 x21: x21 x22: x22
STACK CFI 264c8 .cfa: sp 0 + .ra: .ra x29: x29
STACK CFI INIT 264cc 370 .cfa: sp 0 + .ra: x30
STACK CFI 264d0 .cfa: sp 368 + .ra: .cfa -360 + ^ x29: .cfa -368 + ^
STACK CFI 264d4 .cfa: x29 368 +
STACK CFI 264e8 x19: .cfa -352 + ^ x20: .cfa -344 + ^ x21: .cfa -336 + ^ x22: .cfa -328 + ^ x23: .cfa -320 + ^ x24: .cfa -312 + ^ x25: .cfa -304 + ^ x26: .cfa -296 + ^ x27: .cfa -288 + ^ x28: .cfa -280 + ^
STACK CFI 26824 x19: x19 x20: x20
STACK CFI 26828 x21: x21 x22: x22
STACK CFI 2682c x23: x23 x24: x24
STACK CFI 26830 x25: x25 x26: x26
STACK CFI 26834 x27: x27 x28: x28
STACK CFI 26838 .cfa: sp 0 + .ra: .ra x29: x29
STACK CFI INIT 26984 124 .cfa: sp 0 + .ra: x30
STACK CFI 26988 .cfa: sp 80 + .ra: .cfa -72 + ^ x29: .cfa -80 + ^
STACK CFI 26990 .cfa: x29 80 +
STACK CFI 2699c x19: .cfa -64 + ^ x20: .cfa -56 + ^ x21: .cfa -48 + ^ x22: .cfa -40 + ^ x23: .cfa -32 + ^
STACK CFI 26a98 x19: x19 x20: x20
STACK CFI 26a9c x21: x21 x22: x22
STACK CFI 26aa0 x23: x23
STACK CFI 26aa4 .cfa: sp 0 + .ra: .ra x29: x29
STACK CFI INIT 26aa8 88 .cfa: sp 0 + .ra: x30
STACK CFI 26aac .cfa: sp 336 + .ra: .cfa -328 + ^ x29: .cfa -336 + ^
STACK CFI 26ab4 .cfa: x29 336 +
STACK CFI 26ab8 x19: .cfa -320 + ^ x20: .cfa -312 + ^
STACK CFI 26ac0 x21: .cfa -304 + ^
STACK CFI 26b20 x21: x21
STACK CFI 26b28 x19: x19 x20: x20
STACK CFI 26b2c .cfa: sp 0 + .ra: .ra x29: x29
STACK CFI INIT 0 134 .cfa: sp 0 + .ra: x30
STACK CFI 4 .cfa: sp 224 + .ra: .cfa -216 + ^ x29: .cfa -224 + ^
STACK CFI 8 .cfa: x29 224 +
STACK CFI 14 x19: .cfa -208 + ^ x20: .cfa -200 + ^ x21: .cfa -192 + ^ x22: .cfa -184 + ^ x23: .cfa -176 + ^
STACK CFI 124 x23: x23
STACK CFI 128 x19: x19 x20: x20
STACK CFI 12c x21: x21 x22: x22
STACK CFI 130 .cfa: sp 0 + .ra: .ra x29: x29
STACK CFI INIT 2eb58 88 .cfa: sp 0 + .ra: x30
STACK CFI 2eb5c .cfa: sp 352 + .ra: .cfa -344 + ^ x29: .cfa -352 + ^
STACK CFI 2eb64 .cfa: x29 352 +
STACK CFI 2eb68 x19: .cfa -336 + ^ x20: .cfa -328 + ^
STACK CFI 2eb78 x21: .cfa -320 + ^
STACK CFI 2ebd4 x21: x21
STACK CFI 2ebd8 x19: x19 x20: x20
STACK CFI 2ebdc .cfa: sp 0 + .ra: .ra x29: x29
STACK CFI INIT 2ebe0 148 .cfa: sp 0 + .ra: x30
STACK CFI 2ebe4 .cfa: sp 224 + .ra: .cfa -216 + ^ x29: .cfa -224 + ^
STACK CFI 2ebe8 .cfa: x29 224 +
STACK CFI 2ebf4 x19: .cfa -208 + ^ x20: .cfa -200 + ^ x21: .cfa -192 + ^ x22: .cfa -184 + ^ x23: .cfa -176 + ^
STACK CFI 2ed18 x23: x23
STACK CFI 2ed1c x19: x19 x20: x20
STACK CFI 2ed20 x21: x21 x22: x22
STACK CFI 2ed24 .cfa: sp 0 + .ra: .ra x29: x29
STACK CFI INIT 2ed28 a7c .cfa: sp 0 + .ra: x30
STACK CFI 2ed2c .cfa: sp 4096 +
STACK CFI 2ed30 .cfa: sp 6352 +
STACK CFI 2ed34 .cfa: sp 6448 + .ra: .cfa -6440 + ^ x29: .cfa -6448 + ^
STACK CFI 2ed38 .cfa: x29 6448 +
STACK CFI 2ed3c x19: .cfa -6432 + ^ x20: .cfa -6424 + ^
STACK CFI 2ed48 x21: .cfa -6416 + ^ x22: .cfa -6408 + ^
STACK CFI 2ed60 x23: .cfa -6400 + ^ x24: .cfa -6392 + ^ x25: .cfa -6384 + ^ x26: .cfa -6376 + ^ x27: .cfa -6368 + ^ x28: .cfa -6360 + ^
STACK CFI 2f784 x19: x19 x20: x20
STACK CFI 2f788 x21: x21 x22: x22
STACK CFI 2f78c x23: x23 x24: x24
STACK CFI 2f790 x25: x25 x26: x26
STACK CFI 2f794 x27: x27 x28: x28
STACK CFI 2f798 .cfa: sp 6352 + .ra: .ra x29: x29
STACK CFI 2f79c .cfa: sp 4096 +
STACK CFI 2f7a0 .cfa: sp 4000 +
STACK CFI INIT 282a4 28 .cfa: sp 0 + .ra: x30
STACK CFI INIT 282cc 20 .cfa: sp 0 + .ra: x30
STACK CFI 282d0 .cfa: sp 32 + .ra: .cfa -24 + ^ x29: .cfa -32 + ^
STACK CFI 282d8 .cfa: x29 32 +
STACK CFI 282e8 .cfa: sp 0 + .ra: .ra x29: x29
STACK CFI INIT 282ec 20 .cfa: sp 0 + .ra: x30
STACK CFI 282f0 .cfa: sp 32 + .ra: .cfa -24 + ^ x29: .cfa -32 + ^
STACK CFI 282f8 .cfa: x29 32 +
STACK CFI 28308 .cfa: sp 0 + .ra: .ra x29: x29
STACK CFI INIT 2830c 110 .cfa: sp 0 + .ra: x30
STACK CFI 28310 .cfa: sp 32 + .ra: .cfa -24 + ^ x29: .cfa -32 + ^
STACK CFI 2831c .cfa: x29 32 +
STACK CFI 28398 .cfa: sp 0 + .ra: .ra x29: x29
STACK CFI 2839c .cfa: x29 32 + .ra: .cfa -24 + ^ x29: .cfa -32 + ^
STACK CFI INIT 2841c 124 .cfa: sp 0 + .ra: x30
STACK CFI 28420 .cfa: sp 80 + .ra: .cfa -72 + ^ x29: .cfa -80 + ^
STACK CFI 28424 .cfa: x29 80 +
STACK CFI 28430 x19: .cfa -64 + ^ x20: .cfa -56 + ^ x21: .cfa -48 + ^ x22: .cfa -40 + ^ x23: .cfa -32 + ^ x24: .cfa -24 + ^
STACK CFI 28530 x19: x19 x20: x20
STACK CFI 28534 x21: x21 x22: x22
STACK CFI 28538 x23: x23 x24: x24
STACK CFI 2853c .cfa: sp 0 + .ra: .ra x29: x29
STACK CFI INIT 0 9c .cfa: sp 0 + .ra: x30
STACK CFI 4 .cfa: sp 80 + .ra: .cfa -72 + ^ x29: .cfa -80 + ^
STACK CFI 8 .cfa: x29 80 +
STACK CFI 10 x19: .cfa -64 + ^ x20: .cfa -56 + ^ x21: .cfa -48 + ^
STACK CFI 8c x21: x21
STACK CFI 94 x19: x19 x20: x20
STACK CFI 98 .cfa: sp 0 + .ra: .ra x29: x29
STACK CFI INIT 285f0 60 .cfa: sp 0 + .ra: x30
STACK CFI 285f4 .cfa: sp 32 + .ra: .cfa -24 + ^ x29: .cfa -32 + ^
STACK CFI 285f8 .cfa: x29 32 +
STACK CFI 285fc x19: .cfa -16 + ^ x20: .cfa -8 + ^
STACK CFI 28648 x19: x19 x20: x20
STACK CFI 2864c .cfa: sp 0 + .ra: .ra x29: x29
STACK CFI INIT 28650 c4 .cfa: sp 0 + .ra: x30
STACK CFI 28654 .cfa: sp 48 + .ra: .cfa -40 + ^ x29: .cfa -48 + ^
STACK CFI 2865c .cfa: x29 48 +
STACK CFI 28664 x19: .cfa -32 + ^ x20: .cfa -24 + ^ x21: .cfa -16 + ^
STACK CFI 28708 x19: x19 x20: x20
STACK CFI 2870c x21: x21
STACK CFI 28710 .cfa: sp 0 + .ra: .ra x29: x29
STACK CFI INIT 28714 b8 .cfa: sp 0 + .ra: x30
STACK CFI 28718 .cfa: sp 48 + .ra: .cfa -40 + ^ x29: .cfa -48 + ^
STACK CFI 2871c .cfa: x29 48 +
STACK CFI 28724 x19: .cfa -32 + ^ x20: .cfa -24 + ^ x21: .cfa -16 + ^
STACK CFI 287c0 x21: x21
STACK CFI 287c4 x19: x19 x20: x20
STACK CFI 287c8 .cfa: sp 0 + .ra: .ra x29: x29
STACK CFI INIT 287cc 10c .cfa: sp 0 + .ra: x30
STACK CFI 287d0 .cfa: sp 64 + .ra: .cfa -56 + ^ x29: .cfa -64 + ^
STACK CFI 287d8 .cfa: x29 64 +
STACK CFI 287e0 x19: .cfa -48 + ^ x20: .cfa -40 + ^ x23: .cfa -16 + ^
STACK CFI 287e8 x21: .cfa -32 + ^ x22: .cfa -24 + ^
STACK CFI 288c8 x19: x19 x20: x20
STACK CFI 288cc x21: x21 x22: x22
STACK CFI 288d0 x23: x23
STACK CFI 288d4 .cfa: sp 0 + .ra: .ra x29: x29
STACK CFI INIT 288d8 f0 .cfa: sp 0 + .ra: x30
STACK CFI 288dc .cfa: sp 64 + .ra: .cfa -56 + ^ x29: .cfa -64 + ^
STACK CFI 288e4 .cfa: x29 64 +
STACK CFI 288f0 x19: .cfa -48 + ^ x20: .cfa -40 + ^ x21: .cfa -32 + ^ x22: .cfa -24 + ^ x23: .cfa -16 + ^
STACK CFI 289b8 x23: x23
STACK CFI 289bc x19: x19 x20: x20
STACK CFI 289c0 x21: x21 x22: x22
STACK CFI 289c4 .cfa: sp 0 + .ra: .ra x29: x29
STACK CFI INIT 2114c 6c .cfa: sp 0 + .ra: x30
STACK CFI 21150 .cfa: sp 32 + .ra: .cfa -24 + ^ x29: .cfa -32 + ^
STACK CFI 21154 .cfa: x29 32 +
STACK CFI 211b0 .cfa: sp 0 + .ra: .ra x29: x29
STACK CFI INIT 2351c 4 .cfa: sp 0 + .ra: x30
STACK CFI INIT 23520 4 .cfa: sp 0 + .ra: x30
STACK CFI INIT 23524 8 .cfa: sp 0 + .ra: x30
STACK CFI INIT 2354c 8 .cfa: sp 0 + .ra: x30
STACK CFI INIT 23554 4 .cfa: sp 0 + .ra: x30
STACK CFI INIT 23558 8 .cfa: sp 0 + .ra: x30
STACK CFI INIT 2f7a4 4 .cfa: sp 0 + .ra: x30
STACK CFI INIT 2f7a8 4 .cfa: sp 0 + .ra: x30
STACK CFI INIT 2f7ac 4 .cfa: sp 0 + .ra: x30
STACK CFI INIT 2f7b0 4 .cfa: sp 0 + .ra: x30
STACK CFI INIT 2f7b4 4 .cfa: sp 0 + .ra: x30
STACK CFI INIT 2f7b8 4 .cfa: sp 0 + .ra: x30
STACK CFI INIT 2f7bc 4 .cfa: sp 0 + .ra: x30
STACK CFI INIT 2f7c0 4 .cfa: sp 0 + .ra: x30
STACK CFI INIT 2f7c4 4 .cfa: sp 0 + .ra: x30
STACK CFI INIT 2f7c8 4 .cfa: sp 0 + .ra: x30
STACK CFI INIT 235c8 8 .cfa: sp 0 + .ra: x30
STACK CFI INIT 235d0 1c .cfa: sp 0 + .ra: x30
STACK CFI INIT 235ec 24 .cfa: sp 0 + .ra: x30
STACK CFI INIT 23610 6c .cfa: sp 0 + .ra: x30
STACK CFI INIT 2367c 4 .cfa: sp 0 + .ra: x30
STACK CFI INIT 23680 8 .cfa: sp 0 + .ra: x30
STACK CFI INIT 23688 40 .cfa: sp 0 + .ra: x30
STACK CFI 2368c .cfa: sp 32 + .ra: .cfa -24 + ^ x29: .cfa -32 + ^
STACK CFI 23690 .cfa: x29 32 +
STACK CFI 23694 x19: .cfa -16 + ^
STACK CFI 236c0 x19: x19
STACK CFI 236c4 .cfa: sp 0 + .ra: .ra x29: x29
STACK CFI INIT 236c8 8 .cfa: sp 0 + .ra: x30
STACK CFI INIT 2f7cc 4 .cfa: sp 0 + .ra: x30
STACK CFI INIT 2f7d0 4 .cfa: sp 0 + .ra: x30
STACK CFI INIT 2f7d4 4 .cfa: sp 0 + .ra: x30
STACK CFI INIT 2f7d8 4 .cfa: sp 0 + .ra: x30
STACK CFI INIT 2f7dc 4 .cfa: sp 0 + .ra: x30
STACK CFI INIT 2f7e0 4 .cfa: sp 0 + .ra: x30
STACK CFI INIT 2f7e4 4 .cfa: sp 0 + .ra: x30
STACK CFI INIT 2f7e8 4 .cfa: sp 0 + .ra: x30
STACK CFI INIT 2f7ec 4 .cfa: sp 0 + .ra: x30
STACK CFI INIT 2f7f0 4 .cfa: sp 0 + .ra: x30
STACK CFI INIT 237ec a8 .cfa: sp 0 + .ra: x30
STACK CFI 237f0 .cfa: sp 64 + .ra: .cfa -56 + ^ x29: .cfa -64 + ^
STACK CFI 237f4 .cfa: x29 64 +
STACK CFI 23800 x19: .cfa -48 + ^ x20: .cfa -40 + ^ x21: .cfa -32 + ^ x22: .cfa -24 + ^ x23: .cfa -16 + ^
STACK CFI 23884 x23: x23
STACK CFI 23888 x19: x19 x20: x20
STACK CFI 2388c x21: x21 x22: x22
STACK CFI 23890 .cfa: sp 0 + .ra: .ra x29: x29
STACK CFI INIT 23738 b4 .cfa: sp 0 + .ra: x30
STACK CFI 2373c .cfa: sp 64 + .ra: .cfa -56 + ^ x29: .cfa -64 + ^
STACK CFI 23740 .cfa: x29 64 +
STACK CFI 2374c x19: .cfa -48 + ^ x20: .cfa -40 + ^ x21: .cfa -32 + ^ x22: .cfa -24 + ^ x23: .cfa -16 + ^
STACK CFI 237dc x23: x23
STACK CFI 237e0 x19: x19 x20: x20
STACK CFI 237e4 x21: x21 x22: x22
STACK CFI 237e8 .cfa: sp 0 + .ra: .ra x29: x29
STACK CFI INIT 23894 14 .cfa: sp 0 + .ra: x30
STACK CFI INIT 238a8 24 .cfa: sp 0 + .ra: x30
STACK CFI 238ac .cfa: sp 32 + .ra: .cfa -24 + ^ x29: .cfa -32 + ^
STACK CFI 238b0 .cfa: x29 32 +
STACK CFI 238b4 x19: .cfa -16 + ^
STACK CFI 238c4 x19: x19
STACK CFI 238c8 .cfa: sp 0 + .ra: .ra x29: x29
STACK CFI INIT 238cc 14 .cfa: sp 0 + .ra: x30
STACK CFI INIT 238e0 24 .cfa: sp 0 + .ra: x30
STACK CFI 238e4 .cfa: sp 32 + .ra: .cfa -24 + ^ x29: .cfa -32 + ^
STACK CFI 238e8 .cfa: x29 32 +
STACK CFI 238ec x19: .cfa -16 + ^
STACK CFI 238fc x19: x19
STACK CFI 23900 .cfa: sp 0 + .ra: .ra x29: x29
STACK CFI INIT 2f7f4 14 .cfa: sp 0 + .ra: x30
STACK CFI INIT 2f808 24 .cfa: sp 0 + .ra: x30
STACK CFI 2f80c .cfa: sp 32 + .ra: .cfa -24 + ^ x29: .cfa -32 + ^
STACK CFI 2f810 .cfa: x29 32 +
STACK CFI 2f814 x19: .cfa -16 + ^
STACK CFI 2f824 x19: x19
STACK CFI 2f828 .cfa: sp 0 + .ra: .ra x29: x29
STACK CFI INIT 2f82c 14 .cfa: sp 0 + .ra: x30
STACK CFI INIT 2f840 24 .cfa: sp 0 + .ra: x30
STACK CFI 2f844 .cfa: sp 32 + .ra: .cfa -24 + ^ x29: .cfa -32 + ^
STACK CFI 2f848 .cfa: x29 32 +
STACK CFI 2f84c x19: .cfa -16 + ^
STACK CFI 2f85c x19: x19
STACK CFI 2f860 .cfa: sp 0 + .ra: .ra x29: x29
STACK CFI INIT 2f864 14 .cfa: sp 0 + .ra: x30
STACK CFI INIT 2f878 24 .cfa: sp 0 + .ra: x30
STACK CFI 2f87c .cfa: sp 32 + .ra: .cfa -24 + ^ x29: .cfa -32 + ^
STACK CFI 2f880 .cfa: x29 32 +
STACK CFI 2f884 x19: .cfa -16 + ^
STACK CFI 2f894 x19: x19
STACK CFI 2f898 .cfa: sp 0 + .ra: .ra x29: x29
STACK CFI INIT 2f89c 14 .cfa: sp 0 + .ra: x30
STACK CFI INIT 2f8b0 24 .cfa: sp 0 + .ra: x30
STACK CFI 2f8b4 .cfa: sp 32 + .ra: .cfa -24 + ^ x29: .cfa -32 + ^
STACK CFI 2f8b8 .cfa: x29 32 +
STACK CFI 2f8bc x19: .cfa -16 + ^
STACK CFI 2f8cc x19: x19
STACK CFI 2f8d0 .cfa: sp 0 + .ra: .ra x29: x29
STACK CFI INIT 2f8d4 14 .cfa: sp 0 + .ra: x30
STACK CFI INIT 2f8e8 24 .cfa: sp 0 + .ra: x30
STACK CFI 2f8ec .cfa: sp 32 + .ra: .cfa -24 + ^ x29: .cfa -32 + ^
STACK CFI 2f8f0 .cfa: x29 32 +
STACK CFI 2f8f4 x19: .cfa -16 + ^
STACK CFI 2f904 x19: x19
STACK CFI 2f908 .cfa: sp 0 + .ra: .ra x29: x29
STACK CFI INIT 2f90c 14 .cfa: sp 0 + .ra: x30
STACK CFI INIT 2f920 24 .cfa: sp 0 + .ra: x30
STACK CFI 2f924 .cfa: sp 32 + .ra: .cfa -24 + ^ x29: .cfa -32 + ^
STACK CFI 2f928 .cfa: x29 32 +
STACK CFI 2f92c x19: .cfa -16 + ^
STACK CFI 2f93c x19: x19
STACK CFI 2f940 .cfa: sp 0 + .ra: .ra x29: x29
STACK CFI INIT 2f944 14 .cfa: sp 0 + .ra: x30
STACK CFI INIT 2f958 24 .cfa: sp 0 + .ra: x30
STACK CFI 2f95c .cfa: sp 32 + .ra: .cfa -24 + ^ x29: .cfa -32 + ^
STACK CFI 2f960 .cfa: x29 32 +
STACK CFI 2f964 x19: .cfa -16 + ^
STACK CFI 2f974 x19: x19
STACK CFI 2f978 .cfa: sp 0 + .ra: .ra x29: x29
STACK CFI INIT 2f97c 14 .cfa: sp 0 + .ra: x30
STACK CFI INIT 2f990 24 .cfa: sp 0 + .ra: x30
STACK CFI 2f994 .cfa: sp 32 + .ra: .cfa -24 + ^ x29: .cfa -32 + ^
STACK CFI 2f998 .cfa: x29 32 +
STACK CFI 2f99c x19: .cfa -16 + ^
STACK CFI 2f9ac x19: x19
STACK CFI 2f9b0 .cfa: sp 0 + .ra: .ra x29: x29
STACK CFI INIT 2f9b4 14 .cfa: sp 0 + .ra: x30
STACK CFI INIT 2f9c8 24 .cfa: sp 0 + .ra: x30
STACK CFI 2f9cc .cfa: sp 32 + .ra: .cfa -24 + ^ x29: .cfa -32 + ^
STACK CFI 2f9d0 .cfa: x29 32 +
STACK CFI 2f9d4 x19: .cfa -16 + ^
STACK CFI 2f9e4 x19: x19
STACK CFI 2f9e8 .cfa: sp 0 + .ra: .ra x29: x29
STACK CFI INIT 2f9ec 14 .cfa: sp 0 + .ra: x30
STACK CFI INIT 2fa00 24 .cfa: sp 0 + .ra: x30
STACK CFI 2fa04 .cfa: sp 32 + .ra: .cfa -24 + ^ x29: .cfa -32 + ^
STACK CFI 2fa08 .cfa: x29 32 +
STACK CFI 2fa0c x19: .cfa -16 + ^
STACK CFI 2fa1c x19: x19
STACK CFI 2fa20 .cfa: sp 0 + .ra: .ra x29: x29
STACK CFI INIT 2fa24 3c .cfa: sp 0 + .ra: x30
STACK CFI 2fa28 .cfa: sp 32 + .ra: .cfa -24 + ^ x29: .cfa -32 + ^
STACK CFI 2fa30 .cfa: x29 32 +
STACK CFI 2fa34 x19: .cfa -16 + ^
STACK CFI 2fa58 x19: x19
STACK CFI 2fa5c .cfa: sp 0 + .ra: .ra x29: x29
STACK CFI INIT 2fa60 3c .cfa: sp 0 + .ra: x30
STACK CFI 2fa64 .cfa: sp 32 + .ra: .cfa -24 + ^ x29: .cfa -32 + ^
STACK CFI 2fa6c .cfa: x29 32 +
STACK CFI 2fa70 x19: .cfa -16 + ^
STACK CFI 2fa94 x19: x19
STACK CFI 2fa98 .cfa: sp 0 + .ra: .ra x29: x29
STACK CFI INIT 2fa9c 3c .cfa: sp 0 + .ra: x30
STACK CFI 2faa0 .cfa: sp 32 + .ra: .cfa -24 + ^ x29: .cfa -32 + ^
STACK CFI 2faa8 .cfa: x29 32 +
STACK CFI 2faac x19: .cfa -16 + ^
STACK CFI 2fad0 x19: x19
STACK CFI 2fad4 .cfa: sp 0 + .ra: .ra x29: x29
STACK CFI INIT 2fad8 3c .cfa: sp 0 + .ra: x30
STACK CFI 2fadc .cfa: sp 32 + .ra: .cfa -24 + ^ x29: .cfa -32 + ^
STACK CFI 2fae4 .cfa: x29 32 +
STACK CFI 2fae8 x19: .cfa -16 + ^
STACK CFI 2fb0c x19: x19
STACK CFI 2fb10 .cfa: sp 0 + .ra: .ra x29: x29
STACK CFI INIT 2fb14 3c .cfa: sp 0 + .ra: x30
STACK CFI 2fb18 .cfa: sp 32 + .ra: .cfa -24 + ^ x29: .cfa -32 + ^
STACK CFI 2fb20 .cfa: x29 32 +
STACK CFI 2fb24 x19: .cfa -16 + ^
STACK CFI 2fb48 x19: x19
STACK CFI 2fb4c .cfa: sp 0 + .ra: .ra x29: x29
STACK CFI INIT 2fb50 3c .cfa: sp 0 + .ra: x30
STACK CFI 2fb54 .cfa: sp 32 + .ra: .cfa -24 + ^ x29: .cfa -32 + ^
STACK CFI 2fb5c .cfa: x29 32 +
STACK CFI 2fb60 x19: .cfa -16 + ^
STACK CFI 2fb84 x19: x19
STACK CFI 2fb88 .cfa: sp 0 + .ra: .ra x29: x29
STACK CFI INIT 2fb8c 3c .cfa: sp 0 + .ra: x30
STACK CFI 2fb90 .cfa: sp 32 + .ra: .cfa -24 + ^ x29: .cfa -32 + ^
STACK CFI 2fb98 .cfa: x29 32 +
STACK CFI 2fb9c x19: .cfa -16 + ^
STACK CFI 2fbc0 x19: x19
STACK CFI 2fbc4 .cfa: sp 0 + .ra: .ra x29: x29
STACK CFI INIT 2fbc8 3c .cfa: sp 0 + .ra: x30
STACK CFI 2fbcc .cfa: sp 32 + .ra: .cfa -24 + ^ x29: .cfa -32 + ^
STACK CFI 2fbd4 .cfa: x29 32 +
STACK CFI 2fbd8 x19: .cfa -16 + ^
STACK CFI 2fbfc x19: x19
STACK CFI 2fc00 .cfa: sp 0 + .ra: .ra x29: x29
STACK CFI INIT 2fc04 3c .cfa: sp 0 + .ra: x30
STACK CFI 2fc08 .cfa: sp 32 + .ra: .cfa -24 + ^ x29: .cfa -32 + ^
STACK CFI 2fc10 .cfa: x29 32 +
STACK CFI 2fc14 x19: .cfa -16 + ^
STACK CFI 2fc38 x19: x19
STACK CFI 2fc3c .cfa: sp 0 + .ra: .ra x29: x29
STACK CFI INIT 2fc40 3c .cfa: sp 0 + .ra: x30
STACK CFI 2fc44 .cfa: sp 32 + .ra: .cfa -24 + ^ x29: .cfa -32 + ^
STACK CFI 2fc4c .cfa: x29 32 +
STACK CFI 2fc50 x19: .cfa -16 + ^
STACK CFI 2fc74 x19: x19
STACK CFI 2fc78 .cfa: sp 0 + .ra: .ra x29: x29
STACK CFI INIT 24794 b0 .cfa: sp 0 + .ra: x30
STACK CFI 24798 .cfa: sp 64 + .ra: .cfa -56 + ^ x29: .cfa -64 + ^
STACK CFI 2479c .cfa: x29 64 +
STACK CFI 247a8 x19: .cfa -48 + ^ x20: .cfa -40 + ^ x21: .cfa -32 + ^ x22: .cfa -24 + ^ x23: .cfa -16 + ^
STACK CFI 24834 x23: x23
STACK CFI 24838 x19: x19 x20: x20
STACK CFI 2483c x21: x21 x22: x22
STACK CFI 24840 .cfa: sp 0 + .ra: .ra x29: x29
STACK CFI INIT 2eb40 18 .cfa: sp 0 + .ra: x30
STACK CFI INIT 24844 40 .cfa: sp 0 + .ra: x30
STACK CFI 24848 .cfa: sp 32 + .ra: .cfa -24 + ^ x29: .cfa -32 + ^
STACK CFI 24854 .cfa: x29 32 +
STACK CFI 24858 x19: .cfa -16 + ^
STACK CFI 2487c x19: x19
STACK CFI 24880 .cfa: sp 0 + .ra: .ra x29: x29
STACK CFI INIT 24884 1c .cfa: sp 0 + .ra: x30
STACK CFI INIT 2fc7c c .cfa: sp 0 + .ra: x30
STACK CFI INIT 2fc88 184 .cfa: sp 0 + .ra: x30
STACK CFI 2fc8c .cfa: sp 528 +
STACK CFI 2fc94 .cfa: sp 608 + .ra: .cfa -600 + ^ x29: .cfa -608 + ^
STACK CFI 2fc98 .cfa: x29 608 +
STACK CFI 2fca0 x19: .cfa -592 + ^ x20: .cfa -584 + ^ x25: .cfa -544 + ^ x26: .cfa -536 + ^
STACK CFI 2fcb0 x21: .cfa -576 + ^ x22: .cfa -568 + ^ x23: .cfa -560 + ^ x24: .cfa -552 + ^
STACK CFI 2fdf4 x19: x19 x20: x20
STACK CFI 2fdf8 x21: x21 x22: x22
STACK CFI 2fdfc x23: x23 x24: x24
STACK CFI 2fe00 x25: x25 x26: x26
STACK CFI 2fe04 .cfa: sp 528 + .ra: .ra x29: x29
STACK CFI 2fe08 .cfa: sp 448 +
STACK CFI INIT 2fe0c 48 .cfa: sp 0 + .ra: x30
STACK CFI 2fe10 .cfa: sp 48 + .ra: .cfa -40 + ^ x29: .cfa -48 + ^
STACK CFI 2fe14 .cfa: x29 48 +
STACK CFI 2fe18 x19: .cfa -32 + ^ x20: .cfa -24 + ^
STACK CFI 2fe20 x21: .cfa -16 + ^
STACK CFI 2fe48 x21: x21
STACK CFI 2fe4c x19: x19 x20: x20
STACK CFI 2fe50 .cfa: sp 0 + .ra: .ra x29: x29
STACK CFI INIT 2fe54 10 .cfa: sp 0 + .ra: x30
STACK CFI INIT 2fe64 68 .cfa: sp 0 + .ra: x30
STACK CFI 2fe68 .cfa: sp 4096 +
STACK CFI 2fe7c .cfa: sp 4128 + .ra: .cfa -4120 + ^ x29: .cfa -4128 + ^
STACK CFI 2fe80 .cfa: x29 4128 +
STACK CFI 2fe84 x19: .cfa -4112 + ^ x20: .cfa -4104 + ^
STACK CFI 2fec0 x19: x19 x20: x20
STACK CFI 2fec4 .cfa: sp 4096 + .ra: .ra x29: x29
STACK CFI 2fec8 .cfa: sp 4064 +
STACK CFI INIT 2fecc ac .cfa: sp 0 + .ra: x30
STACK CFI 2fed0 .cfa: sp 48 + .ra: .cfa -40 + ^ x29: .cfa -48 + ^
STACK CFI 2fed4 .cfa: x29 48 +
STACK CFI 2fed8 x21: .cfa -16 + ^ x22: .cfa -8 + ^
STACK CFI 2fee4 x19: .cfa -32 + ^ x20: .cfa -24 + ^
STACK CFI 2ff58 x19: x19 x20: x20
STACK CFI 2ff5c x21: x21 x22: x22
STACK CFI 2ff60 .cfa: sp 0 + .ra: .ra x29: x29
STACK CFI 2ff68 .cfa: x29 48 + .ra: .cfa -40 + ^ x19: .cfa -32 + ^ x20: .cfa -24 + ^ x21: .cfa -16 + ^ x22: .cfa -8 + ^ x29: .cfa -48 + ^
STACK CFI 2ff6c x19: x19 x20: x20
STACK CFI 2ff70 x21: x21 x22: x22
STACK CFI 2ff74 .cfa: sp 0 + .ra: .ra x29: x29
STACK CFI INIT 248a0 48 .cfa: sp 0 + .ra: x30
STACK CFI 248a4 .cfa: sp 32 + .ra: .cfa -24 + ^ x29: .cfa -32 + ^
STACK CFI 248a8 .cfa: x29 32 +
STACK CFI 248ac x19: .cfa -16 + ^
STACK CFI 248e0 x19: x19
STACK CFI 248e4 .cfa: sp 0 + .ra: .ra x29: x29
STACK CFI INIT 248e8 30 .cfa: sp 0 + .ra: x30
STACK CFI INIT 24940 34 .cfa: sp 0 + .ra: x30
STACK CFI 24948 .cfa: sp 32 + .ra: .cfa -24 + ^ x29: .cfa -32 + ^
STACK CFI 2494c .cfa: x29 32 +
STACK CFI 24954 x19: .cfa -16 + ^
STACK CFI 2496c x19: x19
STACK CFI 24970 .cfa: sp 0 + .ra: .ra x29: x29
STACK CFI INIT 24974 24 .cfa: sp 0 + .ra: x30
STACK CFI 24978 .cfa: sp 32 + .ra: .cfa -24 + ^ x29: .cfa -32 + ^
STACK CFI 2497c .cfa: x29 32 +
STACK CFI 24980 x19: .cfa -16 + ^
STACK CFI 24990 x19: x19
STACK CFI 24994 .cfa: sp 0 + .ra: .ra x29: x29
STACK CFI INIT 0 54 .cfa: sp 0 + .ra: x30
STACK CFI 4 .cfa: sp 32 + .ra: .cfa -24 + ^ x29: .cfa -32 + ^
STACK CFI 8 .cfa: x29 32 +
STACK CFI c x19: .cfa -16 + ^
STACK CFI 40 x19: x19
STACK CFI 44 .cfa: sp 0 + .ra: .ra x29: x29
STACK CFI 48 .cfa: x29 32 + .ra: .cfa -24 + ^ x19: .cfa -16 + ^ x29: .cfa -32 + ^
STACK CFI 4c x19: x19
STACK CFI 50 .cfa: sp 0 + .ra: .ra x29: x29
STACK CFI INIT 24a00 fc .cfa: sp 0 + .ra: x30
STACK CFI 24a04 .cfa: sp 96 + .ra: .cfa -88 + ^ x29: .cfa -96 + ^
STACK CFI 24a0c .cfa: x29 96 +
STACK CFI 24a18 x19: .cfa -80 + ^ x20: .cfa -72 + ^ x21: .cfa -64 + ^ x22: .cfa -56 + ^ x23: .cfa -48 + ^ x24: .cfa -40 + ^
STACK CFI 24aec x21: x21 x22: x22
STACK CFI 24af0 x19: x19 x20: x20
STACK CFI 24af4 x23: x23 x24: x24
STACK CFI 24af8 .cfa: sp 0 + .ra: .ra x29: x29
STACK CFI INIT 0 54 .cfa: sp 0 + .ra: x30
STACK CFI 4 .cfa: sp 48 + .ra: .cfa -40 + ^ x29: .cfa -48 + ^
STACK CFI 8 .cfa: x29 48 +
STACK CFI c x19: .cfa -32 + ^
STACK CFI 4c x19: x19
STACK CFI 50 .cfa: sp 0 + .ra: .ra x29: x29
STACK CFI INIT 251f0 8c .cfa: sp 0 + .ra: x30
STACK CFI 251f4 .cfa: sp 48 + .ra: .cfa -40 + ^ x29: .cfa -48 + ^
STACK CFI 251f8 .cfa: x29 48 +
STACK CFI 251fc x19: .cfa -32 + ^
STACK CFI 25268 x19: x19
STACK CFI 2526c .cfa: sp 0 + .ra: .ra x29: x29
STACK CFI 25270 .cfa: x29 48 + .ra: .cfa -40 + ^ x19: .cfa -32 + ^ x29: .cfa -48 + ^
STACK CFI 25274 x19: x19
STACK CFI 25278 .cfa: sp 0 + .ra: .ra x29: x29
STACK CFI INIT 2527c c .cfa: sp 0 + .ra: x30
STACK CFI INIT 25288 10 .cfa: sp 0 + .ra: x30
STACK CFI INIT 25298 24 .cfa: sp 0 + .ra: x30
STACK CFI 2529c .cfa: sp 32 + .ra: .cfa -24 + ^ x29: .cfa -32 + ^
STACK CFI 252a0 .cfa: x29 32 +
STACK CFI 252a4 x19: .cfa -16 + ^
STACK CFI 252b4 x19: x19
STACK CFI 252b8 .cfa: sp 0 + .ra: .ra x29: x29
STACK CFI INIT 252bc 10 .cfa: sp 0 + .ra: x30
STACK CFI INIT 252cc c .cfa: sp 0 + .ra: x30
STACK CFI INIT 252d8 8c .cfa: sp 0 + .ra: x30
STACK CFI 252dc .cfa: sp 48 + .ra: .cfa -40 + ^ x29: .cfa -48 + ^
STACK CFI 252e0 .cfa: x29 48 +
STACK CFI 252e4 x19: .cfa -32 + ^
STACK CFI 25350 x19: x19
STACK CFI 25354 .cfa: sp 0 + .ra: .ra x29: x29
STACK CFI 25358 .cfa: x29 48 + .ra: .cfa -40 + ^ x19: .cfa -32 + ^ x29: .cfa -48 + ^
STACK CFI 2535c x19: x19
STACK CFI 25360 .cfa: sp 0 + .ra: .ra x29: x29
STACK CFI INIT 25364 c .cfa: sp 0 + .ra: x30
STACK CFI INIT 25370 10 .cfa: sp 0 + .ra: x30
STACK CFI INIT 25380 24 .cfa: sp 0 + .ra: x30
STACK CFI 25384 .cfa: sp 32 + .ra: .cfa -24 + ^ x29: .cfa -32 + ^
STACK CFI 25388 .cfa: x29 32 +
STACK CFI 2538c x19: .cfa -16 + ^
STACK CFI 2539c x19: x19
STACK CFI 253a0 .cfa: sp 0 + .ra: .ra x29: x29
STACK CFI INIT 253a4 10 .cfa: sp 0 + .ra: x30
STACK CFI INIT 253b4 c .cfa: sp 0 + .ra: x30
STACK CFI INIT 253c0 e0 .cfa: sp 0 + .ra: x30
STACK CFI 253c4 .cfa: sp 48 + .ra: .cfa -40 + ^ x29: .cfa -48 + ^
STACK CFI 253c8 .cfa: x29 48 +
STACK CFI 253cc x19: .cfa -32 + ^ x20: .cfa -24 + ^
STACK CFI 2548c x19: x19 x20: x20
STACK CFI 25490 .cfa: sp 0 + .ra: .ra x29: x29
STACK CFI 25494 .cfa: x29 48 + .ra: .cfa -40 + ^ x19: .cfa -32 + ^ x20: .cfa -24 + ^ x29: .cfa -48 + ^
STACK CFI 25498 x19: x19 x20: x20
STACK CFI 2549c .cfa: sp 0 + .ra: .ra x29: x29
STACK CFI INIT 254a0 c .cfa: sp 0 + .ra: x30
STACK CFI INIT 254ac cc .cfa: sp 0 + .ra: x30
STACK CFI 254b0 .cfa: sp 48 + .ra: .cfa -40 + ^ x29: .cfa -48 + ^
STACK CFI 254b4 .cfa: x29 48 +
STACK CFI 254b8 x19: .cfa -32 + ^ x20: .cfa -24 + ^
STACK CFI 25564 x19: x19 x20: x20
STACK CFI 25568 .cfa: sp 0 + .ra: .ra x29: x29
STACK CFI 2556c .cfa: x29 48 + .ra: .cfa -40 + ^ x19: .cfa -32 + ^ x20: .cfa -24 + ^ x29: .cfa -48 + ^
STACK CFI 25570 x19: x19 x20: x20
STACK CFI 25574 .cfa: sp 0 + .ra: .ra x29: x29
STACK CFI INIT 25578 c .cfa: sp 0 + .ra: x30
STACK CFI INIT 25584 c .cfa: sp 0 + .ra: x30
STACK CFI INIT 25590 8 .cfa: sp 0 + .ra: x30
STACK CFI INIT 25598 10 .cfa: sp 0 + .ra: x30
STACK CFI INIT 255a8 24 .cfa: sp 0 + .ra: x30
STACK CFI 255ac .cfa: sp 32 + .ra: .cfa -24 + ^ x29: .cfa -32 + ^
STACK CFI 255b0 .cfa: x29 32 +
STACK CFI 255b4 x19: .cfa -16 + ^
STACK CFI 255c4 x19: x19
STACK CFI 255c8 .cfa: sp 0 + .ra: .ra x29: x29
STACK CFI INIT 255cc 8 .cfa: sp 0 + .ra: x30
STACK CFI INIT 255d4 10 .cfa: sp 0 + .ra: x30
STACK CFI INIT 255e4 c .cfa: sp 0 + .ra: x30
STACK CFI INIT 255f0 8 .cfa: sp 0 + .ra: x30
STACK CFI INIT 255f8 10 .cfa: sp 0 + .ra: x30
STACK CFI INIT 25608 24 .cfa: sp 0 + .ra: x30
STACK CFI 2560c .cfa: sp 32 + .ra: .cfa -24 + ^ x29: .cfa -32 + ^
STACK CFI 25610 .cfa: x29 32 +
STACK CFI 25614 x19: .cfa -16 + ^
STACK CFI 25624 x19: x19
STACK CFI 25628 .cfa: sp 0 + .ra: .ra x29: x29
STACK CFI INIT 2562c 8 .cfa: sp 0 + .ra: x30
STACK CFI INIT 25634 10 .cfa: sp 0 + .ra: x30
STACK CFI INIT 0 74 .cfa: sp 0 + .ra: x30
STACK CFI 4 .cfa: sp 32 + .ra: .cfa -24 + ^ x29: .cfa -32 + ^
STACK CFI 8 .cfa: x29 32 +
STACK CFI c x19: .cfa -16 + ^
STACK CFI 6c x19: x19
STACK CFI 70 .cfa: sp 0 + .ra: .ra x29: x29
STACK CFI INIT 0 13c .cfa: sp 0 + .ra: x30
STACK CFI 4 .cfa: sp 64 + .ra: .cfa -56 + ^ x29: .cfa -64 + ^
STACK CFI 8 .cfa: x29 64 +
STACK CFI 10 x19: .cfa -48 + ^ x20: .cfa -40 + ^ x21: .cfa -32 + ^
STACK CFI 130 x21: x21
STACK CFI 134 x19: x19 x20: x20
STACK CFI 138 .cfa: sp 0 + .ra: .ra x29: x29
STACK CFI INIT 25b54 5c .cfa: sp 0 + .ra: x30
STACK CFI 25b58 .cfa: sp 16 + .ra: .cfa -8 + ^ x29: .cfa -16 + ^
STACK CFI 25b5c .cfa: x29 16 +
STACK CFI 25bac .cfa: sp 0 + .ra: .ra x29: x29
STACK CFI INIT 0 114 .cfa: sp 0 + .ra: x30
STACK CFI 4 .cfa: sp 80 + .ra: .cfa -72 + ^ x29: .cfa -80 + ^
STACK CFI c .cfa: x29 80 +
STACK CFI 18 x19: .cfa -64 + ^ x20: .cfa -56 + ^ x21: .cfa -48 + ^ x22: .cfa -40 + ^ x23: .cfa -32 + ^
STACK CFI 104 x23: x23
STACK CFI 108 x19: x19 x20: x20
STACK CFI 10c x21: x21 x22: x22
STACK CFI 110 .cfa: sp 0 + .ra: .ra x29: x29
STACK CFI INIT 26984 124 .cfa: sp 0 + .ra: x30
STACK CFI 26988 .cfa: sp 80 + .ra: .cfa -72 + ^ x29: .cfa -80 + ^
STACK CFI 26990 .cfa: x29 80 +
STACK CFI 2699c x19: .cfa -64 + ^ x20: .cfa -56 + ^ x21: .cfa -48 + ^ x22: .cfa -40 + ^ x23: .cfa -32 + ^
STACK CFI 26a98 x19: x19 x20: x20
STACK CFI 26a9c x21: x21 x22: x22
STACK CFI 26aa0 x23: x23
STACK CFI 26aa4 .cfa: sp 0 + .ra: .ra x29: x29
STACK CFI INIT 0 1c8 .cfa: sp 0 + .ra: x30
STACK CFI 4 .cfa: sp 336 + .ra: .cfa -328 + ^ x29: .cfa -336 + ^
STACK CFI 8 .cfa: x29 336 +
STACK CFI c x21: .cfa -304 + ^ x22: .cfa -296 + ^
STACK CFI 1c x19: .cfa -320 + ^ x20: .cfa -312 + ^
STACK CFI 1bc x19: x19 x20: x20
STACK CFI 1c0 x21: x21 x22: x22
STACK CFI 1c4 .cfa: sp 0 + .ra: .ra x29: x29
STACK CFI INIT 26c88 9c .cfa: sp 0 + .ra: x30
STACK CFI 26c8c .cfa: sp 160 + .ra: .cfa -152 + ^ x29: .cfa -160 + ^
STACK CFI 26c90 .cfa: x29 160 +
STACK CFI 26c98 x19: .cfa -144 + ^ x20: .cfa -136 + ^ x21: .cfa -128 + ^ x22: .cfa -120 + ^
STACK CFI 26d18 x19: x19 x20: x20
STACK CFI 26d1c x21: x21 x22: x22
STACK CFI 26d20 .cfa: sp 0 + .ra: .ra x29: x29
STACK CFI INIT 2ff78 c4 .cfa: sp 0 + .ra: x30
STACK CFI 2ff7c .cfa: sp 208 + .ra: .cfa -200 + ^ x29: .cfa -208 + ^
STACK CFI 2ff80 .cfa: x29 208 +
STACK CFI 2ff84 x19: .cfa -192 + ^ x20: .cfa -184 + ^
STACK CFI 2ff94 x21: .cfa -176 + ^ x22: .cfa -168 + ^
STACK CFI 30030 x19: x19 x20: x20
STACK CFI 30034 x21: x21 x22: x22
STACK CFI 30038 .cfa: sp 0 + .ra: .ra x29: x29
STACK CFI INIT 3003c 224 .cfa: sp 0 + .ra: x30
STACK CFI 30040 .cfa: sp 304 + .ra: .cfa -296 + ^ x29: .cfa -304 + ^
STACK CFI 30048 .cfa: x29 304 +
STACK CFI 3004c x23: .cfa -256 + ^ x24: .cfa -248 + ^
STACK CFI 30064 x19: .cfa -288 + ^ x20: .cfa -280 + ^ x21: .cfa -272 + ^ x22: .cfa -264 + ^ x25: .cfa -240 + ^
STACK CFI 3024c x25: x25
STACK CFI 30250 x19: x19 x20: x20
STACK CFI 30254 x21: x21 x22: x22
STACK CFI 30258 x23: x23 x24: x24
STACK CFI 3025c .cfa: sp 0 + .ra: .ra x29: x29
STACK CFI INIT 30260 224 .cfa: sp 0 + .ra: x30
STACK CFI 30264 .cfa: sp 304 + .ra: .cfa -296 + ^ x29: .cfa -304 + ^
STACK CFI 3026c .cfa: x29 304 +
STACK CFI 30270 x23: .cfa -256 + ^ x24: .cfa -248 + ^
STACK CFI 30288 x19: .cfa -288 + ^ x20: .cfa -280 + ^ x21: .cfa -272 + ^ x22: .cfa -264 + ^ x25: .cfa -240 + ^
STACK CFI 30470 x25: x25
STACK CFI 30474 x19: x19 x20: x20
STACK CFI 30478 x21: x21 x22: x22
STACK CFI 3047c x23: x23 x24: x24
STACK CFI 30480 .cfa: sp 0 + .ra: .ra x29: x29
STACK CFI INIT 30484 224 .cfa: sp 0 + .ra: x30
STACK CFI 30488 .cfa: sp 304 + .ra: .cfa -296 + ^ x29: .cfa -304 + ^
STACK CFI 30490 .cfa: x29 304 +
STACK CFI 30494 x23: .cfa -256 + ^ x24: .cfa -248 + ^
STACK CFI 304ac x19: .cfa -288 + ^ x20: .cfa -280 + ^ x21: .cfa -272 + ^ x22: .cfa -264 + ^ x25: .cfa -240 + ^
STACK CFI 30694 x25: x25
STACK CFI 30698 x19: x19 x20: x20
STACK CFI 3069c x21: x21 x22: x22
STACK CFI 306a0 x23: x23 x24: x24
STACK CFI 306a4 .cfa: sp 0 + .ra: .ra x29: x29
STACK CFI INIT 306a8 224 .cfa: sp 0 + .ra: x30
STACK CFI 306ac .cfa: sp 304 + .ra: .cfa -296 + ^ x29: .cfa -304 + ^
STACK CFI 306b4 .cfa: x29 304 +
STACK CFI 306b8 x23: .cfa -256 + ^ x24: .cfa -248 + ^
STACK CFI 306d0 x19: .cfa -288 + ^ x20: .cfa -280 + ^ x21: .cfa -272 + ^ x22: .cfa -264 + ^ x25: .cfa -240 + ^
STACK CFI 308b8 x25: x25
STACK CFI 308bc x19: x19 x20: x20
STACK CFI 308c0 x21: x21 x22: x22
STACK CFI 308c4 x23: x23 x24: x24
STACK CFI 308c8 .cfa: sp 0 + .ra: .ra x29: x29
STACK CFI INIT 308cc 224 .cfa: sp 0 + .ra: x30
STACK CFI 308d0 .cfa: sp 304 + .ra: .cfa -296 + ^ x29: .cfa -304 + ^
STACK CFI 308d8 .cfa: x29 304 +
STACK CFI 308dc x23: .cfa -256 + ^ x24: .cfa -248 + ^
STACK CFI 308f4 x19: .cfa -288 + ^ x20: .cfa -280 + ^ x21: .cfa -272 + ^ x22: .cfa -264 + ^ x25: .cfa -240 + ^
STACK CFI 30adc x25: x25
STACK CFI 30ae0 x19: x19 x20: x20
STACK CFI 30ae4 x21: x21 x22: x22
STACK CFI 30ae8 x23: x23 x24: x24
STACK CFI 30aec .cfa: sp 0 + .ra: .ra x29: x29
STACK CFI INIT 30af0 224 .cfa: sp 0 + .ra: x30
STACK CFI 30af4 .cfa: sp 304 + .ra: .cfa -296 + ^ x29: .cfa -304 + ^
STACK CFI 30afc .cfa: x29 304 +
STACK CFI 30b00 x23: .cfa -256 + ^ x24: .cfa -248 + ^
STACK CFI 30b18 x19: .cfa -288 + ^ x20: .cfa -280 + ^ x21: .cfa -272 + ^ x22: .cfa -264 + ^ x25: .cfa -240 + ^
STACK CFI 30d00 x25: x25
STACK CFI 30d04 x19: x19 x20: x20
STACK CFI 30d08 x21: x21 x22: x22
STACK CFI 30d0c x23: x23 x24: x24
STACK CFI 30d10 .cfa: sp 0 + .ra: .ra x29: x29
STACK CFI INIT 30d14 54c .cfa: sp 0 + .ra: x30
STACK CFI 30d18 .cfa: sp 480 + .ra: .cfa -472 + ^ x29: .cfa -480 + ^
STACK CFI 30d20 .cfa: x29 480 +
STACK CFI 30d24 x25: .cfa -416 + ^ x26: .cfa -408 + ^
STACK CFI 30d44 v8: .cfa -384 + ^ x19: .cfa -464 + ^ x20: .cfa -456 + ^ x21: .cfa -448 + ^ x22: .cfa -440 + ^ x23: .cfa -432 + ^ x24: .cfa -424 + ^ x27: .cfa -400 + ^ x28: .cfa -392 + ^
STACK CFI 31244 v8: v8
STACK CFI 31248 x19: x19 x20: x20
STACK CFI 3124c x21: x21 x22: x22
STACK CFI 31250 x23: x23 x24: x24
STACK CFI 31254 x25: x25 x26: x26
STACK CFI 31258 x27: x27 x28: x28
STACK CFI 3125c .cfa: sp 0 + .ra: .ra x29: x29
STACK CFI INIT 31260 290 .cfa: sp 0 + .ra: x30
STACK CFI 31264 .cfa: sp 320 + .ra: .cfa -312 + ^ x29: .cfa -320 + ^
STACK CFI 3126c .cfa: x29 320 +
STACK CFI 31270 x25: .cfa -256 + ^ x26: .cfa -248 + ^
STACK CFI 3128c x19: .cfa -304 + ^ x20: .cfa -296 + ^ x21: .cfa -288 + ^ x22: .cfa -280 + ^ x23: .cfa -272 + ^ x24: .cfa -264 + ^ x27: .cfa -240 + ^
STACK CFI 314d8 x27: x27
STACK CFI 314dc x19: x19 x20: x20
STACK CFI 314e0 x21: x21 x22: x22
STACK CFI 314e4 x23: x23 x24: x24
STACK CFI 314e8 x25: x25 x26: x26
STACK CFI 314ec .cfa: sp 0 + .ra: .ra x29: x29
STACK CFI INIT 314f0 540 .cfa: sp 0 + .ra: x30
STACK CFI 314f4 .cfa: sp 464 + .ra: .cfa -456 + ^ x29: .cfa -464 + ^
STACK CFI 314fc .cfa: x29 464 +
STACK CFI 31504 v8: .cfa -368 + ^ v9: .cfa -360 + ^ x25: .cfa -400 + ^ x26: .cfa -392 + ^
STACK CFI 31520 x19: .cfa -448 + ^ x20: .cfa -440 + ^ x21: .cfa -432 + ^ x22: .cfa -424 + ^ x23: .cfa -416 + ^ x24: .cfa -408 + ^ x27: .cfa -384 + ^ x28: .cfa -376 + ^
STACK CFI 31a14 v8: v8 v9: v9
STACK CFI 31a18 x19: x19 x20: x20
STACK CFI 31a1c x21: x21 x22: x22
STACK CFI 31a20 x23: x23 x24: x24
STACK CFI 31a24 x25: x25 x26: x26
STACK CFI 31a28 x27: x27 x28: x28
STACK CFI 31a2c .cfa: sp 0 + .ra: .ra x29: x29
STACK CFI INIT 282a4 28 .cfa: sp 0 + .ra: x30
STACK CFI INIT 282cc 20 .cfa: sp 0 + .ra: x30
STACK CFI 282d0 .cfa: sp 32 + .ra: .cfa -24 + ^ x29: .cfa -32 + ^
STACK CFI 282d8 .cfa: x29 32 +
STACK CFI 282e8 .cfa: sp 0 + .ra: .ra x29: x29
STACK CFI INIT 282ec 20 .cfa: sp 0 + .ra: x30
STACK CFI 282f0 .cfa: sp 32 + .ra: .cfa -24 + ^ x29: .cfa -32 + ^
STACK CFI 282f8 .cfa: x29 32 +
STACK CFI 28308 .cfa: sp 0 + .ra: .ra x29: x29
STACK CFI INIT 2830c 110 .cfa: sp 0 + .ra: x30
STACK CFI 28310 .cfa: sp 32 + .ra: .cfa -24 + ^ x29: .cfa -32 + ^
STACK CFI 2831c .cfa: x29 32 +
STACK CFI 28398 .cfa: sp 0 + .ra: .ra x29: x29
STACK CFI 2839c .cfa: x29 32 + .ra: .cfa -24 + ^ x29: .cfa -32 + ^
STACK CFI INIT 2841c 124 .cfa: sp 0 + .ra: x30
STACK CFI 28420 .cfa: sp 80 + .ra: .cfa -72 + ^ x29: .cfa -80 + ^
STACK CFI 28424 .cfa: x29 80 +
STACK CFI 28430 x19: .cfa -64 + ^ x20: .cfa -56 + ^ x21: .cfa -48 + ^ x22: .cfa -40 + ^ x23: .cfa -32 + ^ x24: .cfa -24 + ^
STACK CFI 28530 x19: x19 x20: x20
STACK CFI 28534 x21: x21 x22: x22
STACK CFI 28538 x23: x23 x24: x24
STACK CFI 2853c .cfa: sp 0 + .ra: .ra x29: x29
STACK CFI INIT 0 9c .cfa: sp 0 + .ra: x30
STACK CFI 4 .cfa: sp 80 + .ra: .cfa -72 + ^ x29: .cfa -80 + ^
STACK CFI 8 .cfa: x29 80 +
STACK CFI 10 x19: .cfa -64 + ^ x20: .cfa -56 + ^ x21: .cfa -48 + ^
STACK CFI 8c x21: x21
STACK CFI 94 x19: x19 x20: x20
STACK CFI 98 .cfa: sp 0 + .ra: .ra x29: x29
STACK CFI INIT 0 7c .cfa: sp 0 + .ra: x30
STACK CFI 4 .cfa: sp 32 + .ra: .cfa -24 + ^ x29: .cfa -32 + ^
STACK CFI 8 .cfa: x29 32 +
STACK CFI c x19: .cfa -16 + ^ x20: .cfa -8 + ^
STACK CFI 74 x19: x19 x20: x20
STACK CFI 78 .cfa: sp 0 + .ra: .ra x29: x29
STACK CFI INIT 28650 c4 .cfa: sp 0 + .ra: x30
STACK CFI 28654 .cfa: sp 48 + .ra: .cfa -40 + ^ x29: .cfa -48 + ^
STACK CFI 2865c .cfa: x29 48 +
STACK CFI 28664 x19: .cfa -32 + ^ x20: .cfa -24 + ^ x21: .cfa -16 + ^
STACK CFI 28708 x19: x19 x20: x20
STACK CFI 2870c x21: x21
STACK CFI 28710 .cfa: sp 0 + .ra: .ra x29: x29
STACK CFI INIT 0 d0 .cfa: sp 0 + .ra: x30
STACK CFI 4 .cfa: sp 48 + .ra: .cfa -40 + ^ x29: .cfa -48 + ^
STACK CFI 8 .cfa: x29 48 +
STACK CFI 10 x19: .cfa -32 + ^ x20: .cfa -24 + ^ x21: .cfa -16 + ^
STACK CFI c4 x21: x21
STACK CFI c8 x19: x19 x20: x20
STACK CFI cc .cfa: sp 0 + .ra: .ra x29: x29
STACK CFI INIT 287cc 10c .cfa: sp 0 + .ra: x30
STACK CFI 287d0 .cfa: sp 64 + .ra: .cfa -56 + ^ x29: .cfa -64 + ^
STACK CFI 287d8 .cfa: x29 64 +
STACK CFI 287e0 x19: .cfa -48 + ^ x20: .cfa -40 + ^ x23: .cfa -16 + ^
STACK CFI 287e8 x21: .cfa -32 + ^ x22: .cfa -24 + ^
STACK CFI 288c8 x19: x19 x20: x20
STACK CFI 288cc x21: x21 x22: x22
STACK CFI 288d0 x23: x23
STACK CFI 288d4 .cfa: sp 0 + .ra: .ra x29: x29
STACK CFI INIT 288d8 f0 .cfa: sp 0 + .ra: x30
STACK CFI 288dc .cfa: sp 64 + .ra: .cfa -56 + ^ x29: .cfa -64 + ^
STACK CFI 288e4 .cfa: x29 64 +
STACK CFI 288f0 x19: .cfa -48 + ^ x20: .cfa -40 + ^ x21: .cfa -32 + ^ x22: .cfa -24 + ^ x23: .cfa -16 + ^
STACK CFI 289b8 x23: x23
STACK CFI 289bc x19: x19 x20: x20
STACK CFI 289c0 x21: x21 x22: x22
STACK CFI 289c4 .cfa: sp 0 + .ra: .ra x29: x29
STACK CFI INIT 211b8 358 .cfa: sp 0 + .ra: x30
STACK CFI 211bc .cfa: sp 64 + .ra: .cfa -56 + ^ x29: .cfa -64 + ^
STACK CFI 211c0 .cfa: x29 64 +
STACK CFI 211c8 x19: .cfa -48 + ^ x20: .cfa -40 + ^ x21: .cfa -32 + ^
STACK CFI 214fc x21: x21
STACK CFI 21504 x19: x19 x20: x20
STACK CFI 21508 .cfa: sp 0 + .ra: .ra x29: x29
STACK CFI INIT 2351c 4 .cfa: sp 0 + .ra: x30
STACK CFI INIT 23520 4 .cfa: sp 0 + .ra: x30
STACK CFI INIT 23524 8 .cfa: sp 0 + .ra: x30
STACK CFI INIT 2354c 8 .cfa: sp 0 + .ra: x30
STACK CFI INIT 23554 4 .cfa: sp 0 + .ra: x30
STACK CFI INIT 23558 8 .cfa: sp 0 + .ra: x30
STACK CFI INIT 31a30 4 .cfa: sp 0 + .ra: x30
STACK CFI INIT 235c8 8 .cfa: sp 0 + .ra: x30
STACK CFI INIT 235d0 1c .cfa: sp 0 + .ra: x30
STACK CFI INIT 235ec 24 .cfa: sp 0 + .ra: x30
STACK CFI INIT 23610 6c .cfa: sp 0 + .ra: x30
STACK CFI INIT 2367c 4 .cfa: sp 0 + .ra: x30
STACK CFI INIT 23680 8 .cfa: sp 0 + .ra: x30
STACK CFI INIT 23688 40 .cfa: sp 0 + .ra: x30
STACK CFI 2368c .cfa: sp 32 + .ra: .cfa -24 + ^ x29: .cfa -32 + ^
STACK CFI 23690 .cfa: x29 32 +
STACK CFI 23694 x19: .cfa -16 + ^
STACK CFI 236c0 x19: x19
STACK CFI 236c4 .cfa: sp 0 + .ra: .ra x29: x29
STACK CFI INIT 236c8 8 .cfa: sp 0 + .ra: x30
STACK CFI INIT 23738 b4 .cfa: sp 0 + .ra: x30
STACK CFI 2373c .cfa: sp 64 + .ra: .cfa -56 + ^ x29: .cfa -64 + ^
STACK CFI 23740 .cfa: x29 64 +
STACK CFI 2374c x19: .cfa -48 + ^ x20: .cfa -40 + ^ x21: .cfa -32 + ^ x22: .cfa -24 + ^ x23: .cfa -16 + ^
STACK CFI 237dc x23: x23
STACK CFI 237e0 x19: x19 x20: x20
STACK CFI 237e4 x21: x21 x22: x22
STACK CFI 237e8 .cfa: sp 0 + .ra: .ra x29: x29
STACK CFI INIT 237ec a8 .cfa: sp 0 + .ra: x30
STACK CFI 237f0 .cfa: sp 64 + .ra: .cfa -56 + ^ x29: .cfa -64 + ^
STACK CFI 237f4 .cfa: x29 64 +
STACK CFI 23800 x19: .cfa -48 + ^ x20: .cfa -40 + ^ x21: .cfa -32 + ^ x22: .cfa -24 + ^ x23: .cfa -16 + ^
STACK CFI 23884 x23: x23
STACK CFI 23888 x19: x19 x20: x20
STACK CFI 2388c x21: x21 x22: x22
STACK CFI 23890 .cfa: sp 0 + .ra: .ra x29: x29
STACK CFI INIT 31a34 4 .cfa: sp 0 + .ra: x30
STACK CFI INIT 23894 14 .cfa: sp 0 + .ra: x30
STACK CFI INIT 238a8 24 .cfa: sp 0 + .ra: x30
STACK CFI 238ac .cfa: sp 32 + .ra: .cfa -24 + ^ x29: .cfa -32 + ^
STACK CFI 238b0 .cfa: x29 32 +
STACK CFI 238b4 x19: .cfa -16 + ^
STACK CFI 238c4 x19: x19
STACK CFI 238c8 .cfa: sp 0 + .ra: .ra x29: x29
STACK CFI INIT 238cc 14 .cfa: sp 0 + .ra: x30
STACK CFI INIT 238e0 24 .cfa: sp 0 + .ra: x30
STACK CFI 238e4 .cfa: sp 32 + .ra: .cfa -24 + ^ x29: .cfa -32 + ^
STACK CFI 238e8 .cfa: x29 32 +
STACK CFI 238ec x19: .cfa -16 + ^
STACK CFI 238fc x19: x19
STACK CFI 23900 .cfa: sp 0 + .ra: .ra x29: x29
STACK CFI INIT 31a38 14 .cfa: sp 0 + .ra: x30
STACK CFI INIT 31a4c 24 .cfa: sp 0 + .ra: x30
STACK CFI 31a50 .cfa: sp 32 + .ra: .cfa -24 + ^ x29: .cfa -32 + ^
STACK CFI 31a54 .cfa: x29 32 +
STACK CFI 31a58 x19: .cfa -16 + ^
STACK CFI 31a68 x19: x19
STACK CFI 31a6c .cfa: sp 0 + .ra: .ra x29: x29
STACK CFI INIT 31a70 3c .cfa: sp 0 + .ra: x30
STACK CFI 31a74 .cfa: sp 32 + .ra: .cfa -24 + ^ x29: .cfa -32 + ^
STACK CFI 31a7c .cfa: x29 32 +
STACK CFI 31a80 x19: .cfa -16 + ^
STACK CFI 31aa4 x19: x19
STACK CFI 31aa8 .cfa: sp 0 + .ra: .ra x29: x29
STACK CFI INIT 24794 b0 .cfa: sp 0 + .ra: x30
STACK CFI 24798 .cfa: sp 64 + .ra: .cfa -56 + ^ x29: .cfa -64 + ^
STACK CFI 2479c .cfa: x29 64 +
STACK CFI 247a8 x19: .cfa -48 + ^ x20: .cfa -40 + ^ x21: .cfa -32 + ^ x22: .cfa -24 + ^ x23: .cfa -16 + ^
STACK CFI 24834 x23: x23
STACK CFI 24838 x19: x19 x20: x20
STACK CFI 2483c x21: x21 x22: x22
STACK CFI 24840 .cfa: sp 0 + .ra: .ra x29: x29
STACK CFI INIT 2eb40 18 .cfa: sp 0 + .ra: x30
STACK CFI INIT 24844 40 .cfa: sp 0 + .ra: x30
STACK CFI 24848 .cfa: sp 32 + .ra: .cfa -24 + ^ x29: .cfa -32 + ^
STACK CFI 24854 .cfa: x29 32 +
STACK CFI 24858 x19: .cfa -16 + ^
STACK CFI 2487c x19: x19
STACK CFI 24880 .cfa: sp 0 + .ra: .ra x29: x29
STACK CFI INIT 248a0 48 .cfa: sp 0 + .ra: x30
STACK CFI 248a4 .cfa: sp 32 + .ra: .cfa -24 + ^ x29: .cfa -32 + ^
STACK CFI 248a8 .cfa: x29 32 +
STACK CFI 248ac x19: .cfa -16 + ^
STACK CFI 248e0 x19: x19
STACK CFI 248e4 .cfa: sp 0 + .ra: .ra x29: x29
STACK CFI INIT 248e8 30 .cfa: sp 0 + .ra: x30
STACK CFI INIT 24998 60 .cfa: sp 0 + .ra: x30
STACK CFI 2499c .cfa: sp 48 + .ra: .cfa -40 + ^ x29: .cfa -48 + ^
STACK CFI 249a0 .cfa: x29 48 +
STACK CFI 249a8 x19: .cfa -32 + ^ x20: .cfa -24 + ^ x21: .cfa -16 + ^
STACK CFI 249ec x19: x19 x20: x20
STACK CFI 249f0 x21: x21
STACK CFI 249f4 .cfa: sp 0 + .ra: .ra x29: x29
STACK CFI INIT 249f8 8 .cfa: sp 0 + .ra: x30
STACK CFI INIT 24940 34 .cfa: sp 0 + .ra: x30
STACK CFI 24948 .cfa: sp 32 + .ra: .cfa -24 + ^ x29: .cfa -32 + ^
STACK CFI 2494c .cfa: x29 32 +
STACK CFI 24954 x19: .cfa -16 + ^
STACK CFI 2496c x19: x19
STACK CFI 24970 .cfa: sp 0 + .ra: .ra x29: x29
STACK CFI INIT 24974 24 .cfa: sp 0 + .ra: x30
STACK CFI 24978 .cfa: sp 32 + .ra: .cfa -24 + ^ x29: .cfa -32 + ^
STACK CFI 2497c .cfa: x29 32 +
STACK CFI 24980 x19: .cfa -16 + ^
STACK CFI 24990 x19: x19
STACK CFI 24994 .cfa: sp 0 + .ra: .ra x29: x29
STACK CFI INIT 24a00 fc .cfa: sp 0 + .ra: x30
STACK CFI 24a04 .cfa: sp 96 + .ra: .cfa -88 + ^ x29: .cfa -96 + ^
STACK CFI 24a0c .cfa: x29 96 +
STACK CFI 24a18 x19: .cfa -80 + ^ x20: .cfa -72 + ^ x21: .cfa -64 + ^ x22: .cfa -56 + ^ x23: .cfa -48 + ^ x24: .cfa -40 + ^
STACK CFI 24aec x21: x21 x22: x22
STACK CFI 24af0 x19: x19 x20: x20
STACK CFI 24af4 x23: x23 x24: x24
STACK CFI 24af8 .cfa: sp 0 + .ra: .ra x29: x29
STACK CFI INIT 24afc b4 .cfa: sp 0 + .ra: x30
STACK CFI 24b00 .cfa: sp 48 + .ra: .cfa -40 + ^ x29: .cfa -48 + ^
STACK CFI 24b04 .cfa: x29 48 +
STACK CFI 24b08 x19: .cfa -32 + ^ x20: .cfa -24 + ^
STACK CFI 24b18 x21: .cfa -16 + ^
STACK CFI 24ba4 x21: x21
STACK CFI 24ba8 x19: x19 x20: x20
STACK CFI 24bac .cfa: sp 0 + .ra: .ra x29: x29
STACK CFI INIT 24bb0 b0 .cfa: sp 0 + .ra: x30
STACK CFI 24bb4 .cfa: sp 48 + .ra: .cfa -40 + ^ x29: .cfa -48 + ^
STACK CFI 24bb8 .cfa: x29 48 +
STACK CFI 24bc0 x19: .cfa -32 + ^ x20: .cfa -24 + ^ x21: .cfa -16 + ^
STACK CFI 24c40 x21: x21
STACK CFI 24c58 x19: x19 x20: x20
STACK CFI 24c5c .cfa: sp 0 + .ra: .ra x29: x29
STACK CFI INIT 24c60 98 .cfa: sp 0 + .ra: x30
STACK CFI 24c64 .cfa: sp 64 + .ra: .cfa -56 + ^ x29: .cfa -64 + ^
STACK CFI 24c68 .cfa: x29 64 +
STACK CFI 24c70 x19: .cfa -48 + ^ x20: .cfa -40 + ^ x21: .cfa -32 + ^
STACK CFI 24cec x19: x19 x20: x20
STACK CFI 24cf0 x21: x21
STACK CFI 24cf4 .cfa: sp 0 + .ra: .ra x29: x29
STACK CFI INIT 24cf8 1c .cfa: sp 0 + .ra: x30
STACK CFI 24cfc .cfa: sp 16 + .ra: .cfa -8 + ^ x29: .cfa -16 + ^
STACK CFI 24d00 .cfa: x29 16 +
STACK CFI 24d10 .cfa: sp 0 + .ra: .ra x29: x29
STACK CFI INIT 24d14 3c .cfa: sp 0 + .ra: x30
STACK CFI 24d18 .cfa: sp 16 + .ra: .cfa -8 + ^ x29: .cfa -16 + ^
STACK CFI 24d1c .cfa: x29 16 +
STACK CFI 24d4c .cfa: sp 0 + .ra: .ra x29: x29
STACK CFI INIT 0 54 .cfa: sp 0 + .ra: x30
STACK CFI 4 .cfa: sp 48 + .ra: .cfa -40 + ^ x29: .cfa -48 + ^
STACK CFI 8 .cfa: x29 48 +
STACK CFI c x19: .cfa -32 + ^
STACK CFI 4c x19: x19
STACK CFI 50 .cfa: sp 0 + .ra: .ra x29: x29
STACK CFI INIT 25040 64 .cfa: sp 0 + .ra: x30
STACK CFI 25044 .cfa: sp 48 + .ra: .cfa -40 + ^ x29: .cfa -48 + ^
STACK CFI 25048 .cfa: x29 48 +
STACK CFI 2504c x19: .cfa -32 + ^ x20: .cfa -24 + ^
STACK CFI 25058 x21: .cfa -16 + ^
STACK CFI 25098 x19: x19 x20: x20
STACK CFI 2509c x21: x21
STACK CFI 250a0 .cfa: sp 0 + .ra: .ra x29: x29
STACK CFI INIT 250a4 58 .cfa: sp 0 + .ra: x30
STACK CFI 250a8 .cfa: sp 48 + .ra: .cfa -40 + ^ x29: .cfa -48 + ^
STACK CFI 250ac .cfa: x29 48 +
STACK CFI 250b0 x19: .cfa -32 + ^ x20: .cfa -24 + ^
STACK CFI 250b8 x21: .cfa -16 + ^
STACK CFI 250f0 x19: x19 x20: x20
STACK CFI 250f4 x21: x21
STACK CFI 250f8 .cfa: sp 0 + .ra: .ra x29: x29
STACK CFI INIT 31aac 4c .cfa: sp 0 + .ra: x30
STACK CFI 31ab0 .cfa: sp 64 + .ra: .cfa -56 + ^ x29: .cfa -64 + ^
STACK CFI 31ab8 .cfa: x29 64 +
STACK CFI 31abc x19: .cfa -48 + ^
STACK CFI 31af0 x19: x19
STACK CFI 31af4 .cfa: sp 0 + .ra: .ra x29: x29
STACK CFI INIT 0 f4 .cfa: sp 0 + .ra: x30
STACK CFI 4 .cfa: sp 48 + .ra: .cfa -40 + ^ x29: .cfa -48 + ^
STACK CFI 8 .cfa: x29 48 +
STACK CFI c x21: .cfa -16 + ^ x22: .cfa -8 + ^
STACK CFI 18 x19: .cfa -32 + ^ x20: .cfa -24 + ^
STACK CFI e8 x19: x19 x20: x20
STACK CFI ec x21: x21 x22: x22
STACK CFI f0 .cfa: sp 0 + .ra: .ra x29: x29
STACK CFI INIT 0 c8 .cfa: sp 0 + .ra: x30
STACK CFI 4 .cfa: sp 48 + .ra: .cfa -40 + ^ x29: .cfa -48 + ^
STACK CFI 8 .cfa: x29 48 +
STACK CFI 10 x19: .cfa -32 + ^ x20: .cfa -24 + ^ x21: .cfa -16 + ^
STACK CFI b4 x21: x21
STACK CFI c0 x19: x19 x20: x20
STACK CFI c4 .cfa: sp 0 + .ra: .ra x29: x29
STACK CFI INIT 251f0 8c .cfa: sp 0 + .ra: x30
STACK CFI 251f4 .cfa: sp 48 + .ra: .cfa -40 + ^ x29: .cfa -48 + ^
STACK CFI 251f8 .cfa: x29 48 +
STACK CFI 251fc x19: .cfa -32 + ^
STACK CFI 25268 x19: x19
STACK CFI 2526c .cfa: sp 0 + .ra: .ra x29: x29
STACK CFI 25270 .cfa: x29 48 + .ra: .cfa -40 + ^ x19: .cfa -32 + ^ x29: .cfa -48 + ^
STACK CFI 25274 x19: x19
STACK CFI 25278 .cfa: sp 0 + .ra: .ra x29: x29
STACK CFI INIT 2527c c .cfa: sp 0 + .ra: x30
STACK CFI INIT 25288 10 .cfa: sp 0 + .ra: x30
STACK CFI INIT 25298 24 .cfa: sp 0 + .ra: x30
STACK CFI 2529c .cfa: sp 32 + .ra: .cfa -24 + ^ x29: .cfa -32 + ^
STACK CFI 252a0 .cfa: x29 32 +
STACK CFI 252a4 x19: .cfa -16 + ^
STACK CFI 252b4 x19: x19
STACK CFI 252b8 .cfa: sp 0 + .ra: .ra x29: x29
STACK CFI INIT 252bc 10 .cfa: sp 0 + .ra: x30
STACK CFI INIT 252cc c .cfa: sp 0 + .ra: x30
STACK CFI INIT 252d8 8c .cfa: sp 0 + .ra: x30
STACK CFI 252dc .cfa: sp 48 + .ra: .cfa -40 + ^ x29: .cfa -48 + ^
STACK CFI 252e0 .cfa: x29 48 +
STACK CFI 252e4 x19: .cfa -32 + ^
STACK CFI 25350 x19: x19
STACK CFI 25354 .cfa: sp 0 + .ra: .ra x29: x29
STACK CFI 25358 .cfa: x29 48 + .ra: .cfa -40 + ^ x19: .cfa -32 + ^ x29: .cfa -48 + ^
STACK CFI 2535c x19: x19
STACK CFI 25360 .cfa: sp 0 + .ra: .ra x29: x29
STACK CFI INIT 25364 c .cfa: sp 0 + .ra: x30
STACK CFI INIT 25370 10 .cfa: sp 0 + .ra: x30
STACK CFI INIT 25380 24 .cfa: sp 0 + .ra: x30
STACK CFI 25384 .cfa: sp 32 + .ra: .cfa -24 + ^ x29: .cfa -32 + ^
STACK CFI 25388 .cfa: x29 32 +
STACK CFI 2538c x19: .cfa -16 + ^
STACK CFI 2539c x19: x19
STACK CFI 253a0 .cfa: sp 0 + .ra: .ra x29: x29
STACK CFI INIT 253a4 10 .cfa: sp 0 + .ra: x30
STACK CFI INIT 253b4 c .cfa: sp 0 + .ra: x30
STACK CFI INIT 253c0 e0 .cfa: sp 0 + .ra: x30
STACK CFI 253c4 .cfa: sp 48 + .ra: .cfa -40 + ^ x29: .cfa -48 + ^
STACK CFI 253c8 .cfa: x29 48 +
STACK CFI 253cc x19: .cfa -32 + ^ x20: .cfa -24 + ^
STACK CFI 2548c x19: x19 x20: x20
STACK CFI 25490 .cfa: sp 0 + .ra: .ra x29: x29
STACK CFI 25494 .cfa: x29 48 + .ra: .cfa -40 + ^ x19: .cfa -32 + ^ x20: .cfa -24 + ^ x29: .cfa -48 + ^
STACK CFI 25498 x19: x19 x20: x20
STACK CFI 2549c .cfa: sp 0 + .ra: .ra x29: x29
STACK CFI INIT 254a0 c .cfa: sp 0 + .ra: x30
STACK CFI INIT 254ac cc .cfa: sp 0 + .ra: x30
STACK CFI 254b0 .cfa: sp 48 + .ra: .cfa -40 + ^ x29: .cfa -48 + ^
STACK CFI 254b4 .cfa: x29 48 +
STACK CFI 254b8 x19: .cfa -32 + ^ x20: .cfa -24 + ^
STACK CFI 25564 x19: x19 x20: x20
STACK CFI 25568 .cfa: sp 0 + .ra: .ra x29: x29
STACK CFI 2556c .cfa: x29 48 + .ra: .cfa -40 + ^ x19: .cfa -32 + ^ x20: .cfa -24 + ^ x29: .cfa -48 + ^
STACK CFI 25570 x19: x19 x20: x20
STACK CFI 25574 .cfa: sp 0 + .ra: .ra x29: x29
STACK CFI INIT 25578 c .cfa: sp 0 + .ra: x30
STACK CFI INIT 25584 c .cfa: sp 0 + .ra: x30
STACK CFI INIT 25590 8 .cfa: sp 0 + .ra: x30
STACK CFI INIT 25598 10 .cfa: sp 0 + .ra: x30
STACK CFI INIT 255a8 24 .cfa: sp 0 + .ra: x30
STACK CFI 255ac .cfa: sp 32 + .ra: .cfa -24 + ^ x29: .cfa -32 + ^
STACK CFI 255b0 .cfa: x29 32 +
STACK CFI 255b4 x19: .cfa -16 + ^
STACK CFI 255c4 x19: x19
STACK CFI 255c8 .cfa: sp 0 + .ra: .ra x29: x29
STACK CFI INIT 255cc 8 .cfa: sp 0 + .ra: x30
STACK CFI INIT 255d4 10 .cfa: sp 0 + .ra: x30
STACK CFI INIT 255e4 c .cfa: sp 0 + .ra: x30
STACK CFI INIT 255f0 8 .cfa: sp 0 + .ra: x30
STACK CFI INIT 255f8 10 .cfa: sp 0 + .ra: x30
STACK CFI INIT 25608 24 .cfa: sp 0 + .ra: x30
STACK CFI 2560c .cfa: sp 32 + .ra: .cfa -24 + ^ x29: .cfa -32 + ^
STACK CFI 25610 .cfa: x29 32 +
STACK CFI 25614 x19: .cfa -16 + ^
STACK CFI 25624 x19: x19
STACK CFI 25628 .cfa: sp 0 + .ra: .ra x29: x29
STACK CFI INIT 2562c 8 .cfa: sp 0 + .ra: x30
STACK CFI INIT 25634 10 .cfa: sp 0 + .ra: x30
STACK CFI INIT 25644 5c .cfa: sp 0 + .ra: x30
STACK CFI 25648 .cfa: sp 32 + .ra: .cfa -24 + ^ x29: .cfa -32 + ^
STACK CFI 2564c .cfa: x29 32 +
STACK CFI 25650 x19: .cfa -16 + ^
STACK CFI 25698 x19: x19
STACK CFI 2569c .cfa: sp 0 + .ra: .ra x29: x29
STACK CFI INIT 256a0 78 .cfa: sp 0 + .ra: x30
STACK CFI 256a4 .cfa: sp 32 + .ra: .cfa -24 + ^ x29: .cfa -32 + ^
STACK CFI 256ac .cfa: x29 32 +
STACK CFI 256b0 x19: .cfa -16 + ^
STACK CFI 25710 x19: x19
STACK CFI 25714 .cfa: sp 0 + .ra: .ra x29: x29
STACK CFI INIT 25718 50 .cfa: sp 0 + .ra: x30
STACK CFI 2571c .cfa: sp 32 + .ra: .cfa -24 + ^ x29: .cfa -32 + ^
STACK CFI 25720 .cfa: x29 32 +
STACK CFI 25724 x19: .cfa -16 + ^
STACK CFI 25754 x19: x19
STACK CFI 25758 .cfa: sp 0 + .ra: .ra x29: x29
STACK CFI 2575c .cfa: x29 32 + .ra: .cfa -24 + ^ x19: .cfa -16 + ^ x29: .cfa -32 + ^
STACK CFI 25760 x19: x19
STACK CFI 25764 .cfa: sp 0 + .ra: .ra x29: x29
STACK CFI INIT 25768 13c .cfa: sp 0 + .ra: x30
STACK CFI 2576c .cfa: sp 64 + .ra: .cfa -56 + ^ x29: .cfa -64 + ^
STACK CFI 25770 .cfa: x29 64 +
STACK CFI 25778 x19: .cfa -48 + ^ x20: .cfa -40 + ^ x21: .cfa -32 + ^ x22: .cfa -24 + ^
STACK CFI 25898 x19: x19 x20: x20
STACK CFI 2589c x21: x21 x22: x22
STACK CFI 258a0 .cfa: sp 0 + .ra: .ra x29: x29
STACK CFI INIT 25964 104 .cfa: sp 0 + .ra: x30
STACK CFI 25968 .cfa: sp 80 + .ra: .cfa -72 + ^ x29: .cfa -80 + ^
STACK CFI 2596c .cfa: x29 80 +
STACK CFI 25978 x19: .cfa -64 + ^ x20: .cfa -56 + ^ x21: .cfa -48 + ^ x22: .cfa -40 + ^ x23: .cfa -32 + ^ x24: .cfa -24 + ^
STACK CFI 25a58 x19: x19 x20: x20
STACK CFI 25a5c x21: x21 x22: x22
STACK CFI 25a60 x23: x23 x24: x24
STACK CFI 25a64 .cfa: sp 0 + .ra: .ra x29: x29
STACK CFI INIT 25b28 2c .cfa: sp 0 + .ra: x30
STACK CFI INIT 25b54 5c .cfa: sp 0 + .ra: x30
STACK CFI 25b58 .cfa: sp 16 + .ra: .cfa -8 + ^ x29: .cfa -16 + ^
STACK CFI 25b5c .cfa: x29 16 +
STACK CFI 25bac .cfa: sp 0 + .ra: .ra x29: x29
STACK CFI INIT 0 1b8 .cfa: sp 0 + .ra: x30
STACK CFI 4 .cfa: sp 128 + .ra: .cfa -120 + ^ x29: .cfa -128 + ^
STACK CFI 8 .cfa: x29 128 +
STACK CFI 14 x19: .cfa -112 + ^ x20: .cfa -104 + ^ x21: .cfa -96 + ^ x22: .cfa -88 + ^ x23: .cfa -80 + ^ x24: .cfa -72 + ^
STACK CFI 1a8 x19: x19 x20: x20
STACK CFI 1ac x21: x21 x22: x22
STACK CFI 1b0 x23: x23 x24: x24
STACK CFI 1b4 .cfa: sp 0 + .ra: .ra x29: x29
STACK CFI INIT 0 cc .cfa: sp 0 + .ra: x30
STACK CFI 4 .cfa: sp 80 + .ra: .cfa -72 + ^ x29: .cfa -80 + ^
STACK CFI 8 .cfa: x29 80 +
STACK CFI 10 x19: .cfa -64 + ^ x20: .cfa -56 + ^ x21: .cfa -48 + ^
STACK CFI bc x21: x21
STACK CFI c4 x19: x19 x20: x20
STACK CFI c8 .cfa: sp 0 + .ra: .ra x29: x29
STACK CFI INIT 31af8 58 .cfa: sp 0 + .ra: x30
STACK CFI 31afc .cfa: sp 48 + .ra: .cfa -40 + ^ x29: .cfa -48 + ^
STACK CFI 31b00 .cfa: x29 48 +
STACK CFI 31b08 x19: .cfa -32 + ^ x20: .cfa -24 + ^ x21: .cfa -16 + ^
STACK CFI 31b44 x19: x19 x20: x20
STACK CFI 31b48 x21: x21
STACK CFI 31b4c .cfa: sp 0 + .ra: .ra x29: x29
STACK CFI INIT 261dc 64 .cfa: sp 0 + .ra: x30
STACK CFI 261e0 .cfa: sp 64 + .ra: .cfa -56 + ^ x29: .cfa -64 + ^
STACK CFI 261e4 .cfa: x29 64 +
STACK CFI 261e8 x19: .cfa -48 + ^ x20: .cfa -40 + ^
STACK CFI 26238 x19: x19 x20: x20
STACK CFI 2623c .cfa: sp 0 + .ra: .ra x29: x29
STACK CFI INIT 31b50 60 .cfa: sp 0 + .ra: x30
STACK CFI 31b54 .cfa: sp 32 + .ra: .cfa -24 + ^ x29: .cfa -32 + ^
STACK CFI 31b60 .cfa: x29 32 +
STACK CFI 31b64 x19: .cfa -16 + ^ x20: .cfa -8 + ^
STACK CFI 31ba8 x19: x19 x20: x20
STACK CFI 31bac .cfa: sp 0 + .ra: .ra x29: x29
STACK CFI INIT 31bb0 5c .cfa: sp 0 + .ra: x30
STACK CFI INIT 31c0c 5c .cfa: sp 0 + .ra: x30
STACK CFI INIT 31c68 124 .cfa: sp 0 + .ra: x30
STACK CFI 31c6c .cfa: sp 48 + .ra: .cfa -40 + ^ x29: .cfa -48 + ^
STACK CFI 31c70 .cfa: x29 48 +
STACK CFI 31c78 x19: .cfa -32 + ^ x20: .cfa -24 + ^ x21: .cfa -16 + ^ x22: .cfa -8 + ^
STACK CFI 31ca0 x19: x19 x20: x20
STACK CFI 31ca4 x21: x21 x22: x22
STACK CFI 31ca8 .cfa: sp 0 + .ra: .ra x29: x29
STACK CFI 31cac .cfa: x29 48 + .ra: .cfa -40 + ^ x19: .cfa -32 + ^ x20: .cfa -24 + ^ x21: .cfa -16 + ^ x22: .cfa -8 + ^ x29: .cfa -48 + ^
STACK CFI INIT 31d8c dc .cfa: sp 0 + .ra: x30
STACK CFI 31d90 .cfa: sp 64 + .ra: .cfa -56 + ^ x29: .cfa -64 + ^
STACK CFI 31d98 .cfa: x29 64 +
STACK CFI 31da0 x19: .cfa -48 + ^ x20: .cfa -40 + ^ x21: .cfa -32 + ^ x22: .cfa -24 + ^
STACK CFI 31e5c x19: x19 x20: x20
STACK CFI 31e60 x21: x21 x22: x22
STACK CFI 31e64 .cfa: sp 0 + .ra: .ra x29: x29
STACK CFI INIT 0 134 .cfa: sp 0 + .ra: x30
STACK CFI 4 .cfa: sp 384 + .ra: .cfa -376 + ^ x29: .cfa -384 + ^
STACK CFI c .cfa: x29 384 +
STACK CFI 10 x19: .cfa -368 + ^ x20: .cfa -360 + ^
STACK CFI 20 x21: .cfa -352 + ^ x22: .cfa -344 + ^
STACK CFI 28 x23: .cfa -336 + ^ x24: .cfa -328 + ^
STACK CFI 124 x19: x19 x20: x20
STACK CFI 128 x21: x21 x22: x22
STACK CFI 12c x23: x23 x24: x24
STACK CFI 130 .cfa: sp 0 + .ra: .ra x29: x29
STACK CFI INIT 0 218 .cfa: sp 0 + .ra: x30
STACK CFI 4 .cfa: sp 240 + .ra: .cfa -232 + ^ x29: .cfa -240 + ^
STACK CFI 8 .cfa: x29 240 +
STACK CFI c x21: .cfa -208 + ^ x22: .cfa -200 + ^
STACK CFI 14 x23: .cfa -192 + ^ x24: .cfa -184 + ^
STACK CFI 30 x19: .cfa -224 + ^ x20: .cfa -216 + ^
STACK CFI 208 x19: x19 x20: x20
STACK CFI 20c x21: x21 x22: x22
STACK CFI 210 x23: x23 x24: x24
STACK CFI 214 .cfa: sp 0 + .ra: .ra x29: x29
STACK CFI INIT 31e68 950 .cfa: sp 0 + .ra: x30
STACK CFI 31e6c .cfa: sp 1024 +
STACK CFI 31e70 .cfa: sp 1136 + .ra: .cfa -1128 + ^ x29: .cfa -1136 + ^
STACK CFI 31e74 .cfa: x29 1136 +
STACK CFI 31e7c x19: .cfa -1120 + ^ x20: .cfa -1112 + ^ x21: .cfa -1104 + ^ x22: .cfa -1096 + ^
STACK CFI 31e90 x23: .cfa -1088 + ^ x24: .cfa -1080 + ^
STACK CFI 31ea4 v8: .cfa -1040 + ^ x25: .cfa -1072 + ^ x26: .cfa -1064 + ^ x27: .cfa -1056 + ^ x28: .cfa -1048 + ^
STACK CFI 32798 x19: x19 x20: x20
STACK CFI 3279c x21: x21 x22: x22
STACK CFI 327a0 x23: x23 x24: x24
STACK CFI 327a4 x25: x25 x26: x26
STACK CFI 327a8 x27: x27 x28: x28
STACK CFI 327ac v8: v8
STACK CFI 327b0 .cfa: sp 1024 + .ra: .ra x29: x29
STACK CFI 327b4 .cfa: sp 912 +
STACK CFI INIT 282a4 28 .cfa: sp 0 + .ra: x30
STACK CFI INIT 282cc 20 .cfa: sp 0 + .ra: x30
STACK CFI 282d0 .cfa: sp 32 + .ra: .cfa -24 + ^ x29: .cfa -32 + ^
STACK CFI 282d8 .cfa: x29 32 +
STACK CFI 282e8 .cfa: sp 0 + .ra: .ra x29: x29
STACK CFI INIT 282ec 20 .cfa: sp 0 + .ra: x30
STACK CFI 282f0 .cfa: sp 32 + .ra: .cfa -24 + ^ x29: .cfa -32 + ^
STACK CFI 282f8 .cfa: x29 32 +
STACK CFI 28308 .cfa: sp 0 + .ra: .ra x29: x29
STACK CFI INIT 2830c 110 .cfa: sp 0 + .ra: x30
STACK CFI 28310 .cfa: sp 32 + .ra: .cfa -24 + ^ x29: .cfa -32 + ^
STACK CFI 2831c .cfa: x29 32 +
STACK CFI 28398 .cfa: sp 0 + .ra: .ra x29: x29
STACK CFI 2839c .cfa: x29 32 + .ra: .cfa -24 + ^ x29: .cfa -32 + ^
STACK CFI INIT 2841c 124 .cfa: sp 0 + .ra: x30
STACK CFI 28420 .cfa: sp 80 + .ra: .cfa -72 + ^ x29: .cfa -80 + ^
STACK CFI 28424 .cfa: x29 80 +
STACK CFI 28430 x19: .cfa -64 + ^ x20: .cfa -56 + ^ x21: .cfa -48 + ^ x22: .cfa -40 + ^ x23: .cfa -32 + ^ x24: .cfa -24 + ^
STACK CFI 28530 x19: x19 x20: x20
STACK CFI 28534 x21: x21 x22: x22
STACK CFI 28538 x23: x23 x24: x24
STACK CFI 2853c .cfa: sp 0 + .ra: .ra x29: x29
STACK CFI INIT 0 9c .cfa: sp 0 + .ra: x30
STACK CFI 4 .cfa: sp 80 + .ra: .cfa -72 + ^ x29: .cfa -80 + ^
STACK CFI 8 .cfa: x29 80 +
STACK CFI 10 x19: .cfa -64 + ^ x20: .cfa -56 + ^ x21: .cfa -48 + ^
STACK CFI 8c x21: x21
STACK CFI 94 x19: x19 x20: x20
STACK CFI 98 .cfa: sp 0 + .ra: .ra x29: x29
STACK CFI INIT 28714 b8 .cfa: sp 0 + .ra: x30
STACK CFI 28718 .cfa: sp 48 + .ra: .cfa -40 + ^ x29: .cfa -48 + ^
STACK CFI 2871c .cfa: x29 48 +
STACK CFI 28724 x19: .cfa -32 + ^ x20: .cfa -24 + ^ x21: .cfa -16 + ^
STACK CFI 287c0 x21: x21
STACK CFI 287c4 x19: x19 x20: x20
STACK CFI 287c8 .cfa: sp 0 + .ra: .ra x29: x29
STACK CFI INIT 287cc 10c .cfa: sp 0 + .ra: x30
STACK CFI 287d0 .cfa: sp 64 + .ra: .cfa -56 + ^ x29: .cfa -64 + ^
STACK CFI 287d8 .cfa: x29 64 +
STACK CFI 287e0 x19: .cfa -48 + ^ x20: .cfa -40 + ^ x23: .cfa -16 + ^
STACK CFI 287e8 x21: .cfa -32 + ^ x22: .cfa -24 + ^
STACK CFI 288c8 x19: x19 x20: x20
STACK CFI 288cc x21: x21 x22: x22
STACK CFI 288d0 x23: x23
STACK CFI 288d4 .cfa: sp 0 + .ra: .ra x29: x29
STACK CFI INIT 285f0 60 .cfa: sp 0 + .ra: x30
STACK CFI 285f4 .cfa: sp 32 + .ra: .cfa -24 + ^ x29: .cfa -32 + ^
STACK CFI 285f8 .cfa: x29 32 +
STACK CFI 285fc x19: .cfa -16 + ^ x20: .cfa -8 + ^
STACK CFI 28648 x19: x19 x20: x20
STACK CFI 2864c .cfa: sp 0 + .ra: .ra x29: x29
STACK CFI INIT 28650 c4 .cfa: sp 0 + .ra: x30
STACK CFI 28654 .cfa: sp 48 + .ra: .cfa -40 + ^ x29: .cfa -48 + ^
STACK CFI 2865c .cfa: x29 48 +
STACK CFI 28664 x19: .cfa -32 + ^ x20: .cfa -24 + ^ x21: .cfa -16 + ^
STACK CFI 28708 x19: x19 x20: x20
STACK CFI 2870c x21: x21
STACK CFI 28710 .cfa: sp 0 + .ra: .ra x29: x29
STACK CFI INIT 288d8 f0 .cfa: sp 0 + .ra: x30
STACK CFI 288dc .cfa: sp 64 + .ra: .cfa -56 + ^ x29: .cfa -64 + ^
STACK CFI 288e4 .cfa: x29 64 +
STACK CFI 288f0 x19: .cfa -48 + ^ x20: .cfa -40 + ^ x21: .cfa -32 + ^ x22: .cfa -24 + ^ x23: .cfa -16 + ^
STACK CFI 289b8 x23: x23
STACK CFI 289bc x19: x19 x20: x20
STACK CFI 289c0 x21: x21 x22: x22
STACK CFI 289c4 .cfa: sp 0 + .ra: .ra x29: x29
STACK CFI INIT 0 f4 .cfa: sp 0 + .ra: x30
STACK CFI 4 .cfa: sp 80 + .ra: .cfa -72 + ^ x29: .cfa -80 + ^
STACK CFI c .cfa: x29 80 +
STACK CFI 18 x19: .cfa -64 + ^ x20: .cfa -56 + ^ x21: .cfa -48 + ^ x22: .cfa -40 + ^ x23: .cfa -32 + ^
STACK CFI e4 x23: x23
STACK CFI e8 x19: x19 x20: x20
STACK CFI ec x21: x21 x22: x22
STACK CFI f0 .cfa: sp 0 + .ra: .ra x29: x29
STACK CFI INIT 26984 124 .cfa: sp 0 + .ra: x30
STACK CFI 26988 .cfa: sp 80 + .ra: .cfa -72 + ^ x29: .cfa -80 + ^
STACK CFI 26990 .cfa: x29 80 +
STACK CFI 2699c x19: .cfa -64 + ^ x20: .cfa -56 + ^ x21: .cfa -48 + ^ x22: .cfa -40 + ^ x23: .cfa -32 + ^
STACK CFI 26a98 x19: x19 x20: x20
STACK CFI 26a9c x21: x21 x22: x22
STACK CFI 26aa0 x23: x23
STACK CFI 26aa4 .cfa: sp 0 + .ra: .ra x29: x29
STACK CFI INIT 21510 6c .cfa: sp 0 + .ra: x30
STACK CFI 21514 .cfa: sp 32 + .ra: .cfa -24 + ^ x29: .cfa -32 + ^
STACK CFI 21518 .cfa: x29 32 +
STACK CFI 21574 .cfa: sp 0 + .ra: .ra x29: x29
STACK CFI INIT 2351c 4 .cfa: sp 0 + .ra: x30
STACK CFI INIT 23520 4 .cfa: sp 0 + .ra: x30
STACK CFI INIT 23524 8 .cfa: sp 0 + .ra: x30
STACK CFI INIT 2354c 8 .cfa: sp 0 + .ra: x30
STACK CFI INIT 23554 4 .cfa: sp 0 + .ra: x30
STACK CFI INIT 23558 8 .cfa: sp 0 + .ra: x30
STACK CFI INIT 327b8 4 .cfa: sp 0 + .ra: x30
STACK CFI INIT 327bc 4 .cfa: sp 0 + .ra: x30
STACK CFI INIT 327c0 4 .cfa: sp 0 + .ra: x30
STACK CFI INIT 327c4 4 .cfa: sp 0 + .ra: x30
STACK CFI INIT 327c8 4 .cfa: sp 0 + .ra: x30
STACK CFI INIT 327cc 4 .cfa: sp 0 + .ra: x30
STACK CFI INIT 327d0 4 .cfa: sp 0 + .ra: x30
STACK CFI INIT 235c8 8 .cfa: sp 0 + .ra: x30
STACK CFI INIT 235d0 1c .cfa: sp 0 + .ra: x30
STACK CFI INIT 235ec 24 .cfa: sp 0 + .ra: x30
STACK CFI INIT 23610 6c .cfa: sp 0 + .ra: x30
STACK CFI INIT 2367c 4 .cfa: sp 0 + .ra: x30
STACK CFI INIT 23680 8 .cfa: sp 0 + .ra: x30
STACK CFI INIT 23688 40 .cfa: sp 0 + .ra: x30
STACK CFI 2368c .cfa: sp 32 + .ra: .cfa -24 + ^ x29: .cfa -32 + ^
STACK CFI 23690 .cfa: x29 32 +
STACK CFI 23694 x19: .cfa -16 + ^
STACK CFI 236c0 x19: x19
STACK CFI 236c4 .cfa: sp 0 + .ra: .ra x29: x29
STACK CFI INIT 236c8 8 .cfa: sp 0 + .ra: x30
STACK CFI INIT 327d4 4 .cfa: sp 0 + .ra: x30
STACK CFI INIT 327d8 4 .cfa: sp 0 + .ra: x30
STACK CFI INIT 327dc 4 .cfa: sp 0 + .ra: x30
STACK CFI INIT 327e0 4 .cfa: sp 0 + .ra: x30
STACK CFI INIT 327e4 4 .cfa: sp 0 + .ra: x30
STACK CFI INIT 327e8 4 .cfa: sp 0 + .ra: x30
STACK CFI INIT 327ec 4 .cfa: sp 0 + .ra: x30
STACK CFI INIT 237ec a8 .cfa: sp 0 + .ra: x30
STACK CFI 237f0 .cfa: sp 64 + .ra: .cfa -56 + ^ x29: .cfa -64 + ^
STACK CFI 237f4 .cfa: x29 64 +
STACK CFI 23800 x19: .cfa -48 + ^ x20: .cfa -40 + ^ x21: .cfa -32 + ^ x22: .cfa -24 + ^ x23: .cfa -16 + ^
STACK CFI 23884 x23: x23
STACK CFI 23888 x19: x19 x20: x20
STACK CFI 2388c x21: x21 x22: x22
STACK CFI 23890 .cfa: sp 0 + .ra: .ra x29: x29
STACK CFI INIT 23738 b4 .cfa: sp 0 + .ra: x30
STACK CFI 2373c .cfa: sp 64 + .ra: .cfa -56 + ^ x29: .cfa -64 + ^
STACK CFI 23740 .cfa: x29 64 +
STACK CFI 2374c x19: .cfa -48 + ^ x20: .cfa -40 + ^ x21: .cfa -32 + ^ x22: .cfa -24 + ^ x23: .cfa -16 + ^
STACK CFI 237dc x23: x23
STACK CFI 237e0 x19: x19 x20: x20
STACK CFI 237e4 x21: x21 x22: x22
STACK CFI 237e8 .cfa: sp 0 + .ra: .ra x29: x29
STACK CFI INIT 23894 14 .cfa: sp 0 + .ra: x30
STACK CFI INIT 238a8 24 .cfa: sp 0 + .ra: x30
STACK CFI 238ac .cfa: sp 32 + .ra: .cfa -24 + ^ x29: .cfa -32 + ^
STACK CFI 238b0 .cfa: x29 32 +
STACK CFI 238b4 x19: .cfa -16 + ^
STACK CFI 238c4 x19: x19
STACK CFI 238c8 .cfa: sp 0 + .ra: .ra x29: x29
STACK CFI INIT 238cc 14 .cfa: sp 0 + .ra: x30
STACK CFI INIT 238e0 24 .cfa: sp 0 + .ra: x30
STACK CFI 238e4 .cfa: sp 32 + .ra: .cfa -24 + ^ x29: .cfa -32 + ^
STACK CFI 238e8 .cfa: x29 32 +
STACK CFI 238ec x19: .cfa -16 + ^
STACK CFI 238fc x19: x19
STACK CFI 23900 .cfa: sp 0 + .ra: .ra x29: x29
STACK CFI INIT 327f0 14 .cfa: sp 0 + .ra: x30
STACK CFI INIT 32804 24 .cfa: sp 0 + .ra: x30
STACK CFI 32808 .cfa: sp 32 + .ra: .cfa -24 + ^ x29: .cfa -32 + ^
STACK CFI 3280c .cfa: x29 32 +
STACK CFI 32810 x19: .cfa -16 + ^
STACK CFI 32820 x19: x19
STACK CFI 32824 .cfa: sp 0 + .ra: .ra x29: x29
STACK CFI INIT 32828 14 .cfa: sp 0 + .ra: x30
STACK CFI INIT 3283c 24 .cfa: sp 0 + .ra: x30
STACK CFI 32840 .cfa: sp 32 + .ra: .cfa -24 + ^ x29: .cfa -32 + ^
STACK CFI 32844 .cfa: x29 32 +
STACK CFI 32848 x19: .cfa -16 + ^
STACK CFI 32858 x19: x19
STACK CFI 3285c .cfa: sp 0 + .ra: .ra x29: x29
STACK CFI INIT 32860 14 .cfa: sp 0 + .ra: x30
STACK CFI INIT 32874 24 .cfa: sp 0 + .ra: x30
STACK CFI 32878 .cfa: sp 32 + .ra: .cfa -24 + ^ x29: .cfa -32 + ^
STACK CFI 3287c .cfa: x29 32 +
STACK CFI 32880 x19: .cfa -16 + ^
STACK CFI 32890 x19: x19
STACK CFI 32894 .cfa: sp 0 + .ra: .ra x29: x29
STACK CFI INIT 32898 14 .cfa: sp 0 + .ra: x30
STACK CFI INIT 328ac 24 .cfa: sp 0 + .ra: x30
STACK CFI 328b0 .cfa: sp 32 + .ra: .cfa -24 + ^ x29: .cfa -32 + ^
STACK CFI 328b4 .cfa: x29 32 +
STACK CFI 328b8 x19: .cfa -16 + ^
STACK CFI 328c8 x19: x19
STACK CFI 328cc .cfa: sp 0 + .ra: .ra x29: x29
STACK CFI INIT 328d0 14 .cfa: sp 0 + .ra: x30
STACK CFI INIT 328e4 24 .cfa: sp 0 + .ra: x30
STACK CFI 328e8 .cfa: sp 32 + .ra: .cfa -24 + ^ x29: .cfa -32 + ^
STACK CFI 328ec .cfa: x29 32 +
STACK CFI 328f0 x19: .cfa -16 + ^
STACK CFI 32900 x19: x19
STACK CFI 32904 .cfa: sp 0 + .ra: .ra x29: x29
STACK CFI INIT 32908 14 .cfa: sp 0 + .ra: x30
STACK CFI INIT 3291c 24 .cfa: sp 0 + .ra: x30
STACK CFI 32920 .cfa: sp 32 + .ra: .cfa -24 + ^ x29: .cfa -32 + ^
STACK CFI 32924 .cfa: x29 32 +
STACK CFI 32928 x19: .cfa -16 + ^
STACK CFI 32938 x19: x19
STACK CFI 3293c .cfa: sp 0 + .ra: .ra x29: x29
STACK CFI INIT 32940 14 .cfa: sp 0 + .ra: x30
STACK CFI INIT 32954 24 .cfa: sp 0 + .ra: x30
STACK CFI 32958 .cfa: sp 32 + .ra: .cfa -24 + ^ x29: .cfa -32 + ^
STACK CFI 3295c .cfa: x29 32 +
STACK CFI 32960 x19: .cfa -16 + ^
STACK CFI 32970 x19: x19
STACK CFI 32974 .cfa: sp 0 + .ra: .ra x29: x29
STACK CFI INIT 32978 3c .cfa: sp 0 + .ra: x30
STACK CFI 3297c .cfa: sp 32 + .ra: .cfa -24 + ^ x29: .cfa -32 + ^
STACK CFI 32984 .cfa: x29 32 +
STACK CFI 32988 x19: .cfa -16 + ^
STACK CFI 329ac x19: x19
STACK CFI 329b0 .cfa: sp 0 + .ra: .ra x29: x29
STACK CFI INIT 329b4 3c .cfa: sp 0 + .ra: x30
STACK CFI 329b8 .cfa: sp 32 + .ra: .cfa -24 + ^ x29: .cfa -32 + ^
STACK CFI 329c0 .cfa: x29 32 +
STACK CFI 329c4 x19: .cfa -16 + ^
STACK CFI 329e8 x19: x19
STACK CFI 329ec .cfa: sp 0 + .ra: .ra x29: x29
STACK CFI INIT 329f0 3c .cfa: sp 0 + .ra: x30
STACK CFI 329f4 .cfa: sp 32 + .ra: .cfa -24 + ^ x29: .cfa -32 + ^
STACK CFI 329fc .cfa: x29 32 +
STACK CFI 32a00 x19: .cfa -16 + ^
STACK CFI 32a24 x19: x19
STACK CFI 32a28 .cfa: sp 0 + .ra: .ra x29: x29
STACK CFI INIT 32a2c 3c .cfa: sp 0 + .ra: x30
STACK CFI 32a30 .cfa: sp 32 + .ra: .cfa -24 + ^ x29: .cfa -32 + ^
STACK CFI 32a38 .cfa: x29 32 +
STACK CFI 32a3c x19: .cfa -16 + ^
STACK CFI 32a60 x19: x19
STACK CFI 32a64 .cfa: sp 0 + .ra: .ra x29: x29
STACK CFI INIT 32a68 3c .cfa: sp 0 + .ra: x30
STACK CFI 32a6c .cfa: sp 32 + .ra: .cfa -24 + ^ x29: .cfa -32 + ^
STACK CFI 32a74 .cfa: x29 32 +
STACK CFI 32a78 x19: .cfa -16 + ^
STACK CFI 32a9c x19: x19
STACK CFI 32aa0 .cfa: sp 0 + .ra: .ra x29: x29
STACK CFI INIT 32aa4 3c .cfa: sp 0 + .ra: x30
STACK CFI 32aa8 .cfa: sp 32 + .ra: .cfa -24 + ^ x29: .cfa -32 + ^
STACK CFI 32ab0 .cfa: x29 32 +
STACK CFI 32ab4 x19: .cfa -16 + ^
STACK CFI 32ad8 x19: x19
STACK CFI 32adc .cfa: sp 0 + .ra: .ra x29: x29
STACK CFI INIT 32ae0 3c .cfa: sp 0 + .ra: x30
STACK CFI 32ae4 .cfa: sp 32 + .ra: .cfa -24 + ^ x29: .cfa -32 + ^
STACK CFI 32aec .cfa: x29 32 +
STACK CFI 32af0 x19: .cfa -16 + ^
STACK CFI 32b14 x19: x19
STACK CFI 32b18 .cfa: sp 0 + .ra: .ra x29: x29
STACK CFI INIT 24794 b0 .cfa: sp 0 + .ra: x30
STACK CFI 24798 .cfa: sp 64 + .ra: .cfa -56 + ^ x29: .cfa -64 + ^
STACK CFI 2479c .cfa: x29 64 +
STACK CFI 247a8 x19: .cfa -48 + ^ x20: .cfa -40 + ^ x21: .cfa -32 + ^ x22: .cfa -24 + ^ x23: .cfa -16 + ^
STACK CFI 24834 x23: x23
STACK CFI 24838 x19: x19 x20: x20
STACK CFI 2483c x21: x21 x22: x22
STACK CFI 24840 .cfa: sp 0 + .ra: .ra x29: x29
STACK CFI INIT 32b1c 118 .cfa: sp 0 + .ra: x30
STACK CFI 32b20 .cfa: sp 32 + .ra: .cfa -24 + ^ x29: .cfa -32 + ^
STACK CFI 32b2c .cfa: x29 32 +
STACK CFI 32b30 x19: .cfa -16 + ^ x20: .cfa -8 + ^
STACK CFI 32c2c x19: x19 x20: x20
STACK CFI 32c30 .cfa: sp 0 + .ra: .ra x29: x29
STACK CFI INIT 32c34 20 .cfa: sp 0 + .ra: x30
STACK CFI INIT 2eb40 18 .cfa: sp 0 + .ra: x30
STACK CFI INIT 24844 40 .cfa: sp 0 + .ra: x30
STACK CFI 24848 .cfa: sp 32 + .ra: .cfa -24 + ^ x29: .cfa -32 + ^
STACK CFI 24854 .cfa: x29 32 +
STACK CFI 24858 x19: .cfa -16 + ^
STACK CFI 2487c x19: x19
STACK CFI 24880 .cfa: sp 0 + .ra: .ra x29: x29
STACK CFI INIT 24884 1c .cfa: sp 0 + .ra: x30
STACK CFI INIT 2fe54 10 .cfa: sp 0 + .ra: x30
STACK CFI INIT 2fe64 68 .cfa: sp 0 + .ra: x30
STACK CFI 2fe68 .cfa: sp 4096 +
STACK CFI 2fe7c .cfa: sp 4128 + .ra: .cfa -4120 + ^ x29: .cfa -4128 + ^
STACK CFI 2fe80 .cfa: x29 4128 +
STACK CFI 2fe84 x19: .cfa -4112 + ^ x20: .cfa -4104 + ^
STACK CFI 2fec0 x19: x19 x20: x20
STACK CFI 2fec4 .cfa: sp 4096 + .ra: .ra x29: x29
STACK CFI 2fec8 .cfa: sp 4064 +
STACK CFI INIT 32c54 8c .cfa: sp 0 + .ra: x30
STACK CFI 32c58 .cfa: sp 48 + .ra: .cfa -40 + ^ x29: .cfa -48 + ^
STACK CFI 32c5c .cfa: x29 48 +
STACK CFI 32c64 x19: .cfa -32 + ^ x20: .cfa -24 + ^ x21: .cfa -16 + ^ x22: .cfa -8 + ^
STACK CFI 32cb8 x21: x21 x22: x22
STACK CFI 32cbc x19: x19 x20: x20
STACK CFI 32cc0 .cfa: sp 0 + .ra: .ra x29: x29
STACK CFI 32cc4 .cfa: x29 48 + .ra: .cfa -40 + ^ x19: .cfa -32 + ^ x20: .cfa -24 + ^ x21: .cfa -16 + ^ x22: .cfa -8 + ^ x29: .cfa -48 + ^
STACK CFI 32cd0 x19: x19 x20: x20
STACK CFI 32cd4 x21: x21 x22: x22
STACK CFI 32cd8 .cfa: sp 0 + .ra: .ra x29: x29
STACK CFI INIT 32ce0 54 .cfa: sp 0 + .ra: x30
STACK CFI 32ce4 .cfa: sp 32 + .ra: .cfa -24 + ^ x29: .cfa -32 + ^
STACK CFI 32ce8 .cfa: x29 32 +
STACK CFI 32cec x19: .cfa -16 + ^ x20: .cfa -8 + ^
STACK CFI 32d20 x19: x19 x20: x20
STACK CFI 32d24 .cfa: sp 0 + .ra: .ra x29: x29
STACK CFI 32d28 .cfa: x29 32 + .ra: .cfa -24 + ^ x19: .cfa -16 + ^ x20: .cfa -8 + ^ x29: .cfa -32 + ^
STACK CFI 32d2c x19: x19 x20: x20
STACK CFI 32d30 .cfa: sp 0 + .ra: .ra x29: x29
STACK CFI INIT 248a0 48 .cfa: sp 0 + .ra: x30
STACK CFI 248a4 .cfa: sp 32 + .ra: .cfa -24 + ^ x29: .cfa -32 + ^
STACK CFI 248a8 .cfa: x29 32 +
STACK CFI 248ac x19: .cfa -16 + ^
STACK CFI 248e0 x19: x19
STACK CFI 248e4 .cfa: sp 0 + .ra: .ra x29: x29
STACK CFI INIT 248e8 30 .cfa: sp 0 + .ra: x30
STACK CFI INIT 24940 34 .cfa: sp 0 + .ra: x30
STACK CFI 24948 .cfa: sp 32 + .ra: .cfa -24 + ^ x29: .cfa -32 + ^
STACK CFI 2494c .cfa: x29 32 +
STACK CFI 24954 x19: .cfa -16 + ^
STACK CFI 2496c x19: x19
STACK CFI 24970 .cfa: sp 0 + .ra: .ra x29: x29
STACK CFI INIT 24974 24 .cfa: sp 0 + .ra: x30
STACK CFI 24978 .cfa: sp 32 + .ra: .cfa -24 + ^ x29: .cfa -32 + ^
STACK CFI 2497c .cfa: x29 32 +
STACK CFI 24980 x19: .cfa -16 + ^
STACK CFI 24990 x19: x19
STACK CFI 24994 .cfa: sp 0 + .ra: .ra x29: x29
STACK CFI INIT 0 54 .cfa: sp 0 + .ra: x30
STACK CFI 4 .cfa: sp 32 + .ra: .cfa -24 + ^ x29: .cfa -32 + ^
STACK CFI 8 .cfa: x29 32 +
STACK CFI c x19: .cfa -16 + ^
STACK CFI 40 x19: x19
STACK CFI 44 .cfa: sp 0 + .ra: .ra x29: x29
STACK CFI 48 .cfa: x29 32 + .ra: .cfa -24 + ^ x19: .cfa -16 + ^ x29: .cfa -32 + ^
STACK CFI 4c x19: x19
STACK CFI 50 .cfa: sp 0 + .ra: .ra x29: x29
STACK CFI INIT 32d34 1a8 .cfa: sp 0 + .ra: x30
STACK CFI 32d38 .cfa: sp 624 +
STACK CFI 32d44 .cfa: sp 688 + .ra: .cfa -680 + ^ x29: .cfa -688 + ^
STACK CFI 32d48 .cfa: x29 688 +
STACK CFI 32d4c x21: .cfa -656 + ^ x22: .cfa -648 + ^
STACK CFI 32d60 x19: .cfa -672 + ^ x20: .cfa -664 + ^ x23: .cfa -640 + ^
STACK CFI 32ec8 x23: x23
STACK CFI 32ecc x19: x19 x20: x20
STACK CFI 32ed0 x21: x21 x22: x22
STACK CFI 32ed4 .cfa: sp 624 + .ra: .ra x29: x29
STACK CFI 32ed8 .cfa: sp 560 +
STACK CFI INIT 32edc 1d4 .cfa: sp 0 + .ra: x30
STACK CFI 32ee0 .cfa: sp 1136 +
STACK CFI 32eec .cfa: sp 1200 + .ra: .cfa -1192 + ^ x29: .cfa -1200 + ^
STACK CFI 32ef0 .cfa: x29 1200 +
STACK CFI 32ef4 x19: .cfa -1184 + ^ x20: .cfa -1176 + ^
STACK CFI 32f08 x21: .cfa -1168 + ^ x22: .cfa -1160 + ^ x23: .cfa -1152 + ^
STACK CFI 3309c x23: x23
STACK CFI 330a0 x19: x19 x20: x20
STACK CFI 330a4 x21: x21 x22: x22
STACK CFI 330a8 .cfa: sp 1136 + .ra: .ra x29: x29
STACK CFI 330ac .cfa: sp 1072 +
STACK CFI INIT 24a00 fc .cfa: sp 0 + .ra: x30
STACK CFI 24a04 .cfa: sp 96 + .ra: .cfa -88 + ^ x29: .cfa -96 + ^
STACK CFI 24a0c .cfa: x29 96 +
STACK CFI 24a18 x19: .cfa -80 + ^ x20: .cfa -72 + ^ x21: .cfa -64 + ^ x22: .cfa -56 + ^ x23: .cfa -48 + ^ x24: .cfa -40 + ^
STACK CFI 24aec x21: x21 x22: x22
STACK CFI 24af0 x19: x19 x20: x20
STACK CFI 24af4 x23: x23 x24: x24
STACK CFI 24af8 .cfa: sp 0 + .ra: .ra x29: x29
STACK CFI INIT 24afc b4 .cfa: sp 0 + .ra: x30
STACK CFI 24b00 .cfa: sp 48 + .ra: .cfa -40 + ^ x29: .cfa -48 + ^
STACK CFI 24b04 .cfa: x29 48 +
STACK CFI 24b08 x19: .cfa -32 + ^ x20: .cfa -24 + ^
STACK CFI 24b18 x21: .cfa -16 + ^
STACK CFI 24ba4 x21: x21
STACK CFI 24ba8 x19: x19 x20: x20
STACK CFI 24bac .cfa: sp 0 + .ra: .ra x29: x29
STACK CFI INIT 24bb0 b0 .cfa: sp 0 + .ra: x30
STACK CFI 24bb4 .cfa: sp 48 + .ra: .cfa -40 + ^ x29: .cfa -48 + ^
STACK CFI 24bb8 .cfa: x29 48 +
STACK CFI 24bc0 x19: .cfa -32 + ^ x20: .cfa -24 + ^ x21: .cfa -16 + ^
STACK CFI 24c40 x21: x21
STACK CFI 24c58 x19: x19 x20: x20
STACK CFI 24c5c .cfa: sp 0 + .ra: .ra x29: x29
STACK CFI INIT 0 54 .cfa: sp 0 + .ra: x30
STACK CFI 4 .cfa: sp 48 + .ra: .cfa -40 + ^ x29: .cfa -48 + ^
STACK CFI 8 .cfa: x29 48 +
STACK CFI c x19: .cfa -32 + ^
STACK CFI 4c x19: x19
STACK CFI 50 .cfa: sp 0 + .ra: .ra x29: x29
STACK CFI INIT 250a4 58 .cfa: sp 0 + .ra: x30
STACK CFI 250a8 .cfa: sp 48 + .ra: .cfa -40 + ^ x29: .cfa -48 + ^
STACK CFI 250ac .cfa: x29 48 +
STACK CFI 250b0 x19: .cfa -32 + ^ x20: .cfa -24 + ^
STACK CFI 250b8 x21: .cfa -16 + ^
STACK CFI 250f0 x19: x19 x20: x20
STACK CFI 250f4 x21: x21
STACK CFI 250f8 .cfa: sp 0 + .ra: .ra x29: x29
STACK CFI INIT 0 c8 .cfa: sp 0 + .ra: x30
STACK CFI 4 .cfa: sp 48 + .ra: .cfa -40 + ^ x29: .cfa -48 + ^
STACK CFI 8 .cfa: x29 48 +
STACK CFI 10 x19: .cfa -32 + ^ x20: .cfa -24 + ^ x21: .cfa -16 + ^
STACK CFI b4 x21: x21
STACK CFI c0 x19: x19 x20: x20
STACK CFI c4 .cfa: sp 0 + .ra: .ra x29: x29
STACK CFI INIT 0 f4 .cfa: sp 0 + .ra: x30
STACK CFI 4 .cfa: sp 48 + .ra: .cfa -40 + ^ x29: .cfa -48 + ^
STACK CFI 8 .cfa: x29 48 +
STACK CFI c x21: .cfa -16 + ^ x22: .cfa -8 + ^
STACK CFI 18 x19: .cfa -32 + ^ x20: .cfa -24 + ^
STACK CFI e8 x19: x19 x20: x20
STACK CFI ec x21: x21 x22: x22
STACK CFI f0 .cfa: sp 0 + .ra: .ra x29: x29
STACK CFI INIT 251f0 8c .cfa: sp 0 + .ra: x30
STACK CFI 251f4 .cfa: sp 48 + .ra: .cfa -40 + ^ x29: .cfa -48 + ^
STACK CFI 251f8 .cfa: x29 48 +
STACK CFI 251fc x19: .cfa -32 + ^
STACK CFI 25268 x19: x19
STACK CFI 2526c .cfa: sp 0 + .ra: .ra x29: x29
STACK CFI 25270 .cfa: x29 48 + .ra: .cfa -40 + ^ x19: .cfa -32 + ^ x29: .cfa -48 + ^
STACK CFI 25274 x19: x19
STACK CFI 25278 .cfa: sp 0 + .ra: .ra x29: x29
STACK CFI INIT 2527c c .cfa: sp 0 + .ra: x30
STACK CFI INIT 25288 10 .cfa: sp 0 + .ra: x30
STACK CFI INIT 25298 24 .cfa: sp 0 + .ra: x30
STACK CFI 2529c .cfa: sp 32 + .ra: .cfa -24 + ^ x29: .cfa -32 + ^
STACK CFI 252a0 .cfa: x29 32 +
STACK CFI 252a4 x19: .cfa -16 + ^
STACK CFI 252b4 x19: x19
STACK CFI 252b8 .cfa: sp 0 + .ra: .ra x29: x29
STACK CFI INIT 252bc 10 .cfa: sp 0 + .ra: x30
STACK CFI INIT 252cc c .cfa: sp 0 + .ra: x30
STACK CFI INIT 252d8 8c .cfa: sp 0 + .ra: x30
STACK CFI 252dc .cfa: sp 48 + .ra: .cfa -40 + ^ x29: .cfa -48 + ^
STACK CFI 252e0 .cfa: x29 48 +
STACK CFI 252e4 x19: .cfa -32 + ^
STACK CFI 25350 x19: x19
STACK CFI 25354 .cfa: sp 0 + .ra: .ra x29: x29
STACK CFI 25358 .cfa: x29 48 + .ra: .cfa -40 + ^ x19: .cfa -32 + ^ x29: .cfa -48 + ^
STACK CFI 2535c x19: x19
STACK CFI 25360 .cfa: sp 0 + .ra: .ra x29: x29
STACK CFI INIT 25364 c .cfa: sp 0 + .ra: x30
STACK CFI INIT 25370 10 .cfa: sp 0 + .ra: x30
STACK CFI INIT 25380 24 .cfa: sp 0 + .ra: x30
STACK CFI 25384 .cfa: sp 32 + .ra: .cfa -24 + ^ x29: .cfa -32 + ^
STACK CFI 25388 .cfa: x29 32 +
STACK CFI 2538c x19: .cfa -16 + ^
STACK CFI 2539c x19: x19
STACK CFI 253a0 .cfa: sp 0 + .ra: .ra x29: x29
STACK CFI INIT 253a4 10 .cfa: sp 0 + .ra: x30
STACK CFI INIT 253b4 c .cfa: sp 0 + .ra: x30
STACK CFI INIT 253c0 e0 .cfa: sp 0 + .ra: x30
STACK CFI 253c4 .cfa: sp 48 + .ra: .cfa -40 + ^ x29: .cfa -48 + ^
STACK CFI 253c8 .cfa: x29 48 +
STACK CFI 253cc x19: .cfa -32 + ^ x20: .cfa -24 + ^
STACK CFI 2548c x19: x19 x20: x20
STACK CFI 25490 .cfa: sp 0 + .ra: .ra x29: x29
STACK CFI 25494 .cfa: x29 48 + .ra: .cfa -40 + ^ x19: .cfa -32 + ^ x20: .cfa -24 + ^ x29: .cfa -48 + ^
STACK CFI 25498 x19: x19 x20: x20
STACK CFI 2549c .cfa: sp 0 + .ra: .ra x29: x29
STACK CFI INIT 254a0 c .cfa: sp 0 + .ra: x30
STACK CFI INIT 254ac cc .cfa: sp 0 + .ra: x30
STACK CFI 254b0 .cfa: sp 48 + .ra: .cfa -40 + ^ x29: .cfa -48 + ^
STACK CFI 254b4 .cfa: x29 48 +
STACK CFI 254b8 x19: .cfa -32 + ^ x20: .cfa -24 + ^
STACK CFI 25564 x19: x19 x20: x20
STACK CFI 25568 .cfa: sp 0 + .ra: .ra x29: x29
STACK CFI 2556c .cfa: x29 48 + .ra: .cfa -40 + ^ x19: .cfa -32 + ^ x20: .cfa -24 + ^ x29: .cfa -48 + ^
STACK CFI 25570 x19: x19 x20: x20
STACK CFI 25574 .cfa: sp 0 + .ra: .ra x29: x29
STACK CFI INIT 25578 c .cfa: sp 0 + .ra: x30
STACK CFI INIT 25584 c .cfa: sp 0 + .ra: x30
STACK CFI INIT 25590 8 .cfa: sp 0 + .ra: x30
STACK CFI INIT 25598 10 .cfa: sp 0 + .ra: x30
STACK CFI INIT 255a8 24 .cfa: sp 0 + .ra: x30
STACK CFI 255ac .cfa: sp 32 + .ra: .cfa -24 + ^ x29: .cfa -32 + ^
STACK CFI 255b0 .cfa: x29 32 +
STACK CFI 255b4 x19: .cfa -16 + ^
STACK CFI 255c4 x19: x19
STACK CFI 255c8 .cfa: sp 0 + .ra: .ra x29: x29
STACK CFI INIT 255cc 8 .cfa: sp 0 + .ra: x30
STACK CFI INIT 255d4 10 .cfa: sp 0 + .ra: x30
STACK CFI INIT 255e4 c .cfa: sp 0 + .ra: x30
STACK CFI INIT 255f0 8 .cfa: sp 0 + .ra: x30
STACK CFI INIT 255f8 10 .cfa: sp 0 + .ra: x30
STACK CFI INIT 25608 24 .cfa: sp 0 + .ra: x30
STACK CFI 2560c .cfa: sp 32 + .ra: .cfa -24 + ^ x29: .cfa -32 + ^
STACK CFI 25610 .cfa: x29 32 +
STACK CFI 25614 x19: .cfa -16 + ^
STACK CFI 25624 x19: x19
STACK CFI 25628 .cfa: sp 0 + .ra: .ra x29: x29
STACK CFI INIT 2562c 8 .cfa: sp 0 + .ra: x30
STACK CFI INIT 25634 10 .cfa: sp 0 + .ra: x30
STACK CFI INIT 0 74 .cfa: sp 0 + .ra: x30
STACK CFI 4 .cfa: sp 32 + .ra: .cfa -24 + ^ x29: .cfa -32 + ^
STACK CFI 8 .cfa: x29 32 +
STACK CFI c x19: .cfa -16 + ^
STACK CFI 6c x19: x19
STACK CFI 70 .cfa: sp 0 + .ra: .ra x29: x29
STACK CFI INIT 25b54 5c .cfa: sp 0 + .ra: x30
STACK CFI 25b58 .cfa: sp 16 + .ra: .cfa -8 + ^ x29: .cfa -16 + ^
STACK CFI 25b5c .cfa: x29 16 +
STACK CFI 25bac .cfa: sp 0 + .ra: .ra x29: x29
STACK CFI INIT 0 13c .cfa: sp 0 + .ra: x30
STACK CFI 4 .cfa: sp 64 + .ra: .cfa -56 + ^ x29: .cfa -64 + ^
STACK CFI 8 .cfa: x29 64 +
STACK CFI 10 x19: .cfa -48 + ^ x20: .cfa -40 + ^ x21: .cfa -32 + ^
STACK CFI 130 x21: x21
STACK CFI 134 x19: x19 x20: x20
STACK CFI 138 .cfa: sp 0 + .ra: .ra x29: x29
STACK CFI INIT 330b0 e8 .cfa: sp 0 + .ra: x30
STACK CFI 330b4 .cfa: sp 480 + .ra: .cfa -472 + ^ x29: .cfa -480 + ^
STACK CFI 330b8 .cfa: x29 480 +
STACK CFI 330bc x19: .cfa -464 + ^ x20: .cfa -456 + ^
STACK CFI 330c8 x23: .cfa -432 + ^ x24: .cfa -424 + ^ x25: .cfa -416 + ^
STACK CFI 330e4 x21: .cfa -448 + ^ x22: .cfa -440 + ^
STACK CFI 33180 x25: x25
STACK CFI 33188 x19: x19 x20: x20
STACK CFI 3318c x21: x21 x22: x22
STACK CFI 33190 x23: x23 x24: x24
STACK CFI 33194 .cfa: sp 0 + .ra: .ra x29: x29
STACK CFI INIT 33198 3c .cfa: sp 0 + .ra: x30
STACK CFI 3319c .cfa: sp 32 + .ra: .cfa -24 + ^ x29: .cfa -32 + ^
STACK CFI 331a0 .cfa: x29 32 +
STACK CFI 331ac x19: .cfa -16 + ^
STACK CFI 331cc x19: x19
STACK CFI 331d0 .cfa: sp 0 + .ra: .ra x29: x29
STACK CFI INIT 0 114 .cfa: sp 0 + .ra: x30
STACK CFI 4 .cfa: sp 80 + .ra: .cfa -72 + ^ x29: .cfa -80 + ^
STACK CFI c .cfa: x29 80 +
STACK CFI 18 x19: .cfa -64 + ^ x20: .cfa -56 + ^ x21: .cfa -48 + ^ x22: .cfa -40 + ^ x23: .cfa -32 + ^
STACK CFI 104 x23: x23
STACK CFI 108 x19: x19 x20: x20
STACK CFI 10c x21: x21 x22: x22
STACK CFI 110 .cfa: sp 0 + .ra: .ra x29: x29
STACK CFI INIT 26984 124 .cfa: sp 0 + .ra: x30
STACK CFI 26988 .cfa: sp 80 + .ra: .cfa -72 + ^ x29: .cfa -80 + ^
STACK CFI 26990 .cfa: x29 80 +
STACK CFI 2699c x19: .cfa -64 + ^ x20: .cfa -56 + ^ x21: .cfa -48 + ^ x22: .cfa -40 + ^ x23: .cfa -32 + ^
STACK CFI 26a98 x19: x19 x20: x20
STACK CFI 26a9c x21: x21 x22: x22
STACK CFI 26aa0 x23: x23
STACK CFI 26aa4 .cfa: sp 0 + .ra: .ra x29: x29
STACK CFI INIT 279ec 5c .cfa: sp 0 + .ra: x30
STACK CFI 279f0 .cfa: sp 336 + .ra: .cfa -328 + ^ x29: .cfa -336 + ^
STACK CFI 279f8 .cfa: x29 336 +
STACK CFI 279fc x19: .cfa -320 + ^ x20: .cfa -312 + ^
STACK CFI 27a04 x21: .cfa -304 + ^
STACK CFI 27a38 x21: x21
STACK CFI 27a40 x19: x19 x20: x20
STACK CFI 27a44 .cfa: sp 0 + .ra: .ra x29: x29
STACK CFI INIT 27b7c 9c .cfa: sp 0 + .ra: x30
STACK CFI 27b80 .cfa: sp 160 + .ra: .cfa -152 + ^ x29: .cfa -160 + ^
STACK CFI 27b84 .cfa: x29 160 +
STACK CFI 27b8c x19: .cfa -144 + ^ x20: .cfa -136 + ^ x21: .cfa -128 + ^ x22: .cfa -120 + ^
STACK CFI 27c0c x19: x19 x20: x20
STACK CFI 27c10 x21: x21 x22: x22
STACK CFI 27c14 .cfa: sp 0 + .ra: .ra x29: x29
STACK CFI INIT 331d4 374 .cfa: sp 0 + .ra: x30
STACK CFI 331d8 .cfa: sp 624 +
STACK CFI 331e4 .cfa: sp 704 + .ra: .cfa -696 + ^ x29: .cfa -704 + ^
STACK CFI 331e8 .cfa: x29 704 +
STACK CFI 331ec x23: .cfa -656 + ^ x24: .cfa -648 + ^
STACK CFI 33200 x19: .cfa -688 + ^ x20: .cfa -680 + ^ x21: .cfa -672 + ^ x22: .cfa -664 + ^ x25: .cfa -640 + ^ x26: .cfa -632 + ^
STACK CFI 33530 x19: x19 x20: x20
STACK CFI 33534 x21: x21 x22: x22
STACK CFI 33538 x23: x23 x24: x24
STACK CFI 3353c x25: x25 x26: x26
STACK CFI 33540 .cfa: sp 624 + .ra: .ra x29: x29
STACK CFI 33544 .cfa: sp 544 +
STACK CFI INIT 33548 374 .cfa: sp 0 + .ra: x30
STACK CFI 3354c .cfa: sp 624 +
STACK CFI 33558 .cfa: sp 704 + .ra: .cfa -696 + ^ x29: .cfa -704 + ^
STACK CFI 3355c .cfa: x29 704 +
STACK CFI 33560 x23: .cfa -656 + ^ x24: .cfa -648 + ^
STACK CFI 33574 x19: .cfa -688 + ^ x20: .cfa -680 + ^ x21: .cfa -672 + ^ x22: .cfa -664 + ^ x25: .cfa -640 + ^ x26: .cfa -632 + ^
STACK CFI 338a4 x19: x19 x20: x20
STACK CFI 338a8 x21: x21 x22: x22
STACK CFI 338ac x23: x23 x24: x24
STACK CFI 338b0 x25: x25 x26: x26
STACK CFI 338b4 .cfa: sp 624 + .ra: .ra x29: x29
STACK CFI 338b8 .cfa: sp 544 +
STACK CFI INIT 338bc 568 .cfa: sp 0 + .ra: x30
STACK CFI 338c0 .cfa: sp 624 +
STACK CFI 338cc .cfa: sp 752 + .ra: .cfa -744 + ^ x29: .cfa -752 + ^
STACK CFI 338d0 .cfa: x29 752 +
STACK CFI 338d8 v8: .cfa -656 + ^ v9: .cfa -648 + ^ x25: .cfa -688 + ^ x26: .cfa -680 + ^
STACK CFI 338f4 v10: .cfa -640 + ^ x19: .cfa -736 + ^ x20: .cfa -728 + ^ x21: .cfa -720 + ^ x22: .cfa -712 + ^ x23: .cfa -704 + ^ x24: .cfa -696 + ^ x27: .cfa -672 + ^ x28: .cfa -664 + ^
STACK CFI 33e00 v8: v8 v9: v9
STACK CFI 33e04 x19: x19 x20: x20
STACK CFI 33e08 x21: x21 x22: x22
STACK CFI 33e0c x23: x23 x24: x24
STACK CFI 33e10 x25: x25 x26: x26
STACK CFI 33e14 x27: x27 x28: x28
STACK CFI 33e18 v10: v10
STACK CFI 33e1c .cfa: sp 624 + .ra: .ra x29: x29
STACK CFI 33e20 .cfa: sp 496 +
STACK CFI INIT 33e24 568 .cfa: sp 0 + .ra: x30
STACK CFI 33e28 .cfa: sp 624 +
STACK CFI 33e34 .cfa: sp 752 + .ra: .cfa -744 + ^ x29: .cfa -752 + ^
STACK CFI 33e38 .cfa: x29 752 +
STACK CFI 33e40 v8: .cfa -656 + ^ v9: .cfa -648 + ^ x25: .cfa -688 + ^ x26: .cfa -680 + ^
STACK CFI 33e5c v10: .cfa -640 + ^ x19: .cfa -736 + ^ x20: .cfa -728 + ^ x21: .cfa -720 + ^ x22: .cfa -712 + ^ x23: .cfa -704 + ^ x24: .cfa -696 + ^ x27: .cfa -672 + ^ x28: .cfa -664 + ^
STACK CFI 34368 v8: v8 v9: v9
STACK CFI 3436c x19: x19 x20: x20
STACK CFI 34370 x21: x21 x22: x22
STACK CFI 34374 x23: x23 x24: x24
STACK CFI 34378 x25: x25 x26: x26
STACK CFI 3437c x27: x27 x28: x28
STACK CFI 34380 v10: v10
STACK CFI 34384 .cfa: sp 624 + .ra: .ra x29: x29
STACK CFI 34388 .cfa: sp 496 +
STACK CFI INIT 3438c 3b8 .cfa: sp 0 + .ra: x30
STACK CFI 34390 .cfa: sp 1424 +
STACK CFI 3439c .cfa: sp 1504 + .ra: .cfa -1496 + ^ x29: .cfa -1504 + ^
STACK CFI 343a0 .cfa: x29 1504 +
STACK CFI 343a4 x25: .cfa -1440 + ^ x26: .cfa -1432 + ^
STACK CFI 343b8 x19: .cfa -1488 + ^ x20: .cfa -1480 + ^ x21: .cfa -1472 + ^ x22: .cfa -1464 + ^ x23: .cfa -1456 + ^ x24: .cfa -1448 + ^
STACK CFI 3472c x19: x19 x20: x20
STACK CFI 34730 x21: x21 x22: x22
STACK CFI 34734 x23: x23 x24: x24
STACK CFI 34738 x25: x25 x26: x26
STACK CFI 3473c .cfa: sp 1424 + .ra: .ra x29: x29
STACK CFI 34740 .cfa: sp 1344 +
STACK CFI INIT 282a4 28 .cfa: sp 0 + .ra: x30
STACK CFI INIT 282cc 20 .cfa: sp 0 + .ra: x30
STACK CFI 282d0 .cfa: sp 32 + .ra: .cfa -24 + ^ x29: .cfa -32 + ^
STACK CFI 282d8 .cfa: x29 32 +
STACK CFI 282e8 .cfa: sp 0 + .ra: .ra x29: x29
STACK CFI INIT 282ec 20 .cfa: sp 0 + .ra: x30
STACK CFI 282f0 .cfa: sp 32 + .ra: .cfa -24 + ^ x29: .cfa -32 + ^
STACK CFI 282f8 .cfa: x29 32 +
STACK CFI 28308 .cfa: sp 0 + .ra: .ra x29: x29
STACK CFI INIT 2830c 110 .cfa: sp 0 + .ra: x30
STACK CFI 28310 .cfa: sp 32 + .ra: .cfa -24 + ^ x29: .cfa -32 + ^
STACK CFI 2831c .cfa: x29 32 +
STACK CFI 28398 .cfa: sp 0 + .ra: .ra x29: x29
STACK CFI 2839c .cfa: x29 32 + .ra: .cfa -24 + ^ x29: .cfa -32 + ^
STACK CFI INIT 2841c 124 .cfa: sp 0 + .ra: x30
STACK CFI 28420 .cfa: sp 80 + .ra: .cfa -72 + ^ x29: .cfa -80 + ^
STACK CFI 28424 .cfa: x29 80 +
STACK CFI 28430 x19: .cfa -64 + ^ x20: .cfa -56 + ^ x21: .cfa -48 + ^ x22: .cfa -40 + ^ x23: .cfa -32 + ^ x24: .cfa -24 + ^
STACK CFI 28530 x19: x19 x20: x20
STACK CFI 28534 x21: x21 x22: x22
STACK CFI 28538 x23: x23 x24: x24
STACK CFI 2853c .cfa: sp 0 + .ra: .ra x29: x29
STACK CFI INIT 0 9c .cfa: sp 0 + .ra: x30
STACK CFI 4 .cfa: sp 80 + .ra: .cfa -72 + ^ x29: .cfa -80 + ^
STACK CFI 8 .cfa: x29 80 +
STACK CFI 10 x19: .cfa -64 + ^ x20: .cfa -56 + ^ x21: .cfa -48 + ^
STACK CFI 8c x21: x21
STACK CFI 94 x19: x19 x20: x20
STACK CFI 98 .cfa: sp 0 + .ra: .ra x29: x29
STACK CFI INIT 0 7c .cfa: sp 0 + .ra: x30
STACK CFI 4 .cfa: sp 32 + .ra: .cfa -24 + ^ x29: .cfa -32 + ^
STACK CFI 8 .cfa: x29 32 +
STACK CFI c x19: .cfa -16 + ^ x20: .cfa -8 + ^
STACK CFI 74 x19: x19 x20: x20
STACK CFI 78 .cfa: sp 0 + .ra: .ra x29: x29
STACK CFI INIT 28650 c4 .cfa: sp 0 + .ra: x30
STACK CFI 28654 .cfa: sp 48 + .ra: .cfa -40 + ^ x29: .cfa -48 + ^
STACK CFI 2865c .cfa: x29 48 +
STACK CFI 28664 x19: .cfa -32 + ^ x20: .cfa -24 + ^ x21: .cfa -16 + ^
STACK CFI 28708 x19: x19 x20: x20
STACK CFI 2870c x21: x21
STACK CFI 28710 .cfa: sp 0 + .ra: .ra x29: x29
STACK CFI INIT 0 d0 .cfa: sp 0 + .ra: x30
STACK CFI 4 .cfa: sp 48 + .ra: .cfa -40 + ^ x29: .cfa -48 + ^
STACK CFI 8 .cfa: x29 48 +
STACK CFI 10 x19: .cfa -32 + ^ x20: .cfa -24 + ^ x21: .cfa -16 + ^
STACK CFI c4 x21: x21
STACK CFI c8 x19: x19 x20: x20
STACK CFI cc .cfa: sp 0 + .ra: .ra x29: x29
STACK CFI INIT 287cc 10c .cfa: sp 0 + .ra: x30
STACK CFI 287d0 .cfa: sp 64 + .ra: .cfa -56 + ^ x29: .cfa -64 + ^
STACK CFI 287d8 .cfa: x29 64 +
STACK CFI 287e0 x19: .cfa -48 + ^ x20: .cfa -40 + ^ x23: .cfa -16 + ^
STACK CFI 287e8 x21: .cfa -32 + ^ x22: .cfa -24 + ^
STACK CFI 288c8 x19: x19 x20: x20
STACK CFI 288cc x21: x21 x22: x22
STACK CFI 288d0 x23: x23
STACK CFI 288d4 .cfa: sp 0 + .ra: .ra x29: x29
STACK CFI INIT 288d8 f0 .cfa: sp 0 + .ra: x30
STACK CFI 288dc .cfa: sp 64 + .ra: .cfa -56 + ^ x29: .cfa -64 + ^
STACK CFI 288e4 .cfa: x29 64 +
STACK CFI 288f0 x19: .cfa -48 + ^ x20: .cfa -40 + ^ x21: .cfa -32 + ^ x22: .cfa -24 + ^ x23: .cfa -16 + ^
STACK CFI 289b8 x23: x23
STACK CFI 289bc x19: x19 x20: x20
STACK CFI 289c0 x21: x21 x22: x22
STACK CFI 289c4 .cfa: sp 0 + .ra: .ra x29: x29
STACK CFI INIT 2157c 268 .cfa: sp 0 + .ra: x30
STACK CFI 21580 .cfa: sp 64 + .ra: .cfa -56 + ^ x29: .cfa -64 + ^
STACK CFI 21584 .cfa: x29 64 +
STACK CFI 2158c x19: .cfa -48 + ^ x20: .cfa -40 + ^ x21: .cfa -32 + ^
STACK CFI 217d0 x21: x21
STACK CFI 217d8 x19: x19 x20: x20
STACK CFI 217dc .cfa: sp 0 + .ra: .ra x29: x29
STACK CFI INIT 2351c 4 .cfa: sp 0 + .ra: x30
STACK CFI INIT 23520 4 .cfa: sp 0 + .ra: x30
STACK CFI INIT 23524 8 .cfa: sp 0 + .ra: x30
STACK CFI INIT 2354c 8 .cfa: sp 0 + .ra: x30
STACK CFI INIT 23554 4 .cfa: sp 0 + .ra: x30
STACK CFI INIT 23558 8 .cfa: sp 0 + .ra: x30
STACK CFI INIT 34744 4 .cfa: sp 0 + .ra: x30
STACK CFI INIT 34748 4 .cfa: sp 0 + .ra: x30
STACK CFI INIT 235c8 8 .cfa: sp 0 + .ra: x30
STACK CFI INIT 235d0 1c .cfa: sp 0 + .ra: x30
STACK CFI INIT 235ec 24 .cfa: sp 0 + .ra: x30
STACK CFI INIT 23610 6c .cfa: sp 0 + .ra: x30
STACK CFI INIT 2367c 4 .cfa: sp 0 + .ra: x30
STACK CFI INIT 23680 8 .cfa: sp 0 + .ra: x30
STACK CFI INIT 23688 40 .cfa: sp 0 + .ra: x30
STACK CFI 2368c .cfa: sp 32 + .ra: .cfa -24 + ^ x29: .cfa -32 + ^
STACK CFI 23690 .cfa: x29 32 +
STACK CFI 23694 x19: .cfa -16 + ^
STACK CFI 236c0 x19: x19
STACK CFI 236c4 .cfa: sp 0 + .ra: .ra x29: x29
STACK CFI INIT 236c8 8 .cfa: sp 0 + .ra: x30
STACK CFI INIT 237ec a8 .cfa: sp 0 + .ra: x30
STACK CFI 237f0 .cfa: sp 64 + .ra: .cfa -56 + ^ x29: .cfa -64 + ^
STACK CFI 237f4 .cfa: x29 64 +
STACK CFI 23800 x19: .cfa -48 + ^ x20: .cfa -40 + ^ x21: .cfa -32 + ^ x22: .cfa -24 + ^ x23: .cfa -16 + ^
STACK CFI 23884 x23: x23
STACK CFI 23888 x19: x19 x20: x20
STACK CFI 2388c x21: x21 x22: x22
STACK CFI 23890 .cfa: sp 0 + .ra: .ra x29: x29
STACK CFI INIT 3474c 4 .cfa: sp 0 + .ra: x30
STACK CFI INIT 34750 4 .cfa: sp 0 + .ra: x30
STACK CFI INIT 23738 b4 .cfa: sp 0 + .ra: x30
STACK CFI 2373c .cfa: sp 64 + .ra: .cfa -56 + ^ x29: .cfa -64 + ^
STACK CFI 23740 .cfa: x29 64 +
STACK CFI 2374c x19: .cfa -48 + ^ x20: .cfa -40 + ^ x21: .cfa -32 + ^ x22: .cfa -24 + ^ x23: .cfa -16 + ^
STACK CFI 237dc x23: x23
STACK CFI 237e0 x19: x19 x20: x20
STACK CFI 237e4 x21: x21 x22: x22
STACK CFI 237e8 .cfa: sp 0 + .ra: .ra x29: x29
STACK CFI INIT 23894 14 .cfa: sp 0 + .ra: x30
STACK CFI INIT 238a8 24 .cfa: sp 0 + .ra: x30
STACK CFI 238ac .cfa: sp 32 + .ra: .cfa -24 + ^ x29: .cfa -32 + ^
STACK CFI 238b0 .cfa: x29 32 +
STACK CFI 238b4 x19: .cfa -16 + ^
STACK CFI 238c4 x19: x19
STACK CFI 238c8 .cfa: sp 0 + .ra: .ra x29: x29
STACK CFI INIT 238cc 14 .cfa: sp 0 + .ra: x30
STACK CFI INIT 238e0 24 .cfa: sp 0 + .ra: x30
STACK CFI 238e4 .cfa: sp 32 + .ra: .cfa -24 + ^ x29: .cfa -32 + ^
STACK CFI 238e8 .cfa: x29 32 +
STACK CFI 238ec x19: .cfa -16 + ^
STACK CFI 238fc x19: x19
STACK CFI 23900 .cfa: sp 0 + .ra: .ra x29: x29
STACK CFI INIT 34754 14 .cfa: sp 0 + .ra: x30
STACK CFI INIT 34768 24 .cfa: sp 0 + .ra: x30
STACK CFI 3476c .cfa: sp 32 + .ra: .cfa -24 + ^ x29: .cfa -32 + ^
STACK CFI 34770 .cfa: x29 32 +
STACK CFI 34774 x19: .cfa -16 + ^
STACK CFI 34784 x19: x19
STACK CFI 34788 .cfa: sp 0 + .ra: .ra x29: x29
STACK CFI INIT 3478c 14 .cfa: sp 0 + .ra: x30
STACK CFI INIT 347a0 24 .cfa: sp 0 + .ra: x30
STACK CFI 347a4 .cfa: sp 32 + .ra: .cfa -24 + ^ x29: .cfa -32 + ^
STACK CFI 347a8 .cfa: x29 32 +
STACK CFI 347ac x19: .cfa -16 + ^
STACK CFI 347bc x19: x19
STACK CFI 347c0 .cfa: sp 0 + .ra: .ra x29: x29
STACK CFI INIT 347c4 3c .cfa: sp 0 + .ra: x30
STACK CFI 347c8 .cfa: sp 32 + .ra: .cfa -24 + ^ x29: .cfa -32 + ^
STACK CFI 347d0 .cfa: x29 32 +
STACK CFI 347d4 x19: .cfa -16 + ^
STACK CFI 347f8 x19: x19
STACK CFI 347fc .cfa: sp 0 + .ra: .ra x29: x29
STACK CFI INIT 34800 3c .cfa: sp 0 + .ra: x30
STACK CFI 34804 .cfa: sp 32 + .ra: .cfa -24 + ^ x29: .cfa -32 + ^
STACK CFI 3480c .cfa: x29 32 +
STACK CFI 34810 x19: .cfa -16 + ^
STACK CFI 34834 x19: x19
STACK CFI 34838 .cfa: sp 0 + .ra: .ra x29: x29
STACK CFI INIT 24794 b0 .cfa: sp 0 + .ra: x30
STACK CFI 24798 .cfa: sp 64 + .ra: .cfa -56 + ^ x29: .cfa -64 + ^
STACK CFI 2479c .cfa: x29 64 +
STACK CFI 247a8 x19: .cfa -48 + ^ x20: .cfa -40 + ^ x21: .cfa -32 + ^ x22: .cfa -24 + ^ x23: .cfa -16 + ^
STACK CFI 24834 x23: x23
STACK CFI 24838 x19: x19 x20: x20
STACK CFI 2483c x21: x21 x22: x22
STACK CFI 24840 .cfa: sp 0 + .ra: .ra x29: x29
STACK CFI INIT 2eb40 18 .cfa: sp 0 + .ra: x30
STACK CFI INIT 24844 40 .cfa: sp 0 + .ra: x30
STACK CFI 24848 .cfa: sp 32 + .ra: .cfa -24 + ^ x29: .cfa -32 + ^
STACK CFI 24854 .cfa: x29 32 +
STACK CFI 24858 x19: .cfa -16 + ^
STACK CFI 2487c x19: x19
STACK CFI 24880 .cfa: sp 0 + .ra: .ra x29: x29
STACK CFI INIT 248a0 48 .cfa: sp 0 + .ra: x30
STACK CFI 248a4 .cfa: sp 32 + .ra: .cfa -24 + ^ x29: .cfa -32 + ^
STACK CFI 248a8 .cfa: x29 32 +
STACK CFI 248ac x19: .cfa -16 + ^
STACK CFI 248e0 x19: x19
STACK CFI 248e4 .cfa: sp 0 + .ra: .ra x29: x29
STACK CFI INIT 248e8 30 .cfa: sp 0 + .ra: x30
STACK CFI INIT 24940 34 .cfa: sp 0 + .ra: x30
STACK CFI 24948 .cfa: sp 32 + .ra: .cfa -24 + ^ x29: .cfa -32 + ^
STACK CFI 2494c .cfa: x29 32 +
STACK CFI 24954 x19: .cfa -16 + ^
STACK CFI 2496c x19: x19
STACK CFI 24970 .cfa: sp 0 + .ra: .ra x29: x29
STACK CFI INIT 24974 24 .cfa: sp 0 + .ra: x30
STACK CFI 24978 .cfa: sp 32 + .ra: .cfa -24 + ^ x29: .cfa -32 + ^
STACK CFI 2497c .cfa: x29 32 +
STACK CFI 24980 x19: .cfa -16 + ^
STACK CFI 24990 x19: x19
STACK CFI 24994 .cfa: sp 0 + .ra: .ra x29: x29
STACK CFI INIT 0 54 .cfa: sp 0 + .ra: x30
STACK CFI 4 .cfa: sp 32 + .ra: .cfa -24 + ^ x29: .cfa -32 + ^
STACK CFI 8 .cfa: x29 32 +
STACK CFI c x19: .cfa -16 + ^
STACK CFI 40 x19: x19
STACK CFI 44 .cfa: sp 0 + .ra: .ra x29: x29
STACK CFI 48 .cfa: x29 32 + .ra: .cfa -24 + ^ x19: .cfa -16 + ^ x29: .cfa -32 + ^
STACK CFI 4c x19: x19
STACK CFI 50 .cfa: sp 0 + .ra: .ra x29: x29
STACK CFI INIT 24a00 fc .cfa: sp 0 + .ra: x30
STACK CFI 24a04 .cfa: sp 96 + .ra: .cfa -88 + ^ x29: .cfa -96 + ^
STACK CFI 24a0c .cfa: x29 96 +
STACK CFI 24a18 x19: .cfa -80 + ^ x20: .cfa -72 + ^ x21: .cfa -64 + ^ x22: .cfa -56 + ^ x23: .cfa -48 + ^ x24: .cfa -40 + ^
STACK CFI 24aec x21: x21 x22: x22
STACK CFI 24af0 x19: x19 x20: x20
STACK CFI 24af4 x23: x23 x24: x24
STACK CFI 24af8 .cfa: sp 0 + .ra: .ra x29: x29
STACK CFI INIT 24afc b4 .cfa: sp 0 + .ra: x30
STACK CFI 24b00 .cfa: sp 48 + .ra: .cfa -40 + ^ x29: .cfa -48 + ^
STACK CFI 24b04 .cfa: x29 48 +
STACK CFI 24b08 x19: .cfa -32 + ^ x20: .cfa -24 + ^
STACK CFI 24b18 x21: .cfa -16 + ^
STACK CFI 24ba4 x21: x21
STACK CFI 24ba8 x19: x19 x20: x20
STACK CFI 24bac .cfa: sp 0 + .ra: .ra x29: x29
STACK CFI INIT 24bb0 b0 .cfa: sp 0 + .ra: x30
STACK CFI 24bb4 .cfa: sp 48 + .ra: .cfa -40 + ^ x29: .cfa -48 + ^
STACK CFI 24bb8 .cfa: x29 48 +
STACK CFI 24bc0 x19: .cfa -32 + ^ x20: .cfa -24 + ^ x21: .cfa -16 + ^
STACK CFI 24c40 x21: x21
STACK CFI 24c58 x19: x19 x20: x20
STACK CFI 24c5c .cfa: sp 0 + .ra: .ra x29: x29
STACK CFI INIT 0 54 .cfa: sp 0 + .ra: x30
STACK CFI 4 .cfa: sp 48 + .ra: .cfa -40 + ^ x29: .cfa -48 + ^
STACK CFI 8 .cfa: x29 48 +
STACK CFI c x19: .cfa -32 + ^
STACK CFI 4c x19: x19
STACK CFI 50 .cfa: sp 0 + .ra: .ra x29: x29
STACK CFI INIT 250a4 58 .cfa: sp 0 + .ra: x30
STACK CFI 250a8 .cfa: sp 48 + .ra: .cfa -40 + ^ x29: .cfa -48 + ^
STACK CFI 250ac .cfa: x29 48 +
STACK CFI 250b0 x19: .cfa -32 + ^ x20: .cfa -24 + ^
STACK CFI 250b8 x21: .cfa -16 + ^
STACK CFI 250f0 x19: x19 x20: x20
STACK CFI 250f4 x21: x21
STACK CFI 250f8 .cfa: sp 0 + .ra: .ra x29: x29
STACK CFI INIT 0 f4 .cfa: sp 0 + .ra: x30
STACK CFI 4 .cfa: sp 48 + .ra: .cfa -40 + ^ x29: .cfa -48 + ^
STACK CFI 8 .cfa: x29 48 +
STACK CFI c x21: .cfa -16 + ^ x22: .cfa -8 + ^
STACK CFI 18 x19: .cfa -32 + ^ x20: .cfa -24 + ^
STACK CFI e8 x19: x19 x20: x20
STACK CFI ec x21: x21 x22: x22
STACK CFI f0 .cfa: sp 0 + .ra: .ra x29: x29
STACK CFI INIT 0 c8 .cfa: sp 0 + .ra: x30
STACK CFI 4 .cfa: sp 48 + .ra: .cfa -40 + ^ x29: .cfa -48 + ^
STACK CFI 8 .cfa: x29 48 +
STACK CFI 10 x19: .cfa -32 + ^ x20: .cfa -24 + ^ x21: .cfa -16 + ^
STACK CFI b4 x21: x21
STACK CFI c0 x19: x19 x20: x20
STACK CFI c4 .cfa: sp 0 + .ra: .ra x29: x29
STACK CFI INIT 251f0 8c .cfa: sp 0 + .ra: x30
STACK CFI 251f4 .cfa: sp 48 + .ra: .cfa -40 + ^ x29: .cfa -48 + ^
STACK CFI 251f8 .cfa: x29 48 +
STACK CFI 251fc x19: .cfa -32 + ^
STACK CFI 25268 x19: x19
STACK CFI 2526c .cfa: sp 0 + .ra: .ra x29: x29
STACK CFI 25270 .cfa: x29 48 + .ra: .cfa -40 + ^ x19: .cfa -32 + ^ x29: .cfa -48 + ^
STACK CFI 25274 x19: x19
STACK CFI 25278 .cfa: sp 0 + .ra: .ra x29: x29
STACK CFI INIT 2527c c .cfa: sp 0 + .ra: x30
STACK CFI INIT 25288 10 .cfa: sp 0 + .ra: x30
STACK CFI INIT 25298 24 .cfa: sp 0 + .ra: x30
STACK CFI 2529c .cfa: sp 32 + .ra: .cfa -24 + ^ x29: .cfa -32 + ^
STACK CFI 252a0 .cfa: x29 32 +
STACK CFI 252a4 x19: .cfa -16 + ^
STACK CFI 252b4 x19: x19
STACK CFI 252b8 .cfa: sp 0 + .ra: .ra x29: x29
STACK CFI INIT 252bc 10 .cfa: sp 0 + .ra: x30
STACK CFI INIT 252cc c .cfa: sp 0 + .ra: x30
STACK CFI INIT 252d8 8c .cfa: sp 0 + .ra: x30
STACK CFI 252dc .cfa: sp 48 + .ra: .cfa -40 + ^ x29: .cfa -48 + ^
STACK CFI 252e0 .cfa: x29 48 +
STACK CFI 252e4 x19: .cfa -32 + ^
STACK CFI 25350 x19: x19
STACK CFI 25354 .cfa: sp 0 + .ra: .ra x29: x29
STACK CFI 25358 .cfa: x29 48 + .ra: .cfa -40 + ^ x19: .cfa -32 + ^ x29: .cfa -48 + ^
STACK CFI 2535c x19: x19
STACK CFI 25360 .cfa: sp 0 + .ra: .ra x29: x29
STACK CFI INIT 25364 c .cfa: sp 0 + .ra: x30
STACK CFI INIT 25370 10 .cfa: sp 0 + .ra: x30
STACK CFI INIT 25380 24 .cfa: sp 0 + .ra: x30
STACK CFI 25384 .cfa: sp 32 + .ra: .cfa -24 + ^ x29: .cfa -32 + ^
STACK CFI 25388 .cfa: x29 32 +
STACK CFI 2538c x19: .cfa -16 + ^
STACK CFI 2539c x19: x19
STACK CFI 253a0 .cfa: sp 0 + .ra: .ra x29: x29
STACK CFI INIT 253a4 10 .cfa: sp 0 + .ra: x30
STACK CFI INIT 253b4 c .cfa: sp 0 + .ra: x30
STACK CFI INIT 253c0 e0 .cfa: sp 0 + .ra: x30
STACK CFI 253c4 .cfa: sp 48 + .ra: .cfa -40 + ^ x29: .cfa -48 + ^
STACK CFI 253c8 .cfa: x29 48 +
STACK CFI 253cc x19: .cfa -32 + ^ x20: .cfa -24 + ^
STACK CFI 2548c x19: x19 x20: x20
STACK CFI 25490 .cfa: sp 0 + .ra: .ra x29: x29
STACK CFI 25494 .cfa: x29 48 + .ra: .cfa -40 + ^ x19: .cfa -32 + ^ x20: .cfa -24 + ^ x29: .cfa -48 + ^
STACK CFI 25498 x19: x19 x20: x20
STACK CFI 2549c .cfa: sp 0 + .ra: .ra x29: x29
STACK CFI INIT 254a0 c .cfa: sp 0 + .ra: x30
STACK CFI INIT 254ac cc .cfa: sp 0 + .ra: x30
STACK CFI 254b0 .cfa: sp 48 + .ra: .cfa -40 + ^ x29: .cfa -48 + ^
STACK CFI 254b4 .cfa: x29 48 +
STACK CFI 254b8 x19: .cfa -32 + ^ x20: .cfa -24 + ^
STACK CFI 25564 x19: x19 x20: x20
STACK CFI 25568 .cfa: sp 0 + .ra: .ra x29: x29
STACK CFI 2556c .cfa: x29 48 + .ra: .cfa -40 + ^ x19: .cfa -32 + ^ x20: .cfa -24 + ^ x29: .cfa -48 + ^
STACK CFI 25570 x19: x19 x20: x20
STACK CFI 25574 .cfa: sp 0 + .ra: .ra x29: x29
STACK CFI INIT 25578 c .cfa: sp 0 + .ra: x30
STACK CFI INIT 25584 c .cfa: sp 0 + .ra: x30
STACK CFI INIT 25590 8 .cfa: sp 0 + .ra: x30
STACK CFI INIT 25598 10 .cfa: sp 0 + .ra: x30
STACK CFI INIT 255a8 24 .cfa: sp 0 + .ra: x30
STACK CFI 255ac .cfa: sp 32 + .ra: .cfa -24 + ^ x29: .cfa -32 + ^
STACK CFI 255b0 .cfa: x29 32 +
STACK CFI 255b4 x19: .cfa -16 + ^
STACK CFI 255c4 x19: x19
STACK CFI 255c8 .cfa: sp 0 + .ra: .ra x29: x29
STACK CFI INIT 255cc 8 .cfa: sp 0 + .ra: x30
STACK CFI INIT 255d4 10 .cfa: sp 0 + .ra: x30
STACK CFI INIT 255e4 c .cfa: sp 0 + .ra: x30
STACK CFI INIT 255f0 8 .cfa: sp 0 + .ra: x30
STACK CFI INIT 255f8 10 .cfa: sp 0 + .ra: x30
STACK CFI INIT 25608 24 .cfa: sp 0 + .ra: x30
STACK CFI 2560c .cfa: sp 32 + .ra: .cfa -24 + ^ x29: .cfa -32 + ^
STACK CFI 25610 .cfa: x29 32 +
STACK CFI 25614 x19: .cfa -16 + ^
STACK CFI 25624 x19: x19
STACK CFI 25628 .cfa: sp 0 + .ra: .ra x29: x29
STACK CFI INIT 2562c 8 .cfa: sp 0 + .ra: x30
STACK CFI INIT 25634 10 .cfa: sp 0 + .ra: x30
STACK CFI INIT 0 74 .cfa: sp 0 + .ra: x30
STACK CFI 4 .cfa: sp 32 + .ra: .cfa -24 + ^ x29: .cfa -32 + ^
STACK CFI 8 .cfa: x29 32 +
STACK CFI c x19: .cfa -16 + ^
STACK CFI 6c x19: x19
STACK CFI 70 .cfa: sp 0 + .ra: .ra x29: x29
STACK CFI INIT 0 84 .cfa: sp 0 + .ra: x30
STACK CFI 4 .cfa: sp 32 + .ra: .cfa -24 + ^ x29: .cfa -32 + ^
STACK CFI 8 .cfa: x29 32 +
STACK CFI c x19: .cfa -16 + ^
STACK CFI 7c x19: x19
STACK CFI 80 .cfa: sp 0 + .ra: .ra x29: x29
STACK CFI INIT 25718 50 .cfa: sp 0 + .ra: x30
STACK CFI 2571c .cfa: sp 32 + .ra: .cfa -24 + ^ x29: .cfa -32 + ^
STACK CFI 25720 .cfa: x29 32 +
STACK CFI 25724 x19: .cfa -16 + ^
STACK CFI 25754 x19: x19
STACK CFI 25758 .cfa: sp 0 + .ra: .ra x29: x29
STACK CFI 2575c .cfa: x29 32 + .ra: .cfa -24 + ^ x19: .cfa -16 + ^ x29: .cfa -32 + ^
STACK CFI 25760 x19: x19
STACK CFI 25764 .cfa: sp 0 + .ra: .ra x29: x29
STACK CFI INIT 0 dc .cfa: sp 0 + .ra: x30
STACK CFI 4 .cfa: sp 80 + .ra: .cfa -72 + ^ x29: .cfa -80 + ^
STACK CFI 8 .cfa: x29 80 +
STACK CFI 10 x19: .cfa -64 + ^ x20: .cfa -56 + ^ x21: .cfa -48 + ^
STACK CFI cc x21: x21
STACK CFI d4 x19: x19 x20: x20
STACK CFI d8 .cfa: sp 0 + .ra: .ra x29: x29
STACK CFI INIT 25b54 5c .cfa: sp 0 + .ra: x30
STACK CFI 25b58 .cfa: sp 16 + .ra: .cfa -8 + ^ x29: .cfa -16 + ^
STACK CFI 25b5c .cfa: x29 16 +
STACK CFI 25bac .cfa: sp 0 + .ra: .ra x29: x29
STACK CFI INIT 0 dc .cfa: sp 0 + .ra: x30
STACK CFI 4 .cfa: sp 80 + .ra: .cfa -72 + ^ x29: .cfa -80 + ^
STACK CFI 8 .cfa: x29 80 +
STACK CFI 10 x19: .cfa -64 + ^ x20: .cfa -56 + ^ x21: .cfa -48 + ^
STACK CFI cc x21: x21
STACK CFI d4 x19: x19 x20: x20
STACK CFI d8 .cfa: sp 0 + .ra: .ra x29: x29
STACK CFI INIT 3483c e8 .cfa: sp 0 + .ra: x30
STACK CFI 34840 .cfa: sp 480 + .ra: .cfa -472 + ^ x29: .cfa -480 + ^
STACK CFI 34844 .cfa: x29 480 +
STACK CFI 34848 x19: .cfa -464 + ^ x20: .cfa -456 + ^
STACK CFI 34854 x23: .cfa -432 + ^ x24: .cfa -424 + ^ x25: .cfa -416 + ^
STACK CFI 34870 x21: .cfa -448 + ^ x22: .cfa -440 + ^
STACK CFI 3490c x25: x25
STACK CFI 34914 x19: x19 x20: x20
STACK CFI 34918 x21: x21 x22: x22
STACK CFI 3491c x23: x23 x24: x24
STACK CFI 34920 .cfa: sp 0 + .ra: .ra x29: x29
STACK CFI INIT 0 114 .cfa: sp 0 + .ra: x30
STACK CFI 4 .cfa: sp 80 + .ra: .cfa -72 + ^ x29: .cfa -80 + ^
STACK CFI c .cfa: x29 80 +
STACK CFI 18 x19: .cfa -64 + ^ x20: .cfa -56 + ^ x21: .cfa -48 + ^ x22: .cfa -40 + ^ x23: .cfa -32 + ^
STACK CFI 104 x23: x23
STACK CFI 108 x19: x19 x20: x20
STACK CFI 10c x21: x21 x22: x22
STACK CFI 110 .cfa: sp 0 + .ra: .ra x29: x29
STACK CFI INIT 26984 124 .cfa: sp 0 + .ra: x30
STACK CFI 26988 .cfa: sp 80 + .ra: .cfa -72 + ^ x29: .cfa -80 + ^
STACK CFI 26990 .cfa: x29 80 +
STACK CFI 2699c x19: .cfa -64 + ^ x20: .cfa -56 + ^ x21: .cfa -48 + ^ x22: .cfa -40 + ^ x23: .cfa -32 + ^
STACK CFI 26a98 x19: x19 x20: x20
STACK CFI 26a9c x21: x21 x22: x22
STACK CFI 26aa0 x23: x23
STACK CFI 26aa4 .cfa: sp 0 + .ra: .ra x29: x29
STACK CFI INIT 26aa8 88 .cfa: sp 0 + .ra: x30
STACK CFI 26aac .cfa: sp 336 + .ra: .cfa -328 + ^ x29: .cfa -336 + ^
STACK CFI 26ab4 .cfa: x29 336 +
STACK CFI 26ab8 x19: .cfa -320 + ^ x20: .cfa -312 + ^
STACK CFI 26ac0 x21: .cfa -304 + ^
STACK CFI 26b20 x21: x21
STACK CFI 26b28 x19: x19 x20: x20
STACK CFI 26b2c .cfa: sp 0 + .ra: .ra x29: x29
STACK CFI INIT 26c88 9c .cfa: sp 0 + .ra: x30
STACK CFI 26c8c .cfa: sp 160 + .ra: .cfa -152 + ^ x29: .cfa -160 + ^
STACK CFI 26c90 .cfa: x29 160 +
STACK CFI 26c98 x19: .cfa -144 + ^ x20: .cfa -136 + ^ x21: .cfa -128 + ^ x22: .cfa -120 + ^
STACK CFI 26d18 x19: x19 x20: x20
STACK CFI 26d1c x21: x21 x22: x22
STACK CFI 26d20 .cfa: sp 0 + .ra: .ra x29: x29
STACK CFI INIT 34924 34 .cfa: sp 0 + .ra: x30
STACK CFI 3492c .cfa: sp 32 + .ra: .cfa -24 + ^ x29: .cfa -32 + ^
STACK CFI 34930 .cfa: x29 32 +
STACK CFI 34938 x19: .cfa -16 + ^
STACK CFI 34950 x19: x19
STACK CFI 34954 .cfa: sp 0 + .ra: .ra x29: x29
STACK CFI INIT 34958 4a8 .cfa: sp 0 + .ra: x30
STACK CFI 3495c .cfa: sp 1104 +
STACK CFI 34960 .cfa: sp 1200 + .ra: .cfa -1192 + ^ x29: .cfa -1200 + ^
STACK CFI 34964 .cfa: x29 1200 +
STACK CFI 34978 x19: .cfa -1184 + ^ x20: .cfa -1176 + ^ x21: .cfa -1168 + ^ x22: .cfa -1160 + ^ x23: .cfa -1152 + ^ x24: .cfa -1144 + ^ x25: .cfa -1136 + ^ x26: .cfa -1128 + ^ x27: .cfa -1120 + ^ x28: .cfa -1112 + ^
STACK CFI 34de4 x19: x19 x20: x20
STACK CFI 34de8 x21: x21 x22: x22
STACK CFI 34dec x23: x23 x24: x24
STACK CFI 34df0 x25: x25 x26: x26
STACK CFI 34df4 x27: x27 x28: x28
STACK CFI 34df8 .cfa: sp 1104 + .ra: .ra x29: x29
STACK CFI 34dfc .cfa: sp 1008 +
STACK CFI INIT 34e00 880 .cfa: sp 0 + .ra: x30
STACK CFI 34e04 .cfa: sp 1456 +
STACK CFI 34e08 .cfa: sp 1584 + .ra: .cfa -1576 + ^ x29: .cfa -1584 + ^
STACK CFI 34e0c .cfa: x29 1584 +
STACK CFI 34e14 v8: .cfa -1488 + ^ v9: .cfa -1480 + ^ x23: .cfa -1536 + ^ x24: .cfa -1528 + ^
STACK CFI 34e30 v10: .cfa -1472 + ^ x19: .cfa -1568 + ^ x20: .cfa -1560 + ^ x21: .cfa -1552 + ^ x22: .cfa -1544 + ^ x25: .cfa -1520 + ^ x26: .cfa -1512 + ^ x27: .cfa -1504 + ^ x28: .cfa -1496 + ^
STACK CFI 3565c v8: v8 v9: v9
STACK CFI 35660 x19: x19 x20: x20
STACK CFI 35664 x21: x21 x22: x22
STACK CFI 35668 x23: x23 x24: x24
STACK CFI 3566c x25: x25 x26: x26
STACK CFI 35670 x27: x27 x28: x28
STACK CFI 35674 v10: v10
STACK CFI 35678 .cfa: sp 1456 + .ra: .ra x29: x29
STACK CFI 3567c .cfa: sp 1328 +
STACK CFI INIT 35680 24 .cfa: sp 0 + .ra: x30
STACK CFI 35684 .cfa: sp 32 + .ra: .cfa -24 + ^ x29: .cfa -32 + ^
STACK CFI 35688 .cfa: x29 32 +
STACK CFI 3568c x19: .cfa -16 + ^
STACK CFI 3569c x19: x19
STACK CFI 356a0 .cfa: sp 0 + .ra: .ra x29: x29
STACK CFI INIT 282a4 28 .cfa: sp 0 + .ra: x30
STACK CFI INIT 282cc 20 .cfa: sp 0 + .ra: x30
STACK CFI 282d0 .cfa: sp 32 + .ra: .cfa -24 + ^ x29: .cfa -32 + ^
STACK CFI 282d8 .cfa: x29 32 +
STACK CFI 282e8 .cfa: sp 0 + .ra: .ra x29: x29
STACK CFI INIT 282ec 20 .cfa: sp 0 + .ra: x30
STACK CFI 282f0 .cfa: sp 32 + .ra: .cfa -24 + ^ x29: .cfa -32 + ^
STACK CFI 282f8 .cfa: x29 32 +
STACK CFI 28308 .cfa: sp 0 + .ra: .ra x29: x29
STACK CFI INIT 2830c 110 .cfa: sp 0 + .ra: x30
STACK CFI 28310 .cfa: sp 32 + .ra: .cfa -24 + ^ x29: .cfa -32 + ^
STACK CFI 2831c .cfa: x29 32 +
STACK CFI 28398 .cfa: sp 0 + .ra: .ra x29: x29
STACK CFI 2839c .cfa: x29 32 + .ra: .cfa -24 + ^ x29: .cfa -32 + ^
STACK CFI INIT 2841c 124 .cfa: sp 0 + .ra: x30
STACK CFI 28420 .cfa: sp 80 + .ra: .cfa -72 + ^ x29: .cfa -80 + ^
STACK CFI 28424 .cfa: x29 80 +
STACK CFI 28430 x19: .cfa -64 + ^ x20: .cfa -56 + ^ x21: .cfa -48 + ^ x22: .cfa -40 + ^ x23: .cfa -32 + ^ x24: .cfa -24 + ^
STACK CFI 28530 x19: x19 x20: x20
STACK CFI 28534 x21: x21 x22: x22
STACK CFI 28538 x23: x23 x24: x24
STACK CFI 2853c .cfa: sp 0 + .ra: .ra x29: x29
STACK CFI INIT 0 9c .cfa: sp 0 + .ra: x30
STACK CFI 4 .cfa: sp 80 + .ra: .cfa -72 + ^ x29: .cfa -80 + ^
STACK CFI 8 .cfa: x29 80 +
STACK CFI 10 x19: .cfa -64 + ^ x20: .cfa -56 + ^ x21: .cfa -48 + ^
STACK CFI 8c x21: x21
STACK CFI 94 x19: x19 x20: x20
STACK CFI 98 .cfa: sp 0 + .ra: .ra x29: x29
STACK CFI INIT 0 7c .cfa: sp 0 + .ra: x30
STACK CFI 4 .cfa: sp 32 + .ra: .cfa -24 + ^ x29: .cfa -32 + ^
STACK CFI 8 .cfa: x29 32 +
STACK CFI c x19: .cfa -16 + ^ x20: .cfa -8 + ^
STACK CFI 74 x19: x19 x20: x20
STACK CFI 78 .cfa: sp 0 + .ra: .ra x29: x29
STACK CFI INIT 28650 c4 .cfa: sp 0 + .ra: x30
STACK CFI 28654 .cfa: sp 48 + .ra: .cfa -40 + ^ x29: .cfa -48 + ^
STACK CFI 2865c .cfa: x29 48 +
STACK CFI 28664 x19: .cfa -32 + ^ x20: .cfa -24 + ^ x21: .cfa -16 + ^
STACK CFI 28708 x19: x19 x20: x20
STACK CFI 2870c x21: x21
STACK CFI 28710 .cfa: sp 0 + .ra: .ra x29: x29
STACK CFI INIT 0 d0 .cfa: sp 0 + .ra: x30
STACK CFI 4 .cfa: sp 48 + .ra: .cfa -40 + ^ x29: .cfa -48 + ^
STACK CFI 8 .cfa: x29 48 +
STACK CFI 10 x19: .cfa -32 + ^ x20: .cfa -24 + ^ x21: .cfa -16 + ^
STACK CFI c4 x21: x21
STACK CFI c8 x19: x19 x20: x20
STACK CFI cc .cfa: sp 0 + .ra: .ra x29: x29
STACK CFI INIT 287cc 10c .cfa: sp 0 + .ra: x30
STACK CFI 287d0 .cfa: sp 64 + .ra: .cfa -56 + ^ x29: .cfa -64 + ^
STACK CFI 287d8 .cfa: x29 64 +
STACK CFI 287e0 x19: .cfa -48 + ^ x20: .cfa -40 + ^ x23: .cfa -16 + ^
STACK CFI 287e8 x21: .cfa -32 + ^ x22: .cfa -24 + ^
STACK CFI 288c8 x19: x19 x20: x20
STACK CFI 288cc x21: x21 x22: x22
STACK CFI 288d0 x23: x23
STACK CFI 288d4 .cfa: sp 0 + .ra: .ra x29: x29
STACK CFI INIT 288d8 f0 .cfa: sp 0 + .ra: x30
STACK CFI 288dc .cfa: sp 64 + .ra: .cfa -56 + ^ x29: .cfa -64 + ^
STACK CFI 288e4 .cfa: x29 64 +
STACK CFI 288f0 x19: .cfa -48 + ^ x20: .cfa -40 + ^ x21: .cfa -32 + ^ x22: .cfa -24 + ^ x23: .cfa -16 + ^
STACK CFI 289b8 x23: x23
STACK CFI 289bc x19: x19 x20: x20
STACK CFI 289c0 x21: x21 x22: x22
STACK CFI 289c4 .cfa: sp 0 + .ra: .ra x29: x29
STACK CFI INIT 217e4 d8 .cfa: sp 0 + .ra: x30
STACK CFI 217e8 .cfa: sp 64 + .ra: .cfa -56 + ^ x29: .cfa -64 + ^
STACK CFI 217ec .cfa: x29 64 +
STACK CFI 217f4 x19: .cfa -48 + ^ x20: .cfa -40 + ^ x21: .cfa -32 + ^
STACK CFI 218a8 x21: x21
STACK CFI 218b0 x19: x19 x20: x20
STACK CFI 218b4 .cfa: sp 0 + .ra: .ra x29: x29
STACK CFI INIT 2351c 4 .cfa: sp 0 + .ra: x30
STACK CFI INIT 23520 4 .cfa: sp 0 + .ra: x30
STACK CFI INIT 23524 8 .cfa: sp 0 + .ra: x30
STACK CFI INIT 2354c 8 .cfa: sp 0 + .ra: x30
STACK CFI INIT 23554 4 .cfa: sp 0 + .ra: x30
STACK CFI INIT 23558 8 .cfa: sp 0 + .ra: x30
STACK CFI INIT 356a4 4 .cfa: sp 0 + .ra: x30
STACK CFI INIT 356a8 4 .cfa: sp 0 + .ra: x30
STACK CFI INIT 356ac 4 .cfa: sp 0 + .ra: x30
STACK CFI INIT 356b0 4 .cfa: sp 0 + .ra: x30
STACK CFI INIT 356b4 4 .cfa: sp 0 + .ra: x30
STACK CFI INIT 356b8 4 .cfa: sp 0 + .ra: x30
STACK CFI INIT 356bc 4 .cfa: sp 0 + .ra: x30
STACK CFI INIT 356c0 4 .cfa: sp 0 + .ra: x30
STACK CFI INIT 356c4 4 .cfa: sp 0 + .ra: x30
STACK CFI INIT 235c8 8 .cfa: sp 0 + .ra: x30
STACK CFI INIT 235d0 1c .cfa: sp 0 + .ra: x30
STACK CFI INIT 235ec 24 .cfa: sp 0 + .ra: x30
STACK CFI INIT 23610 6c .cfa: sp 0 + .ra: x30
STACK CFI INIT 2367c 4 .cfa: sp 0 + .ra: x30
STACK CFI INIT 23680 8 .cfa: sp 0 + .ra: x30
STACK CFI INIT 23688 40 .cfa: sp 0 + .ra: x30
STACK CFI 2368c .cfa: sp 32 + .ra: .cfa -24 + ^ x29: .cfa -32 + ^
STACK CFI 23690 .cfa: x29 32 +
STACK CFI 23694 x19: .cfa -16 + ^
STACK CFI 236c0 x19: x19
STACK CFI 236c4 .cfa: sp 0 + .ra: .ra x29: x29
STACK CFI INIT 236c8 8 .cfa: sp 0 + .ra: x30
STACK CFI INIT 356c8 4 .cfa: sp 0 + .ra: x30
STACK CFI INIT 356cc 4 .cfa: sp 0 + .ra: x30
STACK CFI INIT 356d0 4 .cfa: sp 0 + .ra: x30
STACK CFI INIT 356d4 4 .cfa: sp 0 + .ra: x30
STACK CFI INIT 356d8 4 .cfa: sp 0 + .ra: x30
STACK CFI INIT 356dc 4 .cfa: sp 0 + .ra: x30
STACK CFI INIT 356e0 4 .cfa: sp 0 + .ra: x30
STACK CFI INIT 356e4 4 .cfa: sp 0 + .ra: x30
STACK CFI INIT 356e8 4 .cfa: sp 0 + .ra: x30
STACK CFI INIT 237ec a8 .cfa: sp 0 + .ra: x30
STACK CFI 237f0 .cfa: sp 64 + .ra: .cfa -56 + ^ x29: .cfa -64 + ^
STACK CFI 237f4 .cfa: x29 64 +
STACK CFI 23800 x19: .cfa -48 + ^ x20: .cfa -40 + ^ x21: .cfa -32 + ^ x22: .cfa -24 + ^ x23: .cfa -16 + ^
STACK CFI 23884 x23: x23
STACK CFI 23888 x19: x19 x20: x20
STACK CFI 2388c x21: x21 x22: x22
STACK CFI 23890 .cfa: sp 0 + .ra: .ra x29: x29
STACK CFI INIT 23738 b4 .cfa: sp 0 + .ra: x30
STACK CFI 2373c .cfa: sp 64 + .ra: .cfa -56 + ^ x29: .cfa -64 + ^
STACK CFI 23740 .cfa: x29 64 +
STACK CFI 2374c x19: .cfa -48 + ^ x20: .cfa -40 + ^ x21: .cfa -32 + ^ x22: .cfa -24 + ^ x23: .cfa -16 + ^
STACK CFI 237dc x23: x23
STACK CFI 237e0 x19: x19 x20: x20
STACK CFI 237e4 x21: x21 x22: x22
STACK CFI 237e8 .cfa: sp 0 + .ra: .ra x29: x29
STACK CFI INIT 23894 14 .cfa: sp 0 + .ra: x30
STACK CFI INIT 238a8 24 .cfa: sp 0 + .ra: x30
STACK CFI 238ac .cfa: sp 32 + .ra: .cfa -24 + ^ x29: .cfa -32 + ^
STACK CFI 238b0 .cfa: x29 32 +
STACK CFI 238b4 x19: .cfa -16 + ^
STACK CFI 238c4 x19: x19
STACK CFI 238c8 .cfa: sp 0 + .ra: .ra x29: x29
STACK CFI INIT 238cc 14 .cfa: sp 0 + .ra: x30
STACK CFI INIT 238e0 24 .cfa: sp 0 + .ra: x30
STACK CFI 238e4 .cfa: sp 32 + .ra: .cfa -24 + ^ x29: .cfa -32 + ^
STACK CFI 238e8 .cfa: x29 32 +
STACK CFI 238ec x19: .cfa -16 + ^
STACK CFI 238fc x19: x19
STACK CFI 23900 .cfa: sp 0 + .ra: .ra x29: x29
STACK CFI INIT 356ec 24 .cfa: sp 0 + .ra: x30
STACK CFI 356f0 .cfa: sp 32 + .ra: .cfa -24 + ^ x29: .cfa -32 + ^
STACK CFI 356f4 .cfa: x29 32 +
STACK CFI 356f8 x19: .cfa -16 + ^
STACK CFI 35708 x19: x19
STACK CFI 3570c .cfa: sp 0 + .ra: .ra x29: x29
STACK CFI INIT 35710 14 .cfa: sp 0 + .ra: x30
STACK CFI INIT 35724 24 .cfa: sp 0 + .ra: x30
STACK CFI 35728 .cfa: sp 32 + .ra: .cfa -24 + ^ x29: .cfa -32 + ^
STACK CFI 3572c .cfa: x29 32 +
STACK CFI 35730 x19: .cfa -16 + ^
STACK CFI 35740 x19: x19
STACK CFI 35744 .cfa: sp 0 + .ra: .ra x29: x29
STACK CFI INIT 35748 14 .cfa: sp 0 + .ra: x30
STACK CFI INIT 3575c 24 .cfa: sp 0 + .ra: x30
STACK CFI 35760 .cfa: sp 32 + .ra: .cfa -24 + ^ x29: .cfa -32 + ^
STACK CFI 35764 .cfa: x29 32 +
STACK CFI 35768 x19: .cfa -16 + ^
STACK CFI 35778 x19: x19
STACK CFI 3577c .cfa: sp 0 + .ra: .ra x29: x29
STACK CFI INIT 35780 14 .cfa: sp 0 + .ra: x30
STACK CFI INIT 35794 24 .cfa: sp 0 + .ra: x30
STACK CFI 35798 .cfa: sp 32 + .ra: .cfa -24 + ^ x29: .cfa -32 + ^
STACK CFI 3579c .cfa: x29 32 +
STACK CFI 357a0 x19: .cfa -16 + ^
STACK CFI 357b0 x19: x19
STACK CFI 357b4 .cfa: sp 0 + .ra: .ra x29: x29
STACK CFI INIT 357b8 14 .cfa: sp 0 + .ra: x30
STACK CFI INIT 357cc 24 .cfa: sp 0 + .ra: x30
STACK CFI 357d0 .cfa: sp 32 + .ra: .cfa -24 + ^ x29: .cfa -32 + ^
STACK CFI 357d4 .cfa: x29 32 +
STACK CFI 357d8 x19: .cfa -16 + ^
STACK CFI 357e8 x19: x19
STACK CFI 357ec .cfa: sp 0 + .ra: .ra x29: x29
STACK CFI INIT 357f0 14 .cfa: sp 0 + .ra: x30
STACK CFI INIT 35804 24 .cfa: sp 0 + .ra: x30
STACK CFI 35808 .cfa: sp 32 + .ra: .cfa -24 + ^ x29: .cfa -32 + ^
STACK CFI 3580c .cfa: x29 32 +
STACK CFI 35810 x19: .cfa -16 + ^
STACK CFI 35820 x19: x19
STACK CFI 35824 .cfa: sp 0 + .ra: .ra x29: x29
STACK CFI INIT 35828 14 .cfa: sp 0 + .ra: x30
STACK CFI INIT 3583c 24 .cfa: sp 0 + .ra: x30
STACK CFI 35840 .cfa: sp 32 + .ra: .cfa -24 + ^ x29: .cfa -32 + ^
STACK CFI 35844 .cfa: x29 32 +
STACK CFI 35848 x19: .cfa -16 + ^
STACK CFI 35858 x19: x19
STACK CFI 3585c .cfa: sp 0 + .ra: .ra x29: x29
STACK CFI INIT 35860 14 .cfa: sp 0 + .ra: x30
STACK CFI INIT 35874 24 .cfa: sp 0 + .ra: x30
STACK CFI 35878 .cfa: sp 32 + .ra: .cfa -24 + ^ x29: .cfa -32 + ^
STACK CFI 3587c .cfa: x29 32 +
STACK CFI 35880 x19: .cfa -16 + ^
STACK CFI 35890 x19: x19
STACK CFI 35894 .cfa: sp 0 + .ra: .ra x29: x29
STACK CFI INIT 35898 14 .cfa: sp 0 + .ra: x30
STACK CFI INIT 358ac 24 .cfa: sp 0 + .ra: x30
STACK CFI 358b0 .cfa: sp 32 + .ra: .cfa -24 + ^ x29: .cfa -32 + ^
STACK CFI 358b4 .cfa: x29 32 +
STACK CFI 358b8 x19: .cfa -16 + ^
STACK CFI 358c8 x19: x19
STACK CFI 358cc .cfa: sp 0 + .ra: .ra x29: x29
STACK CFI INIT 358d0 3c .cfa: sp 0 + .ra: x30
STACK CFI 358d4 .cfa: sp 32 + .ra: .cfa -24 + ^ x29: .cfa -32 + ^
STACK CFI 358dc .cfa: x29 32 +
STACK CFI 358e0 x19: .cfa -16 + ^
STACK CFI 35904 x19: x19
STACK CFI 35908 .cfa: sp 0 + .ra: .ra x29: x29
STACK CFI INIT 3590c 3c .cfa: sp 0 + .ra: x30
STACK CFI 35910 .cfa: sp 32 + .ra: .cfa -24 + ^ x29: .cfa -32 + ^
STACK CFI 35918 .cfa: x29 32 +
STACK CFI 3591c x19: .cfa -16 + ^
STACK CFI 35940 x19: x19
STACK CFI 35944 .cfa: sp 0 + .ra: .ra x29: x29
STACK CFI INIT 35948 3c .cfa: sp 0 + .ra: x30
STACK CFI 3594c .cfa: sp 32 + .ra: .cfa -24 + ^ x29: .cfa -32 + ^
STACK CFI 35954 .cfa: x29 32 +
STACK CFI 35958 x19: .cfa -16 + ^
STACK CFI 3597c x19: x19
STACK CFI 35980 .cfa: sp 0 + .ra: .ra x29: x29
STACK CFI INIT 35984 3c .cfa: sp 0 + .ra: x30
STACK CFI 35988 .cfa: sp 32 + .ra: .cfa -24 + ^ x29: .cfa -32 + ^
STACK CFI 35990 .cfa: x29 32 +
STACK CFI 35994 x19: .cfa -16 + ^
STACK CFI 359b8 x19: x19
STACK CFI 359bc .cfa: sp 0 + .ra: .ra x29: x29
STACK CFI INIT 359c0 3c .cfa: sp 0 + .ra: x30
STACK CFI 359c4 .cfa: sp 32 + .ra: .cfa -24 + ^ x29: .cfa -32 + ^
STACK CFI 359cc .cfa: x29 32 +
STACK CFI 359d0 x19: .cfa -16 + ^
STACK CFI 359f4 x19: x19
STACK CFI 359f8 .cfa: sp 0 + .ra: .ra x29: x29
STACK CFI INIT 359fc 3c .cfa: sp 0 + .ra: x30
STACK CFI 35a00 .cfa: sp 32 + .ra: .cfa -24 + ^ x29: .cfa -32 + ^
STACK CFI 35a08 .cfa: x29 32 +
STACK CFI 35a0c x19: .cfa -16 + ^
STACK CFI 35a30 x19: x19
STACK CFI 35a34 .cfa: sp 0 + .ra: .ra x29: x29
STACK CFI INIT 35a38 3c .cfa: sp 0 + .ra: x30
STACK CFI 35a3c .cfa: sp 32 + .ra: .cfa -24 + ^ x29: .cfa -32 + ^
STACK CFI 35a44 .cfa: x29 32 +
STACK CFI 35a48 x19: .cfa -16 + ^
STACK CFI 35a6c x19: x19
STACK CFI 35a70 .cfa: sp 0 + .ra: .ra x29: x29
STACK CFI INIT 35a74 3c .cfa: sp 0 + .ra: x30
STACK CFI 35a78 .cfa: sp 32 + .ra: .cfa -24 + ^ x29: .cfa -32 + ^
STACK CFI 35a80 .cfa: x29 32 +
STACK CFI 35a84 x19: .cfa -16 + ^
STACK CFI 35aa8 x19: x19
STACK CFI 35aac .cfa: sp 0 + .ra: .ra x29: x29
STACK CFI INIT 24794 b0 .cfa: sp 0 + .ra: x30
STACK CFI 24798 .cfa: sp 64 + .ra: .cfa -56 + ^ x29: .cfa -64 + ^
STACK CFI 2479c .cfa: x29 64 +
STACK CFI 247a8 x19: .cfa -48 + ^ x20: .cfa -40 + ^ x21: .cfa -32 + ^ x22: .cfa -24 + ^ x23: .cfa -16 + ^
STACK CFI 24834 x23: x23
STACK CFI 24838 x19: x19 x20: x20
STACK CFI 2483c x21: x21 x22: x22
STACK CFI 24840 .cfa: sp 0 + .ra: .ra x29: x29
STACK CFI INIT 24844 40 .cfa: sp 0 + .ra: x30
STACK CFI 24848 .cfa: sp 32 + .ra: .cfa -24 + ^ x29: .cfa -32 + ^
STACK CFI 24854 .cfa: x29 32 +
STACK CFI 24858 x19: .cfa -16 + ^
STACK CFI 2487c x19: x19
STACK CFI 24880 .cfa: sp 0 + .ra: .ra x29: x29
STACK CFI INIT 24884 1c .cfa: sp 0 + .ra: x30
STACK CFI INIT 248a0 48 .cfa: sp 0 + .ra: x30
STACK CFI 248a4 .cfa: sp 32 + .ra: .cfa -24 + ^ x29: .cfa -32 + ^
STACK CFI 248a8 .cfa: x29 32 +
STACK CFI 248ac x19: .cfa -16 + ^
STACK CFI 248e0 x19: x19
STACK CFI 248e4 .cfa: sp 0 + .ra: .ra x29: x29
STACK CFI INIT 248e8 30 .cfa: sp 0 + .ra: x30
STACK CFI INIT 24940 34 .cfa: sp 0 + .ra: x30
STACK CFI 24948 .cfa: sp 32 + .ra: .cfa -24 + ^ x29: .cfa -32 + ^
STACK CFI 2494c .cfa: x29 32 +
STACK CFI 24954 x19: .cfa -16 + ^
STACK CFI 2496c x19: x19
STACK CFI 24970 .cfa: sp 0 + .ra: .ra x29: x29
STACK CFI INIT 24974 24 .cfa: sp 0 + .ra: x30
STACK CFI 24978 .cfa: sp 32 + .ra: .cfa -24 + ^ x29: .cfa -32 + ^
STACK CFI 2497c .cfa: x29 32 +
STACK CFI 24980 x19: .cfa -16 + ^
STACK CFI 24990 x19: x19
STACK CFI 24994 .cfa: sp 0 + .ra: .ra x29: x29
STACK CFI INIT 24998 60 .cfa: sp 0 + .ra: x30
STACK CFI 2499c .cfa: sp 48 + .ra: .cfa -40 + ^ x29: .cfa -48 + ^
STACK CFI 249a0 .cfa: x29 48 +
STACK CFI 249a8 x19: .cfa -32 + ^ x20: .cfa -24 + ^ x21: .cfa -16 + ^
STACK CFI 249ec x19: x19 x20: x20
STACK CFI 249f0 x21: x21
STACK CFI 249f4 .cfa: sp 0 + .ra: .ra x29: x29
STACK CFI INIT 249f8 8 .cfa: sp 0 + .ra: x30
STACK CFI INIT 35ab0 190 .cfa: sp 0 + .ra: x30
STACK CFI 35ab4 .cfa: sp 128 + .ra: .cfa -120 + ^ x29: .cfa -128 + ^
STACK CFI 35ab8 .cfa: x29 128 +
STACK CFI 35ac0 x19: .cfa -112 + ^ x20: .cfa -104 + ^ x21: .cfa -96 + ^ x22: .cfa -88 + ^
STACK CFI 35c34 x19: x19 x20: x20
STACK CFI 35c38 x21: x21 x22: x22
STACK CFI 35c3c .cfa: sp 0 + .ra: .ra x29: x29
STACK CFI INIT 35c40 68 .cfa: sp 0 + .ra: x30
STACK CFI 35c44 .cfa: sp 32 + .ra: .cfa -24 + ^ x29: .cfa -32 + ^
STACK CFI 35c48 .cfa: x29 32 +
STACK CFI 35c4c x19: .cfa -16 + ^
STACK CFI 35ca0 x19: x19
STACK CFI 35ca4 .cfa: sp 0 + .ra: .ra x29: x29
STACK CFI INIT 35ca8 24 .cfa: sp 0 + .ra: x30
STACK CFI 35cac .cfa: sp 32 + .ra: .cfa -24 + ^ x29: .cfa -32 + ^
STACK CFI 35cb0 .cfa: x29 32 +
STACK CFI 35cb4 x19: .cfa -16 + ^
STACK CFI 35cc4 x19: x19
STACK CFI 35cc8 .cfa: sp 0 + .ra: .ra x29: x29
STACK CFI INIT 24a00 fc .cfa: sp 0 + .ra: x30
STACK CFI 24a04 .cfa: sp 96 + .ra: .cfa -88 + ^ x29: .cfa -96 + ^
STACK CFI 24a0c .cfa: x29 96 +
STACK CFI 24a18 x19: .cfa -80 + ^ x20: .cfa -72 + ^ x21: .cfa -64 + ^ x22: .cfa -56 + ^ x23: .cfa -48 + ^ x24: .cfa -40 + ^
STACK CFI 24aec x21: x21 x22: x22
STACK CFI 24af0 x19: x19 x20: x20
STACK CFI 24af4 x23: x23 x24: x24
STACK CFI 24af8 .cfa: sp 0 + .ra: .ra x29: x29
STACK CFI INIT 24afc b4 .cfa: sp 0 + .ra: x30
STACK CFI 24b00 .cfa: sp 48 + .ra: .cfa -40 + ^ x29: .cfa -48 + ^
STACK CFI 24b04 .cfa: x29 48 +
STACK CFI 24b08 x19: .cfa -32 + ^ x20: .cfa -24 + ^
STACK CFI 24b18 x21: .cfa -16 + ^
STACK CFI 24ba4 x21: x21
STACK CFI 24ba8 x19: x19 x20: x20
STACK CFI 24bac .cfa: sp 0 + .ra: .ra x29: x29
STACK CFI INIT 24bb0 b0 .cfa: sp 0 + .ra: x30
STACK CFI 24bb4 .cfa: sp 48 + .ra: .cfa -40 + ^ x29: .cfa -48 + ^
STACK CFI 24bb8 .cfa: x29 48 +
STACK CFI 24bc0 x19: .cfa -32 + ^ x20: .cfa -24 + ^ x21: .cfa -16 + ^
STACK CFI 24c40 x21: x21
STACK CFI 24c58 x19: x19 x20: x20
STACK CFI 24c5c .cfa: sp 0 + .ra: .ra x29: x29
STACK CFI INIT 24c60 98 .cfa: sp 0 + .ra: x30
STACK CFI 24c64 .cfa: sp 64 + .ra: .cfa -56 + ^ x29: .cfa -64 + ^
STACK CFI 24c68 .cfa: x29 64 +
STACK CFI 24c70 x19: .cfa -48 + ^ x20: .cfa -40 + ^ x21: .cfa -32 + ^
STACK CFI 24cec x19: x19 x20: x20
STACK CFI 24cf0 x21: x21
STACK CFI 24cf4 .cfa: sp 0 + .ra: .ra x29: x29
STACK CFI INIT 24cf8 1c .cfa: sp 0 + .ra: x30
STACK CFI 24cfc .cfa: sp 16 + .ra: .cfa -8 + ^ x29: .cfa -16 + ^
STACK CFI 24d00 .cfa: x29 16 +
STACK CFI 24d10 .cfa: sp 0 + .ra: .ra x29: x29
STACK CFI INIT 24d14 3c .cfa: sp 0 + .ra: x30
STACK CFI 24d18 .cfa: sp 16 + .ra: .cfa -8 + ^ x29: .cfa -16 + ^
STACK CFI 24d1c .cfa: x29 16 +
STACK CFI 24d4c .cfa: sp 0 + .ra: .ra x29: x29
STACK CFI INIT 35ccc 144 .cfa: sp 0 + .ra: x30
STACK CFI 35cd0 .cfa: sp 48 + .ra: .cfa -40 + ^ x29: .cfa -48 + ^
STACK CFI 35cd4 .cfa: x29 48 +
STACK CFI 35cdc x19: .cfa -32 + ^ x20: .cfa -24 + ^ x21: .cfa -16 + ^ x22: .cfa -8 + ^
STACK CFI 35e04 x19: x19 x20: x20
STACK CFI 35e08 x21: x21 x22: x22
STACK CFI 35e0c .cfa: sp 0 + .ra: .ra x29: x29
STACK CFI INIT 24db0 68 .cfa: sp 0 + .ra: x30
STACK CFI 24db4 .cfa: sp 48 + .ra: .cfa -40 + ^ x29: .cfa -48 + ^
STACK CFI 24db8 .cfa: x29 48 +
STACK CFI 24dbc x19: .cfa -32 + ^
STACK CFI 24e10 x19: x19
STACK CFI 24e14 .cfa: sp 0 + .ra: .ra x29: x29
STACK CFI INIT 250a4 58 .cfa: sp 0 + .ra: x30
STACK CFI 250a8 .cfa: sp 48 + .ra: .cfa -40 + ^ x29: .cfa -48 + ^
STACK CFI 250ac .cfa: x29 48 +
STACK CFI 250b0 x19: .cfa -32 + ^ x20: .cfa -24 + ^
STACK CFI 250b8 x21: .cfa -16 + ^
STACK CFI 250f0 x19: x19 x20: x20
STACK CFI 250f4 x21: x21
STACK CFI 250f8 .cfa: sp 0 + .ra: .ra x29: x29
STACK CFI INIT 35e10 78 .cfa: sp 0 + .ra: x30
STACK CFI 35e14 .cfa: sp 32 + .ra: .cfa -24 + ^ x29: .cfa -32 + ^
STACK CFI 35e1c .cfa: x29 32 +
STACK CFI 35e20 x19: .cfa -16 + ^
STACK CFI 35e80 x19: x19
STACK CFI 35e84 .cfa: sp 0 + .ra: .ra x29: x29
STACK CFI INIT 0 f4 .cfa: sp 0 + .ra: x30
STACK CFI 4 .cfa: sp 48 + .ra: .cfa -40 + ^ x29: .cfa -48 + ^
STACK CFI 8 .cfa: x29 48 +
STACK CFI c x21: .cfa -16 + ^ x22: .cfa -8 + ^
STACK CFI 18 x19: .cfa -32 + ^ x20: .cfa -24 + ^
STACK CFI e8 x19: x19 x20: x20
STACK CFI ec x21: x21 x22: x22
STACK CFI f0 .cfa: sp 0 + .ra: .ra x29: x29
STACK CFI INIT 0 c8 .cfa: sp 0 + .ra: x30
STACK CFI 4 .cfa: sp 48 + .ra: .cfa -40 + ^ x29: .cfa -48 + ^
STACK CFI 8 .cfa: x29 48 +
STACK CFI 10 x19: .cfa -32 + ^ x20: .cfa -24 + ^ x21: .cfa -16 + ^
STACK CFI b4 x21: x21
STACK CFI c0 x19: x19 x20: x20
STACK CFI c4 .cfa: sp 0 + .ra: .ra x29: x29
STACK CFI INIT 251f0 8c .cfa: sp 0 + .ra: x30
STACK CFI 251f4 .cfa: sp 48 + .ra: .cfa -40 + ^ x29: .cfa -48 + ^
STACK CFI 251f8 .cfa: x29 48 +
STACK CFI 251fc x19: .cfa -32 + ^
STACK CFI 25268 x19: x19
STACK CFI 2526c .cfa: sp 0 + .ra: .ra x29: x29
STACK CFI 25270 .cfa: x29 48 + .ra: .cfa -40 + ^ x19: .cfa -32 + ^ x29: .cfa -48 + ^
STACK CFI 25274 x19: x19
STACK CFI 25278 .cfa: sp 0 + .ra: .ra x29: x29
STACK CFI INIT 2527c c .cfa: sp 0 + .ra: x30
STACK CFI INIT 25288 10 .cfa: sp 0 + .ra: x30
STACK CFI INIT 25298 24 .cfa: sp 0 + .ra: x30
STACK CFI 2529c .cfa: sp 32 + .ra: .cfa -24 + ^ x29: .cfa -32 + ^
STACK CFI 252a0 .cfa: x29 32 +
STACK CFI 252a4 x19: .cfa -16 + ^
STACK CFI 252b4 x19: x19
STACK CFI 252b8 .cfa: sp 0 + .ra: .ra x29: x29
STACK CFI INIT 252bc 10 .cfa: sp 0 + .ra: x30
STACK CFI INIT 252cc c .cfa: sp 0 + .ra: x30
STACK CFI INIT 252d8 8c .cfa: sp 0 + .ra: x30
STACK CFI 252dc .cfa: sp 48 + .ra: .cfa -40 + ^ x29: .cfa -48 + ^
STACK CFI 252e0 .cfa: x29 48 +
STACK CFI 252e4 x19: .cfa -32 + ^
STACK CFI 25350 x19: x19
STACK CFI 25354 .cfa: sp 0 + .ra: .ra x29: x29
STACK CFI 25358 .cfa: x29 48 + .ra: .cfa -40 + ^ x19: .cfa -32 + ^ x29: .cfa -48 + ^
STACK CFI 2535c x19: x19
STACK CFI 25360 .cfa: sp 0 + .ra: .ra x29: x29
STACK CFI INIT 25364 c .cfa: sp 0 + .ra: x30
STACK CFI INIT 25370 10 .cfa: sp 0 + .ra: x30
STACK CFI INIT 25380 24 .cfa: sp 0 + .ra: x30
STACK CFI 25384 .cfa: sp 32 + .ra: .cfa -24 + ^ x29: .cfa -32 + ^
STACK CFI 25388 .cfa: x29 32 +
STACK CFI 2538c x19: .cfa -16 + ^
STACK CFI 2539c x19: x19
STACK CFI 253a0 .cfa: sp 0 + .ra: .ra x29: x29
STACK CFI INIT 253a4 10 .cfa: sp 0 + .ra: x30
STACK CFI INIT 253b4 c .cfa: sp 0 + .ra: x30
STACK CFI INIT 253c0 e0 .cfa: sp 0 + .ra: x30
STACK CFI 253c4 .cfa: sp 48 + .ra: .cfa -40 + ^ x29: .cfa -48 + ^
STACK CFI 253c8 .cfa: x29 48 +
STACK CFI 253cc x19: .cfa -32 + ^ x20: .cfa -24 + ^
STACK CFI 2548c x19: x19 x20: x20
STACK CFI 25490 .cfa: sp 0 + .ra: .ra x29: x29
STACK CFI 25494 .cfa: x29 48 + .ra: .cfa -40 + ^ x19: .cfa -32 + ^ x20: .cfa -24 + ^ x29: .cfa -48 + ^
STACK CFI 25498 x19: x19 x20: x20
STACK CFI 2549c .cfa: sp 0 + .ra: .ra x29: x29
STACK CFI INIT 254a0 c .cfa: sp 0 + .ra: x30
STACK CFI INIT 254ac cc .cfa: sp 0 + .ra: x30
STACK CFI 254b0 .cfa: sp 48 + .ra: .cfa -40 + ^ x29: .cfa -48 + ^
STACK CFI 254b4 .cfa: x29 48 +
STACK CFI 254b8 x19: .cfa -32 + ^ x20: .cfa -24 + ^
STACK CFI 25564 x19: x19 x20: x20
STACK CFI 25568 .cfa: sp 0 + .ra: .ra x29: x29
STACK CFI 2556c .cfa: x29 48 + .ra: .cfa -40 + ^ x19: .cfa -32 + ^ x20: .cfa -24 + ^ x29: .cfa -48 + ^
STACK CFI 25570 x19: x19 x20: x20
STACK CFI 25574 .cfa: sp 0 + .ra: .ra x29: x29
STACK CFI INIT 25578 c .cfa: sp 0 + .ra: x30
STACK CFI INIT 25584 c .cfa: sp 0 + .ra: x30
STACK CFI INIT 25590 8 .cfa: sp 0 + .ra: x30
STACK CFI INIT 25598 10 .cfa: sp 0 + .ra: x30
STACK CFI INIT 255a8 24 .cfa: sp 0 + .ra: x30
STACK CFI 255ac .cfa: sp 32 + .ra: .cfa -24 + ^ x29: .cfa -32 + ^
STACK CFI 255b0 .cfa: x29 32 +
STACK CFI 255b4 x19: .cfa -16 + ^
STACK CFI 255c4 x19: x19
STACK CFI 255c8 .cfa: sp 0 + .ra: .ra x29: x29
STACK CFI INIT 255cc 8 .cfa: sp 0 + .ra: x30
STACK CFI INIT 255d4 10 .cfa: sp 0 + .ra: x30
STACK CFI INIT 255e4 c .cfa: sp 0 + .ra: x30
STACK CFI INIT 255f0 8 .cfa: sp 0 + .ra: x30
STACK CFI INIT 255f8 10 .cfa: sp 0 + .ra: x30
STACK CFI INIT 25608 24 .cfa: sp 0 + .ra: x30
STACK CFI 2560c .cfa: sp 32 + .ra: .cfa -24 + ^ x29: .cfa -32 + ^
STACK CFI 25610 .cfa: x29 32 +
STACK CFI 25614 x19: .cfa -16 + ^
STACK CFI 25624 x19: x19
STACK CFI 25628 .cfa: sp 0 + .ra: .ra x29: x29
STACK CFI INIT 2562c 8 .cfa: sp 0 + .ra: x30
STACK CFI INIT 25634 10 .cfa: sp 0 + .ra: x30
STACK CFI INIT 25644 5c .cfa: sp 0 + .ra: x30
STACK CFI 25648 .cfa: sp 32 + .ra: .cfa -24 + ^ x29: .cfa -32 + ^
STACK CFI 2564c .cfa: x29 32 +
STACK CFI 25650 x19: .cfa -16 + ^
STACK CFI 25698 x19: x19
STACK CFI 2569c .cfa: sp 0 + .ra: .ra x29: x29
STACK CFI INIT 256a0 78 .cfa: sp 0 + .ra: x30
STACK CFI 256a4 .cfa: sp 32 + .ra: .cfa -24 + ^ x29: .cfa -32 + ^
STACK CFI 256ac .cfa: x29 32 +
STACK CFI 256b0 x19: .cfa -16 + ^
STACK CFI 25710 x19: x19
STACK CFI 25714 .cfa: sp 0 + .ra: .ra x29: x29
STACK CFI INIT 25718 50 .cfa: sp 0 + .ra: x30
STACK CFI 2571c .cfa: sp 32 + .ra: .cfa -24 + ^ x29: .cfa -32 + ^
STACK CFI 25720 .cfa: x29 32 +
STACK CFI 25724 x19: .cfa -16 + ^
STACK CFI 25754 x19: x19
STACK CFI 25758 .cfa: sp 0 + .ra: .ra x29: x29
STACK CFI 2575c .cfa: x29 32 + .ra: .cfa -24 + ^ x19: .cfa -16 + ^ x29: .cfa -32 + ^
STACK CFI 25760 x19: x19
STACK CFI 25764 .cfa: sp 0 + .ra: .ra x29: x29
STACK CFI INIT 25768 13c .cfa: sp 0 + .ra: x30
STACK CFI 2576c .cfa: sp 64 + .ra: .cfa -56 + ^ x29: .cfa -64 + ^
STACK CFI 25770 .cfa: x29 64 +
STACK CFI 25778 x19: .cfa -48 + ^ x20: .cfa -40 + ^ x21: .cfa -32 + ^ x22: .cfa -24 + ^
STACK CFI 25898 x19: x19 x20: x20
STACK CFI 2589c x21: x21 x22: x22
STACK CFI 258a0 .cfa: sp 0 + .ra: .ra x29: x29
STACK CFI INIT 25964 104 .cfa: sp 0 + .ra: x30
STACK CFI 25968 .cfa: sp 80 + .ra: .cfa -72 + ^ x29: .cfa -80 + ^
STACK CFI 2596c .cfa: x29 80 +
STACK CFI 25978 x19: .cfa -64 + ^ x20: .cfa -56 + ^ x21: .cfa -48 + ^ x22: .cfa -40 + ^ x23: .cfa -32 + ^ x24: .cfa -24 + ^
STACK CFI 25a58 x19: x19 x20: x20
STACK CFI 25a5c x21: x21 x22: x22
STACK CFI 25a60 x23: x23 x24: x24
STACK CFI 25a64 .cfa: sp 0 + .ra: .ra x29: x29
STACK CFI INIT 0 cc .cfa: sp 0 + .ra: x30
STACK CFI 4 .cfa: sp 80 + .ra: .cfa -72 + ^ x29: .cfa -80 + ^
STACK CFI 8 .cfa: x29 80 +
STACK CFI 10 x19: .cfa -64 + ^ x20: .cfa -56 + ^ x21: .cfa -48 + ^
STACK CFI bc x21: x21
STACK CFI c4 x19: x19 x20: x20
STACK CFI c8 .cfa: sp 0 + .ra: .ra x29: x29
STACK CFI INIT 0 cc .cfa: sp 0 + .ra: x30
STACK CFI 4 .cfa: sp 80 + .ra: .cfa -72 + ^ x29: .cfa -80 + ^
STACK CFI 8 .cfa: x29 80 +
STACK CFI 10 x19: .cfa -64 + ^ x20: .cfa -56 + ^ x21: .cfa -48 + ^
STACK CFI bc x21: x21
STACK CFI c4 x19: x19 x20: x20
STACK CFI c8 .cfa: sp 0 + .ra: .ra x29: x29
STACK CFI INIT 35e88 50 .cfa: sp 0 + .ra: x30
STACK CFI 35e8c .cfa: sp 32 + .ra: .cfa -24 + ^ x29: .cfa -32 + ^
STACK CFI 35e98 .cfa: x29 32 +
STACK CFI 35e9c x19: .cfa -16 + ^ x20: .cfa -8 + ^
STACK CFI 35ea4 x19: x19 x20: x20
STACK CFI 35eac .cfa: sp 0 + .ra: .ra x29: x29
STACK CFI 35eb4 .cfa: x29 32 + .ra: .cfa -24 + ^ x19: .cfa -16 + ^ x20: .cfa -8 + ^ x29: .cfa -32 + ^
STACK CFI 35ed0 x19: x19 x20: x20
STACK CFI 35ed4 .cfa: sp 0 + .ra: .ra x29: x29
STACK CFI INIT 25b28 2c .cfa: sp 0 + .ra: x30
STACK CFI INIT 25b54 5c .cfa: sp 0 + .ra: x30
STACK CFI 25b58 .cfa: sp 16 + .ra: .cfa -8 + ^ x29: .cfa -16 + ^
STACK CFI 25b5c .cfa: x29 16 +
STACK CFI 25bac .cfa: sp 0 + .ra: .ra x29: x29
STACK CFI INIT 25bb0 164 .cfa: sp 0 + .ra: x30
STACK CFI 25bb4 .cfa: sp 80 + .ra: .cfa -72 + ^ x29: .cfa -80 + ^
STACK CFI 25bbc .cfa: x29 80 +
STACK CFI 25bc8 x19: .cfa -64 + ^ x20: .cfa -56 + ^ x21: .cfa -48 + ^ x22: .cfa -40 + ^ x23: .cfa -32 + ^
STACK CFI 25d04 x23: x23
STACK CFI 25d08 x19: x19 x20: x20
STACK CFI 25d0c x21: x21 x22: x22
STACK CFI 25d10 .cfa: sp 0 + .ra: .ra x29: x29
STACK CFI INIT 0 a8 .cfa: sp 0 + .ra: x30
STACK CFI 4 .cfa: sp 128 + .ra: .cfa -120 + ^ x29: .cfa -128 + ^
STACK CFI 8 .cfa: x29 128 +
STACK CFI 14 x19: .cfa -112 + ^ x20: .cfa -104 + ^ x21: .cfa -96 + ^ x22: .cfa -88 + ^ x23: .cfa -80 + ^
STACK CFI 98 x23: x23
STACK CFI 9c x19: x19 x20: x20
STACK CFI a0 x21: x21 x22: x22
STACK CFI a4 .cfa: sp 0 + .ra: .ra x29: x29
STACK CFI INIT 0 cc .cfa: sp 0 + .ra: x30
STACK CFI 4 .cfa: sp 80 + .ra: .cfa -72 + ^ x29: .cfa -80 + ^
STACK CFI 8 .cfa: x29 80 +
STACK CFI 10 x19: .cfa -64 + ^ x20: .cfa -56 + ^ x21: .cfa -48 + ^
STACK CFI bc x21: x21
STACK CFI c4 x19: x19 x20: x20
STACK CFI c8 .cfa: sp 0 + .ra: .ra x29: x29
STACK CFI INIT 26188 54 .cfa: sp 0 + .ra: x30
STACK CFI 2618c .cfa: sp 64 + .ra: .cfa -56 + ^ x29: .cfa -64 + ^
STACK CFI 26190 .cfa: x29 64 +
STACK CFI 26194 x19: .cfa -48 + ^ x20: .cfa -40 + ^
STACK CFI 261d4 x19: x19 x20: x20
STACK CFI 261d8 .cfa: sp 0 + .ra: .ra x29: x29
STACK CFI INIT 261dc 64 .cfa: sp 0 + .ra: x30
STACK CFI 261e0 .cfa: sp 64 + .ra: .cfa -56 + ^ x29: .cfa -64 + ^
STACK CFI 261e4 .cfa: x29 64 +
STACK CFI 261e8 x19: .cfa -48 + ^ x20: .cfa -40 + ^
STACK CFI 26238 x19: x19 x20: x20
STACK CFI 2623c .cfa: sp 0 + .ra: .ra x29: x29
STACK CFI INIT 26240 54 .cfa: sp 0 + .ra: x30
STACK CFI 26244 .cfa: sp 64 + .ra: .cfa -56 + ^ x29: .cfa -64 + ^
STACK CFI 26248 .cfa: x29 64 +
STACK CFI 2624c x19: .cfa -48 + ^ x20: .cfa -40 + ^
STACK CFI 2628c x19: x19 x20: x20
STACK CFI 26290 .cfa: sp 0 + .ra: .ra x29: x29
STACK CFI INIT 26294 54 .cfa: sp 0 + .ra: x30
STACK CFI 26298 .cfa: sp 64 + .ra: .cfa -56 + ^ x29: .cfa -64 + ^
STACK CFI 2629c .cfa: x29 64 +
STACK CFI 262a0 x19: .cfa -48 + ^ x20: .cfa -40 + ^
STACK CFI 262e0 x19: x19 x20: x20
STACK CFI 262e4 .cfa: sp 0 + .ra: .ra x29: x29
STACK CFI INIT 28074 5c .cfa: sp 0 + .ra: x30
STACK CFI 28078 .cfa: sp 336 + .ra: .cfa -328 + ^ x29: .cfa -336 + ^
STACK CFI 28080 .cfa: x29 336 +
STACK CFI 28084 x19: .cfa -320 + ^ x20: .cfa -312 + ^
STACK CFI 2808c x21: .cfa -304 + ^
STACK CFI 280c0 x21: x21
STACK CFI 280c8 x19: x19 x20: x20
STACK CFI 280cc .cfa: sp 0 + .ra: .ra x29: x29
STACK CFI INIT 28208 9c .cfa: sp 0 + .ra: x30
STACK CFI 2820c .cfa: sp 160 + .ra: .cfa -152 + ^ x29: .cfa -160 + ^
STACK CFI 28210 .cfa: x29 160 +
STACK CFI 28218 x19: .cfa -144 + ^ x20: .cfa -136 + ^ x21: .cfa -128 + ^ x22: .cfa -120 + ^
STACK CFI 28298 x19: x19 x20: x20
STACK CFI 2829c x21: x21 x22: x22
STACK CFI 282a0 .cfa: sp 0 + .ra: .ra x29: x29
STACK CFI INIT 26aa8 88 .cfa: sp 0 + .ra: x30
STACK CFI 26aac .cfa: sp 336 + .ra: .cfa -328 + ^ x29: .cfa -336 + ^
STACK CFI 26ab4 .cfa: x29 336 +
STACK CFI 26ab8 x19: .cfa -320 + ^ x20: .cfa -312 + ^
STACK CFI 26ac0 x21: .cfa -304 + ^
STACK CFI 26b20 x21: x21
STACK CFI 26b28 x19: x19 x20: x20
STACK CFI 26b2c .cfa: sp 0 + .ra: .ra x29: x29
STACK CFI INIT 0 158 .cfa: sp 0 + .ra: x30
STACK CFI 4 .cfa: sp 224 + .ra: .cfa -216 + ^ x29: .cfa -224 + ^
STACK CFI 8 .cfa: x29 224 +
STACK CFI 14 x19: .cfa -208 + ^ x20: .cfa -200 + ^ x21: .cfa -192 + ^ x22: .cfa -184 + ^ x23: .cfa -176 + ^
STACK CFI 148 x23: x23
STACK CFI 14c x19: x19 x20: x20
STACK CFI 150 x21: x21 x22: x22
STACK CFI 154 .cfa: sp 0 + .ra: .ra x29: x29
STACK CFI INIT 35ed8 3a8 .cfa: sp 0 + .ra: x30
STACK CFI 35edc .cfa: sp 160 + .ra: .cfa -152 + ^ x29: .cfa -160 + ^
STACK CFI 35ee0 .cfa: x29 160 +
STACK CFI 35ee4 x19: .cfa -144 + ^ x20: .cfa -136 + ^
STACK CFI 35ef8 x21: .cfa -128 + ^ x22: .cfa -120 + ^ x23: .cfa -112 + ^ x24: .cfa -104 + ^
STACK CFI 36270 x19: x19 x20: x20
STACK CFI 36274 x21: x21 x22: x22
STACK CFI 36278 x23: x23 x24: x24
STACK CFI 3627c .cfa: sp 0 + .ra: .ra x29: x29
STACK CFI INIT 26c88 9c .cfa: sp 0 + .ra: x30
STACK CFI 26c8c .cfa: sp 160 + .ra: .cfa -152 + ^ x29: .cfa -160 + ^
STACK CFI 26c90 .cfa: x29 160 +
STACK CFI 26c98 x19: .cfa -144 + ^ x20: .cfa -136 + ^ x21: .cfa -128 + ^ x22: .cfa -120 + ^
STACK CFI 26d18 x19: x19 x20: x20
STACK CFI 26d1c x21: x21 x22: x22
STACK CFI 26d20 .cfa: sp 0 + .ra: .ra x29: x29
STACK CFI INIT 36280 14 .cfa: sp 0 + .ra: x30
STACK CFI INIT 36294 34 .cfa: sp 0 + .ra: x30
STACK CFI 36298 .cfa: sp 208 + .ra: .cfa -200 + ^ x29: .cfa -208 + ^
STACK CFI 3629c .cfa: x29 208 +
STACK CFI 362a0 x19: .cfa -192 + ^
STACK CFI 362c0 x19: x19
STACK CFI 362c4 .cfa: sp 0 + .ra: .ra x29: x29
STACK CFI INIT 362c8 230 .cfa: sp 0 + .ra: x30
STACK CFI 362cc .cfa: sp 320 + .ra: .cfa -312 + ^ x29: .cfa -320 + ^
STACK CFI 362d0 .cfa: x29 320 +
STACK CFI 362dc x19: .cfa -304 + ^ x20: .cfa -296 + ^ x21: .cfa -288 + ^ x22: .cfa -280 + ^ x23: .cfa -272 + ^
STACK CFI 364e8 x23: x23
STACK CFI 364ec x19: x19 x20: x20
STACK CFI 364f0 x21: x21 x22: x22
STACK CFI 364f4 .cfa: sp 0 + .ra: .ra x29: x29
STACK CFI INIT 364f8 4fc .cfa: sp 0 + .ra: x30
STACK CFI 364fc .cfa: sp 1024 +
STACK CFI 36500 .cfa: sp 1120 + .ra: .cfa -1112 + ^ x29: .cfa -1120 + ^
STACK CFI 36504 .cfa: x29 1120 +
STACK CFI 36518 x19: .cfa -1104 + ^ x20: .cfa -1096 + ^ x21: .cfa -1088 + ^ x22: .cfa -1080 + ^ x23: .cfa -1072 + ^ x24: .cfa -1064 + ^ x25: .cfa -1056 + ^ x26: .cfa -1048 + ^ x27: .cfa -1040 + ^
STACK CFI 369d8 x27: x27
STACK CFI 369dc x19: x19 x20: x20
STACK CFI 369e0 x21: x21 x22: x22
STACK CFI 369e4 x23: x23 x24: x24
STACK CFI 369e8 x25: x25 x26: x26
STACK CFI 369ec .cfa: sp 1024 + .ra: .ra x29: x29
STACK CFI 369f0 .cfa: sp 928 +
STACK CFI INIT 369f4 4b8 .cfa: sp 0 + .ra: x30
STACK CFI 369f8 .cfa: sp 4096 +
STACK CFI 36a00 .cfa: sp 4512 +
STACK CFI 36a0c .cfa: sp 4576 + .ra: .cfa -4568 + ^ x29: .cfa -4576 + ^
STACK CFI 36a10 .cfa: x29 4576 +
STACK CFI 36a14 x19: .cfa -4560 + ^ x20: .cfa -4552 + ^
STACK CFI 36a24 x21: .cfa -4544 + ^ x22: .cfa -4536 + ^ x23: .cfa -4528 + ^ x24: .cfa -4520 + ^
STACK CFI 36e94 x19: x19 x20: x20
STACK CFI 36e98 x21: x21 x22: x22
STACK CFI 36e9c x23: x23 x24: x24
STACK CFI 36ea0 .cfa: sp 4512 + .ra: .ra x29: x29
STACK CFI 36ea4 .cfa: sp 4096 +
STACK CFI 36ea8 .cfa: sp 4032 +
STACK CFI INIT 36eac 408 .cfa: sp 0 + .ra: x30
STACK CFI 36eb0 .cfa: sp 432 + .ra: .cfa -424 + ^ x29: .cfa -432 + ^
STACK CFI 36eb4 .cfa: x29 432 +
STACK CFI 36ec0 x19: .cfa -416 + ^ x20: .cfa -408 + ^ x21: .cfa -400 + ^ x22: .cfa -392 + ^ x23: .cfa -384 + ^ x24: .cfa -376 + ^
STACK CFI 36ecc x25: .cfa -368 + ^ x26: .cfa -360 + ^ x27: .cfa -352 + ^
STACK CFI 3729c x27: x27
STACK CFI 372a0 x19: x19 x20: x20
STACK CFI 372a4 x21: x21 x22: x22
STACK CFI 372a8 x23: x23 x24: x24
STACK CFI 372ac x25: x25 x26: x26
STACK CFI 372b0 .cfa: sp 0 + .ra: .ra x29: x29
STACK CFI INIT 372b4 40c .cfa: sp 0 + .ra: x30
STACK CFI 372b8 .cfa: sp 400 + .ra: .cfa -392 + ^ x29: .cfa -400 + ^
STACK CFI 372bc .cfa: x29 400 +
STACK CFI 372cc x19: .cfa -384 + ^ x20: .cfa -376 + ^ x21: .cfa -368 + ^ x22: .cfa -360 + ^ x23: .cfa -352 + ^ x24: .cfa -344 + ^ x25: .cfa -336 + ^
STACK CFI 376ac x25: x25
STACK CFI 376b0 x19: x19 x20: x20
STACK CFI 376b4 x21: x21 x22: x22
STACK CFI 376b8 x23: x23 x24: x24
STACK CFI 376bc .cfa: sp 0 + .ra: .ra x29: x29
STACK CFI INIT 376c0 3e0 .cfa: sp 0 + .ra: x30
STACK CFI 376c4 .cfa: sp 592 +
STACK CFI 376c8 .cfa: sp 672 + .ra: .cfa -664 + ^ x29: .cfa -672 + ^
STACK CFI 376cc .cfa: x29 672 +
STACK CFI 376d8 x19: .cfa -656 + ^ x20: .cfa -648 + ^ x21: .cfa -640 + ^ x22: .cfa -632 + ^ x23: .cfa -624 + ^ x24: .cfa -616 + ^
STACK CFI 376e4 x25: .cfa -608 + ^ x26: .cfa -600 + ^
STACK CFI 37a88 x19: x19 x20: x20
STACK CFI 37a8c x21: x21 x22: x22
STACK CFI 37a90 x23: x23 x24: x24
STACK CFI 37a94 x25: x25 x26: x26
STACK CFI 37a98 .cfa: sp 592 + .ra: .ra x29: x29
STACK CFI 37a9c .cfa: sp 512 +
STACK CFI INIT 37aa0 3d8 .cfa: sp 0 + .ra: x30
STACK CFI 37aa4 .cfa: sp 544 +
STACK CFI 37aa8 .cfa: sp 656 + .ra: .cfa -648 + ^ x29: .cfa -656 + ^
STACK CFI 37aac .cfa: x29 656 +
STACK CFI 37ab4 v8: .cfa -560 + ^ x19: .cfa -640 + ^ x20: .cfa -632 + ^
STACK CFI 37ac4 x21: .cfa -624 + ^ x22: .cfa -616 + ^ x23: .cfa -608 + ^ x24: .cfa -600 + ^ x25: .cfa -592 + ^ x26: .cfa -584 + ^
STACK CFI 37ad0 x27: .cfa -576 + ^ x28: .cfa -568 + ^
STACK CFI 37e58 v8: v8
STACK CFI 37e5c x19: x19 x20: x20
STACK CFI 37e60 x21: x21 x22: x22
STACK CFI 37e64 x23: x23 x24: x24
STACK CFI 37e68 x25: x25 x26: x26
STACK CFI 37e6c x27: x27 x28: x28
STACK CFI 37e70 .cfa: sp 544 + .ra: .ra x29: x29
STACK CFI 37e74 .cfa: sp 432 +
STACK CFI INIT 37e78 b58 .cfa: sp 0 + .ra: x30
STACK CFI 37e7c .cfa: sp 1120 +
STACK CFI 37e84 .cfa: sp 1248 + .ra: .cfa -1240 + ^ x29: .cfa -1248 + ^
STACK CFI 37e88 .cfa: x29 1248 +
STACK CFI 37e90 v8: .cfa -1152 + ^ v9: .cfa -1144 + ^ x21: .cfa -1216 + ^ x22: .cfa -1208 + ^
STACK CFI 37ea0 v10: .cfa -1136 + ^ v11: .cfa -1128 + ^ x27: .cfa -1168 + ^ x28: .cfa -1160 + ^
STACK CFI 37eb0 x19: .cfa -1232 + ^ x20: .cfa -1224 + ^
STACK CFI 37ec0 x23: .cfa -1200 + ^ x24: .cfa -1192 + ^ x25: .cfa -1184 + ^ x26: .cfa -1176 + ^
STACK CFI 389ac x19: x19 x20: x20
STACK CFI 389b0 v8: v8 v9: v9
STACK CFI 389b4 x21: x21 x22: x22
STACK CFI 389b8 v10: v10 v11: v11
STACK CFI 389bc x23: x23 x24: x24
STACK CFI 389c0 x25: x25 x26: x26
STACK CFI 389c4 x27: x27 x28: x28
STACK CFI 389c8 .cfa: sp 1120 + .ra: .ra x29: x29
STACK CFI 389cc .cfa: sp 992 +
STACK CFI INIT 389d0 24 .cfa: sp 0 + .ra: x30
STACK CFI 389d4 .cfa: sp 32 + .ra: .cfa -24 + ^ x29: .cfa -32 + ^
STACK CFI 389d8 .cfa: x29 32 +
STACK CFI 389dc x19: .cfa -16 + ^
STACK CFI 389ec x19: x19
STACK CFI 389f0 .cfa: sp 0 + .ra: .ra x29: x29
STACK CFI INIT 282a4 28 .cfa: sp 0 + .ra: x30
STACK CFI INIT 282cc 20 .cfa: sp 0 + .ra: x30
STACK CFI 282d0 .cfa: sp 32 + .ra: .cfa -24 + ^ x29: .cfa -32 + ^
STACK CFI 282d8 .cfa: x29 32 +
STACK CFI 282e8 .cfa: sp 0 + .ra: .ra x29: x29
STACK CFI INIT 282ec 20 .cfa: sp 0 + .ra: x30
STACK CFI 282f0 .cfa: sp 32 + .ra: .cfa -24 + ^ x29: .cfa -32 + ^
STACK CFI 282f8 .cfa: x29 32 +
STACK CFI 28308 .cfa: sp 0 + .ra: .ra x29: x29
STACK CFI INIT 2830c 110 .cfa: sp 0 + .ra: x30
STACK CFI 28310 .cfa: sp 32 + .ra: .cfa -24 + ^ x29: .cfa -32 + ^
STACK CFI 2831c .cfa: x29 32 +
STACK CFI 28398 .cfa: sp 0 + .ra: .ra x29: x29
STACK CFI 2839c .cfa: x29 32 + .ra: .cfa -24 + ^ x29: .cfa -32 + ^
STACK CFI INIT 2841c 124 .cfa: sp 0 + .ra: x30
STACK CFI 28420 .cfa: sp 80 + .ra: .cfa -72 + ^ x29: .cfa -80 + ^
STACK CFI 28424 .cfa: x29 80 +
STACK CFI 28430 x19: .cfa -64 + ^ x20: .cfa -56 + ^ x21: .cfa -48 + ^ x22: .cfa -40 + ^ x23: .cfa -32 + ^ x24: .cfa -24 + ^
STACK CFI 28530 x19: x19 x20: x20
STACK CFI 28534 x21: x21 x22: x22
STACK CFI 28538 x23: x23 x24: x24
STACK CFI 2853c .cfa: sp 0 + .ra: .ra x29: x29
STACK CFI INIT 28540 b0 .cfa: sp 0 + .ra: x30
STACK CFI 28544 .cfa: sp 80 + .ra: .cfa -72 + ^ x29: .cfa -80 + ^
STACK CFI 28548 .cfa: x29 80 +
STACK CFI 28550 x19: .cfa -64 + ^ x20: .cfa -56 + ^ x21: .cfa -48 + ^
STACK CFI 285e0 x21: x21
STACK CFI 285e8 x19: x19 x20: x20
STACK CFI 285ec .cfa: sp 0 + .ra: .ra x29: x29
STACK CFI INIT 285f0 60 .cfa: sp 0 + .ra: x30
STACK CFI 285f4 .cfa: sp 32 + .ra: .cfa -24 + ^ x29: .cfa -32 + ^
STACK CFI 285f8 .cfa: x29 32 +
STACK CFI 285fc x19: .cfa -16 + ^ x20: .cfa -8 + ^
STACK CFI 28648 x19: x19 x20: x20
STACK CFI 2864c .cfa: sp 0 + .ra: .ra x29: x29
STACK CFI INIT 28650 c4 .cfa: sp 0 + .ra: x30
STACK CFI 28654 .cfa: sp 48 + .ra: .cfa -40 + ^ x29: .cfa -48 + ^
STACK CFI 2865c .cfa: x29 48 +
STACK CFI 28664 x19: .cfa -32 + ^ x20: .cfa -24 + ^ x21: .cfa -16 + ^
STACK CFI 28708 x19: x19 x20: x20
STACK CFI 2870c x21: x21
STACK CFI 28710 .cfa: sp 0 + .ra: .ra x29: x29
STACK CFI INIT 28714 b8 .cfa: sp 0 + .ra: x30
STACK CFI 28718 .cfa: sp 48 + .ra: .cfa -40 + ^ x29: .cfa -48 + ^
STACK CFI 2871c .cfa: x29 48 +
STACK CFI 28724 x19: .cfa -32 + ^ x20: .cfa -24 + ^ x21: .cfa -16 + ^
STACK CFI 287c0 x21: x21
STACK CFI 287c4 x19: x19 x20: x20
STACK CFI 287c8 .cfa: sp 0 + .ra: .ra x29: x29
STACK CFI INIT 287cc 10c .cfa: sp 0 + .ra: x30
STACK CFI 287d0 .cfa: sp 64 + .ra: .cfa -56 + ^ x29: .cfa -64 + ^
STACK CFI 287d8 .cfa: x29 64 +
STACK CFI 287e0 x19: .cfa -48 + ^ x20: .cfa -40 + ^ x23: .cfa -16 + ^
STACK CFI 287e8 x21: .cfa -32 + ^ x22: .cfa -24 + ^
STACK CFI 288c8 x19: x19 x20: x20
STACK CFI 288cc x21: x21 x22: x22
STACK CFI 288d0 x23: x23
STACK CFI 288d4 .cfa: sp 0 + .ra: .ra x29: x29
STACK CFI INIT 288d8 f0 .cfa: sp 0 + .ra: x30
STACK CFI 288dc .cfa: sp 64 + .ra: .cfa -56 + ^ x29: .cfa -64 + ^
STACK CFI 288e4 .cfa: x29 64 +
STACK CFI 288f0 x19: .cfa -48 + ^ x20: .cfa -40 + ^ x21: .cfa -32 + ^ x22: .cfa -24 + ^ x23: .cfa -16 + ^
STACK CFI 289b8 x23: x23
STACK CFI 289bc x19: x19 x20: x20
STACK CFI 289c0 x21: x21 x22: x22
STACK CFI 289c4 .cfa: sp 0 + .ra: .ra x29: x29
STACK CFI INIT 2633c 104 .cfa: sp 0 + .ra: x30
STACK CFI 26340 .cfa: sp 80 + .ra: .cfa -72 + ^ x29: .cfa -80 + ^
STACK CFI 26348 .cfa: x29 80 +
STACK CFI 26350 x19: .cfa -64 + ^ x20: .cfa -56 + ^ x23: .cfa -32 + ^
STACK CFI 26358 x21: .cfa -48 + ^ x22: .cfa -40 + ^
STACK CFI 26430 x23: x23
STACK CFI 26434 x19: x19 x20: x20
STACK CFI 26438 x21: x21 x22: x22
STACK CFI 2643c .cfa: sp 0 + .ra: .ra x29: x29
STACK CFI INIT 26984 124 .cfa: sp 0 + .ra: x30
STACK CFI 26988 .cfa: sp 80 + .ra: .cfa -72 + ^ x29: .cfa -80 + ^
STACK CFI 26990 .cfa: x29 80 +
STACK CFI 2699c x19: .cfa -64 + ^ x20: .cfa -56 + ^ x21: .cfa -48 + ^ x22: .cfa -40 + ^ x23: .cfa -32 + ^
STACK CFI 26a98 x19: x19 x20: x20
STACK CFI 26a9c x21: x21 x22: x22
STACK CFI 26aa0 x23: x23
STACK CFI 26aa4 .cfa: sp 0 + .ra: .ra x29: x29
STACK CFI INIT 218bc 2dc .cfa: sp 0 + .ra: x30
STACK CFI 218c0 .cfa: sp 64 + .ra: .cfa -56 + ^ x29: .cfa -64 + ^
STACK CFI 218c8 .cfa: x29 64 +
STACK CFI 218d0 x19: .cfa -48 + ^ x20: .cfa -40 + ^ x21: .cfa -32 + ^ x22: .cfa -24 + ^
STACK CFI 21b88 x19: x19 x20: x20
STACK CFI 21b8c x21: x21 x22: x22
STACK CFI 21b94 .cfa: sp 0 + .ra: .ra x29: x29
STACK CFI INIT 2351c 4 .cfa: sp 0 + .ra: x30
STACK CFI INIT 23520 4 .cfa: sp 0 + .ra: x30
STACK CFI INIT 23524 8 .cfa: sp 0 + .ra: x30
STACK CFI INIT 2354c 8 .cfa: sp 0 + .ra: x30
STACK CFI INIT 23554 4 .cfa: sp 0 + .ra: x30
STACK CFI INIT 23558 8 .cfa: sp 0 + .ra: x30
STACK CFI INIT 389f4 4 .cfa: sp 0 + .ra: x30
STACK CFI INIT 389f8 4 .cfa: sp 0 + .ra: x30
STACK CFI INIT 389fc 4 .cfa: sp 0 + .ra: x30
STACK CFI INIT 38a00 4 .cfa: sp 0 + .ra: x30
STACK CFI INIT 38a04 4 .cfa: sp 0 + .ra: x30
STACK CFI INIT 38a08 4 .cfa: sp 0 + .ra: x30
STACK CFI INIT 38a0c 4 .cfa: sp 0 + .ra: x30
STACK CFI INIT 38a10 4 .cfa: sp 0 + .ra: x30
STACK CFI INIT 235c8 8 .cfa: sp 0 + .ra: x30
STACK CFI INIT 235d0 1c .cfa: sp 0 + .ra: x30
STACK CFI INIT 235ec 24 .cfa: sp 0 + .ra: x30
STACK CFI INIT 23610 6c .cfa: sp 0 + .ra: x30
STACK CFI INIT 2367c 4 .cfa: sp 0 + .ra: x30
STACK CFI INIT 23680 8 .cfa: sp 0 + .ra: x30
STACK CFI INIT 23688 40 .cfa: sp 0 + .ra: x30
STACK CFI 2368c .cfa: sp 32 + .ra: .cfa -24 + ^ x29: .cfa -32 + ^
STACK CFI 23690 .cfa: x29 32 +
STACK CFI 23694 x19: .cfa -16 + ^
STACK CFI 236c0 x19: x19
STACK CFI 236c4 .cfa: sp 0 + .ra: .ra x29: x29
STACK CFI INIT 236c8 8 .cfa: sp 0 + .ra: x30
STACK CFI INIT 38a14 3c .cfa: sp 0 + .ra: x30
STACK CFI 38a18 .cfa: sp 32 + .ra: .cfa -24 + ^ x29: .cfa -32 + ^
STACK CFI 38a20 .cfa: x29 32 +
STACK CFI 38a24 x19: .cfa -16 + ^
STACK CFI 38a48 x19: x19
STACK CFI 38a4c .cfa: sp 0 + .ra: .ra x29: x29
STACK CFI INIT 38a50 3c .cfa: sp 0 + .ra: x30
STACK CFI 38a54 .cfa: sp 32 + .ra: .cfa -24 + ^ x29: .cfa -32 + ^
STACK CFI 38a5c .cfa: x29 32 +
STACK CFI 38a60 x19: .cfa -16 + ^
STACK CFI 38a84 x19: x19
STACK CFI 38a88 .cfa: sp 0 + .ra: .ra x29: x29
STACK CFI INIT 38a8c 3c .cfa: sp 0 + .ra: x30
STACK CFI 38a90 .cfa: sp 32 + .ra: .cfa -24 + ^ x29: .cfa -32 + ^
STACK CFI 38a98 .cfa: x29 32 +
STACK CFI 38a9c x19: .cfa -16 + ^
STACK CFI 38ac0 x19: x19
STACK CFI 38ac4 .cfa: sp 0 + .ra: .ra x29: x29
STACK CFI INIT 38ac8 3c .cfa: sp 0 + .ra: x30
STACK CFI 38acc .cfa: sp 32 + .ra: .cfa -24 + ^ x29: .cfa -32 + ^
STACK CFI 38ad4 .cfa: x29 32 +
STACK CFI 38ad8 x19: .cfa -16 + ^
STACK CFI 38afc x19: x19
STACK CFI 38b00 .cfa: sp 0 + .ra: .ra x29: x29
STACK CFI INIT 38b04 3c .cfa: sp 0 + .ra: x30
STACK CFI 38b08 .cfa: sp 32 + .ra: .cfa -24 + ^ x29: .cfa -32 + ^
STACK CFI 38b10 .cfa: x29 32 +
STACK CFI 38b14 x19: .cfa -16 + ^
STACK CFI 38b38 x19: x19
STACK CFI 38b3c .cfa: sp 0 + .ra: .ra x29: x29
STACK CFI INIT 38b40 3c .cfa: sp 0 + .ra: x30
STACK CFI 38b44 .cfa: sp 32 + .ra: .cfa -24 + ^ x29: .cfa -32 + ^
STACK CFI 38b4c .cfa: x29 32 +
STACK CFI 38b50 x19: .cfa -16 + ^
STACK CFI 38b74 x19: x19
STACK CFI 38b78 .cfa: sp 0 + .ra: .ra x29: x29
STACK CFI INIT 38b7c 3c .cfa: sp 0 + .ra: x30
STACK CFI 38b80 .cfa: sp 32 + .ra: .cfa -24 + ^ x29: .cfa -32 + ^
STACK CFI 38b88 .cfa: x29 32 +
STACK CFI 38b8c x19: .cfa -16 + ^
STACK CFI 38bb0 x19: x19
STACK CFI 38bb4 .cfa: sp 0 + .ra: .ra x29: x29
STACK CFI INIT 38bb8 3c .cfa: sp 0 + .ra: x30
STACK CFI 38bbc .cfa: sp 32 + .ra: .cfa -24 + ^ x29: .cfa -32 + ^
STACK CFI 38bc4 .cfa: x29 32 +
STACK CFI 38bc8 x19: .cfa -16 + ^
STACK CFI 38bec x19: x19
STACK CFI 38bf0 .cfa: sp 0 + .ra: .ra x29: x29
STACK CFI INIT 237ec a8 .cfa: sp 0 + .ra: x30
STACK CFI 237f0 .cfa: sp 64 + .ra: .cfa -56 + ^ x29: .cfa -64 + ^
STACK CFI 237f4 .cfa: x29 64 +
STACK CFI 23800 x19: .cfa -48 + ^ x20: .cfa -40 + ^ x21: .cfa -32 + ^ x22: .cfa -24 + ^ x23: .cfa -16 + ^
STACK CFI 23884 x23: x23
STACK CFI 23888 x19: x19 x20: x20
STACK CFI 2388c x21: x21 x22: x22
STACK CFI 23890 .cfa: sp 0 + .ra: .ra x29: x29
STACK CFI INIT 38bf4 4 .cfa: sp 0 + .ra: x30
STACK CFI INIT 38bf8 4 .cfa: sp 0 + .ra: x30
STACK CFI INIT 38bfc 4 .cfa: sp 0 + .ra: x30
STACK CFI INIT 38c00 4 .cfa: sp 0 + .ra: x30
STACK CFI INIT 38c04 4 .cfa: sp 0 + .ra: x30
STACK CFI INIT 38c08 4 .cfa: sp 0 + .ra: x30
STACK CFI INIT 38c0c 4 .cfa: sp 0 + .ra: x30
STACK CFI INIT 38c10 4 .cfa: sp 0 + .ra: x30
STACK CFI INIT 23738 b4 .cfa: sp 0 + .ra: x30
STACK CFI 2373c .cfa: sp 64 + .ra: .cfa -56 + ^ x29: .cfa -64 + ^
STACK CFI 23740 .cfa: x29 64 +
STACK CFI 2374c x19: .cfa -48 + ^ x20: .cfa -40 + ^ x21: .cfa -32 + ^ x22: .cfa -24 + ^ x23: .cfa -16 + ^
STACK CFI 237dc x23: x23
STACK CFI 237e0 x19: x19 x20: x20
STACK CFI 237e4 x21: x21 x22: x22
STACK CFI 237e8 .cfa: sp 0 + .ra: .ra x29: x29
STACK CFI INIT 23894 14 .cfa: sp 0 + .ra: x30
STACK CFI INIT 238a8 24 .cfa: sp 0 + .ra: x30
STACK CFI 238ac .cfa: sp 32 + .ra: .cfa -24 + ^ x29: .cfa -32 + ^
STACK CFI 238b0 .cfa: x29 32 +
STACK CFI 238b4 x19: .cfa -16 + ^
STACK CFI 238c4 x19: x19
STACK CFI 238c8 .cfa: sp 0 + .ra: .ra x29: x29
STACK CFI INIT 238cc 14 .cfa: sp 0 + .ra: x30
STACK CFI INIT 238e0 24 .cfa: sp 0 + .ra: x30
STACK CFI 238e4 .cfa: sp 32 + .ra: .cfa -24 + ^ x29: .cfa -32 + ^
STACK CFI 238e8 .cfa: x29 32 +
STACK CFI 238ec x19: .cfa -16 + ^
STACK CFI 238fc x19: x19
STACK CFI 23900 .cfa: sp 0 + .ra: .ra x29: x29
STACK CFI INIT 38c14 14 .cfa: sp 0 + .ra: x30
STACK CFI INIT 38c28 24 .cfa: sp 0 + .ra: x30
STACK CFI 38c2c .cfa: sp 32 + .ra: .cfa -24 + ^ x29: .cfa -32 + ^
STACK CFI 38c30 .cfa: x29 32 +
STACK CFI 38c34 x19: .cfa -16 + ^
STACK CFI 38c44 x19: x19
STACK CFI 38c48 .cfa: sp 0 + .ra: .ra x29: x29
STACK CFI INIT 38c4c 14 .cfa: sp 0 + .ra: x30
STACK CFI INIT 38c60 24 .cfa: sp 0 + .ra: x30
STACK CFI 38c64 .cfa: sp 32 + .ra: .cfa -24 + ^ x29: .cfa -32 + ^
STACK CFI 38c68 .cfa: x29 32 +
STACK CFI 38c6c x19: .cfa -16 + ^
STACK CFI 38c7c x19: x19
STACK CFI 38c80 .cfa: sp 0 + .ra: .ra x29: x29
STACK CFI INIT 38c84 14 .cfa: sp 0 + .ra: x30
STACK CFI INIT 38c98 24 .cfa: sp 0 + .ra: x30
STACK CFI 38c9c .cfa: sp 32 + .ra: .cfa -24 + ^ x29: .cfa -32 + ^
STACK CFI 38ca0 .cfa: x29 32 +
STACK CFI 38ca4 x19: .cfa -16 + ^
STACK CFI 38cb4 x19: x19
STACK CFI 38cb8 .cfa: sp 0 + .ra: .ra x29: x29
STACK CFI INIT 38cbc 14 .cfa: sp 0 + .ra: x30
STACK CFI INIT 38cd0 24 .cfa: sp 0 + .ra: x30
STACK CFI 38cd4 .cfa: sp 32 + .ra: .cfa -24 + ^ x29: .cfa -32 + ^
STACK CFI 38cd8 .cfa: x29 32 +
STACK CFI 38cdc x19: .cfa -16 + ^
STACK CFI 38cec x19: x19
STACK CFI 38cf0 .cfa: sp 0 + .ra: .ra x29: x29
STACK CFI INIT 38cf4 14 .cfa: sp 0 + .ra: x30
STACK CFI INIT 38d08 24 .cfa: sp 0 + .ra: x30
STACK CFI 38d0c .cfa: sp 32 + .ra: .cfa -24 + ^ x29: .cfa -32 + ^
STACK CFI 38d10 .cfa: x29 32 +
STACK CFI 38d14 x19: .cfa -16 + ^
STACK CFI 38d24 x19: x19
STACK CFI 38d28 .cfa: sp 0 + .ra: .ra x29: x29
STACK CFI INIT 38d2c 14 .cfa: sp 0 + .ra: x30
STACK CFI INIT 38d40 24 .cfa: sp 0 + .ra: x30
STACK CFI 38d44 .cfa: sp 32 + .ra: .cfa -24 + ^ x29: .cfa -32 + ^
STACK CFI 38d48 .cfa: x29 32 +
STACK CFI 38d4c x19: .cfa -16 + ^
STACK CFI 38d5c x19: x19
STACK CFI 38d60 .cfa: sp 0 + .ra: .ra x29: x29
STACK CFI INIT 38d64 14 .cfa: sp 0 + .ra: x30
STACK CFI INIT 38d78 24 .cfa: sp 0 + .ra: x30
STACK CFI 38d7c .cfa: sp 32 + .ra: .cfa -24 + ^ x29: .cfa -32 + ^
STACK CFI 38d80 .cfa: x29 32 +
STACK CFI 38d84 x19: .cfa -16 + ^
STACK CFI 38d94 x19: x19
STACK CFI 38d98 .cfa: sp 0 + .ra: .ra x29: x29
STACK CFI INIT 38d9c 14 .cfa: sp 0 + .ra: x30
STACK CFI INIT 38db0 24 .cfa: sp 0 + .ra: x30
STACK CFI 38db4 .cfa: sp 32 + .ra: .cfa -24 + ^ x29: .cfa -32 + ^
STACK CFI 38db8 .cfa: x29 32 +
STACK CFI 38dbc x19: .cfa -16 + ^
STACK CFI 38dcc x19: x19
STACK CFI 38dd0 .cfa: sp 0 + .ra: .ra x29: x29
STACK CFI INIT 24794 b0 .cfa: sp 0 + .ra: x30
STACK CFI 24798 .cfa: sp 64 + .ra: .cfa -56 + ^ x29: .cfa -64 + ^
STACK CFI 2479c .cfa: x29 64 +
STACK CFI 247a8 x19: .cfa -48 + ^ x20: .cfa -40 + ^ x21: .cfa -32 + ^ x22: .cfa -24 + ^ x23: .cfa -16 + ^
STACK CFI 24834 x23: x23
STACK CFI 24838 x19: x19 x20: x20
STACK CFI 2483c x21: x21 x22: x22
STACK CFI 24840 .cfa: sp 0 + .ra: .ra x29: x29
STACK CFI INIT 2eb40 18 .cfa: sp 0 + .ra: x30
STACK CFI INIT 24844 40 .cfa: sp 0 + .ra: x30
STACK CFI 24848 .cfa: sp 32 + .ra: .cfa -24 + ^ x29: .cfa -32 + ^
STACK CFI 24854 .cfa: x29 32 +
STACK CFI 24858 x19: .cfa -16 + ^
STACK CFI 2487c x19: x19
STACK CFI 24880 .cfa: sp 0 + .ra: .ra x29: x29
STACK CFI INIT 24884 1c .cfa: sp 0 + .ra: x30
STACK CFI INIT 248a0 48 .cfa: sp 0 + .ra: x30
STACK CFI 248a4 .cfa: sp 32 + .ra: .cfa -24 + ^ x29: .cfa -32 + ^
STACK CFI 248a8 .cfa: x29 32 +
STACK CFI 248ac x19: .cfa -16 + ^
STACK CFI 248e0 x19: x19
STACK CFI 248e4 .cfa: sp 0 + .ra: .ra x29: x29
STACK CFI INIT 248e8 30 .cfa: sp 0 + .ra: x30
STACK CFI INIT 24998 60 .cfa: sp 0 + .ra: x30
STACK CFI 2499c .cfa: sp 48 + .ra: .cfa -40 + ^ x29: .cfa -48 + ^
STACK CFI 249a0 .cfa: x29 48 +
STACK CFI 249a8 x19: .cfa -32 + ^ x20: .cfa -24 + ^ x21: .cfa -16 + ^
STACK CFI 249ec x19: x19 x20: x20
STACK CFI 249f0 x21: x21
STACK CFI 249f4 .cfa: sp 0 + .ra: .ra x29: x29
STACK CFI INIT 249f8 8 .cfa: sp 0 + .ra: x30
STACK CFI INIT 24940 34 .cfa: sp 0 + .ra: x30
STACK CFI 24948 .cfa: sp 32 + .ra: .cfa -24 + ^ x29: .cfa -32 + ^
STACK CFI 2494c .cfa: x29 32 +
STACK CFI 24954 x19: .cfa -16 + ^
STACK CFI 2496c x19: x19
STACK CFI 24970 .cfa: sp 0 + .ra: .ra x29: x29
STACK CFI INIT 24974 24 .cfa: sp 0 + .ra: x30
STACK CFI 24978 .cfa: sp 32 + .ra: .cfa -24 + ^ x29: .cfa -32 + ^
STACK CFI 2497c .cfa: x29 32 +
STACK CFI 24980 x19: .cfa -16 + ^
STACK CFI 24990 x19: x19
STACK CFI 24994 .cfa: sp 0 + .ra: .ra x29: x29
STACK CFI INIT 24a00 fc .cfa: sp 0 + .ra: x30
STACK CFI 24a04 .cfa: sp 96 + .ra: .cfa -88 + ^ x29: .cfa -96 + ^
STACK CFI 24a0c .cfa: x29 96 +
STACK CFI 24a18 x19: .cfa -80 + ^ x20: .cfa -72 + ^ x21: .cfa -64 + ^ x22: .cfa -56 + ^ x23: .cfa -48 + ^ x24: .cfa -40 + ^
STACK CFI 24aec x21: x21 x22: x22
STACK CFI 24af0 x19: x19 x20: x20
STACK CFI 24af4 x23: x23 x24: x24
STACK CFI 24af8 .cfa: sp 0 + .ra: .ra x29: x29
STACK CFI INIT 24afc b4 .cfa: sp 0 + .ra: x30
STACK CFI 24b00 .cfa: sp 48 + .ra: .cfa -40 + ^ x29: .cfa -48 + ^
STACK CFI 24b04 .cfa: x29 48 +
STACK CFI 24b08 x19: .cfa -32 + ^ x20: .cfa -24 + ^
STACK CFI 24b18 x21: .cfa -16 + ^
STACK CFI 24ba4 x21: x21
STACK CFI 24ba8 x19: x19 x20: x20
STACK CFI 24bac .cfa: sp 0 + .ra: .ra x29: x29
STACK CFI INIT 24bb0 b0 .cfa: sp 0 + .ra: x30
STACK CFI 24bb4 .cfa: sp 48 + .ra: .cfa -40 + ^ x29: .cfa -48 + ^
STACK CFI 24bb8 .cfa: x29 48 +
STACK CFI 24bc0 x19: .cfa -32 + ^ x20: .cfa -24 + ^ x21: .cfa -16 + ^
STACK CFI 24c40 x21: x21
STACK CFI 24c58 x19: x19 x20: x20
STACK CFI 24c5c .cfa: sp 0 + .ra: .ra x29: x29
STACK CFI INIT 24c60 98 .cfa: sp 0 + .ra: x30
STACK CFI 24c64 .cfa: sp 64 + .ra: .cfa -56 + ^ x29: .cfa -64 + ^
STACK CFI 24c68 .cfa: x29 64 +
STACK CFI 24c70 x19: .cfa -48 + ^ x20: .cfa -40 + ^ x21: .cfa -32 + ^
STACK CFI 24cec x19: x19 x20: x20
STACK CFI 24cf0 x21: x21
STACK CFI 24cf4 .cfa: sp 0 + .ra: .ra x29: x29
STACK CFI INIT 24cf8 1c .cfa: sp 0 + .ra: x30
STACK CFI 24cfc .cfa: sp 16 + .ra: .cfa -8 + ^ x29: .cfa -16 + ^
STACK CFI 24d00 .cfa: x29 16 +
STACK CFI 24d10 .cfa: sp 0 + .ra: .ra x29: x29
STACK CFI INIT 24d14 3c .cfa: sp 0 + .ra: x30
STACK CFI 24d18 .cfa: sp 16 + .ra: .cfa -8 + ^ x29: .cfa -16 + ^
STACK CFI 24d1c .cfa: x29 16 +
STACK CFI 24d4c .cfa: sp 0 + .ra: .ra x29: x29
STACK CFI INIT 38dd4 fc .cfa: sp 0 + .ra: x30
STACK CFI INIT 24d50 60 .cfa: sp 0 + .ra: x30
STACK CFI 24d54 .cfa: sp 32 + .ra: .cfa -24 + ^ x29: .cfa -32 + ^
STACK CFI 24d60 .cfa: x29 32 +
STACK CFI 24d64 x19: .cfa -16 + ^ x20: .cfa -8 + ^
STACK CFI 24da8 x19: x19 x20: x20
STACK CFI 24dac .cfa: sp 0 + .ra: .ra x29: x29
STACK CFI INIT 38ed0 5c .cfa: sp 0 + .ra: x30
STACK CFI 38ed4 .cfa: sp 32 + .ra: .cfa -24 + ^ x29: .cfa -32 + ^
STACK CFI 38ed8 .cfa: x29 32 +
STACK CFI 38edc x19: .cfa -16 + ^
STACK CFI 38f24 x19: x19
STACK CFI 38f28 .cfa: sp 0 + .ra: .ra x29: x29
STACK CFI INIT 38f2c 5c .cfa: sp 0 + .ra: x30
STACK CFI 38f30 .cfa: sp 64 + .ra: .cfa -56 + ^ x29: .cfa -64 + ^
STACK CFI 38f38 .cfa: x29 64 +
STACK CFI 38f3c x19: .cfa -48 + ^ x20: .cfa -40 + ^
STACK CFI 38f80 x19: x19 x20: x20
STACK CFI 38f84 .cfa: sp 0 + .ra: .ra x29: x29
STACK CFI INIT 0 54 .cfa: sp 0 + .ra: x30
STACK CFI 4 .cfa: sp 48 + .ra: .cfa -40 + ^ x29: .cfa -48 + ^
STACK CFI 8 .cfa: x29 48 +
STACK CFI c x19: .cfa -32 + ^
STACK CFI 4c x19: x19
STACK CFI 50 .cfa: sp 0 + .ra: .ra x29: x29
STACK CFI INIT 25040 64 .cfa: sp 0 + .ra: x30
STACK CFI 25044 .cfa: sp 48 + .ra: .cfa -40 + ^ x29: .cfa -48 + ^
STACK CFI 25048 .cfa: x29 48 +
STACK CFI 2504c x19: .cfa -32 + ^ x20: .cfa -24 + ^
STACK CFI 25058 x21: .cfa -16 + ^
STACK CFI 25098 x19: x19 x20: x20
STACK CFI 2509c x21: x21
STACK CFI 250a0 .cfa: sp 0 + .ra: .ra x29: x29
STACK CFI INIT 250a4 58 .cfa: sp 0 + .ra: x30
STACK CFI 250a8 .cfa: sp 48 + .ra: .cfa -40 + ^ x29: .cfa -48 + ^
STACK CFI 250ac .cfa: x29 48 +
STACK CFI 250b0 x19: .cfa -32 + ^ x20: .cfa -24 + ^
STACK CFI 250b8 x21: .cfa -16 + ^
STACK CFI 250f0 x19: x19 x20: x20
STACK CFI 250f4 x21: x21
STACK CFI 250f8 .cfa: sp 0 + .ra: .ra x29: x29
STACK CFI INIT 0 f4 .cfa: sp 0 + .ra: x30
STACK CFI 4 .cfa: sp 48 + .ra: .cfa -40 + ^ x29: .cfa -48 + ^
STACK CFI 8 .cfa: x29 48 +
STACK CFI c x21: .cfa -16 + ^ x22: .cfa -8 + ^
STACK CFI 18 x19: .cfa -32 + ^ x20: .cfa -24 + ^
STACK CFI e8 x19: x19 x20: x20
STACK CFI ec x21: x21 x22: x22
STACK CFI f0 .cfa: sp 0 + .ra: .ra x29: x29
STACK CFI INIT 0 c8 .cfa: sp 0 + .ra: x30
STACK CFI 4 .cfa: sp 48 + .ra: .cfa -40 + ^ x29: .cfa -48 + ^
STACK CFI 8 .cfa: x29 48 +
STACK CFI 10 x19: .cfa -32 + ^ x20: .cfa -24 + ^ x21: .cfa -16 + ^
STACK CFI b4 x21: x21
STACK CFI c0 x19: x19 x20: x20
STACK CFI c4 .cfa: sp 0 + .ra: .ra x29: x29
STACK CFI INIT 251f0 8c .cfa: sp 0 + .ra: x30
STACK CFI 251f4 .cfa: sp 48 + .ra: .cfa -40 + ^ x29: .cfa -48 + ^
STACK CFI 251f8 .cfa: x29 48 +
STACK CFI 251fc x19: .cfa -32 + ^
STACK CFI 25268 x19: x19
STACK CFI 2526c .cfa: sp 0 + .ra: .ra x29: x29
STACK CFI 25270 .cfa: x29 48 + .ra: .cfa -40 + ^ x19: .cfa -32 + ^ x29: .cfa -48 + ^
STACK CFI 25274 x19: x19
STACK CFI 25278 .cfa: sp 0 + .ra: .ra x29: x29
STACK CFI INIT 2527c c .cfa: sp 0 + .ra: x30
STACK CFI INIT 25288 10 .cfa: sp 0 + .ra: x30
STACK CFI INIT 25298 24 .cfa: sp 0 + .ra: x30
STACK CFI 2529c .cfa: sp 32 + .ra: .cfa -24 + ^ x29: .cfa -32 + ^
STACK CFI 252a0 .cfa: x29 32 +
STACK CFI 252a4 x19: .cfa -16 + ^
STACK CFI 252b4 x19: x19
STACK CFI 252b8 .cfa: sp 0 + .ra: .ra x29: x29
STACK CFI INIT 252bc 10 .cfa: sp 0 + .ra: x30
STACK CFI INIT 252cc c .cfa: sp 0 + .ra: x30
STACK CFI INIT 252d8 8c .cfa: sp 0 + .ra: x30
STACK CFI 252dc .cfa: sp 48 + .ra: .cfa -40 + ^ x29: .cfa -48 + ^
STACK CFI 252e0 .cfa: x29 48 +
STACK CFI 252e4 x19: .cfa -32 + ^
STACK CFI 25350 x19: x19
STACK CFI 25354 .cfa: sp 0 + .ra: .ra x29: x29
STACK CFI 25358 .cfa: x29 48 + .ra: .cfa -40 + ^ x19: .cfa -32 + ^ x29: .cfa -48 + ^
STACK CFI 2535c x19: x19
STACK CFI 25360 .cfa: sp 0 + .ra: .ra x29: x29
STACK CFI INIT 25364 c .cfa: sp 0 + .ra: x30
STACK CFI INIT 25370 10 .cfa: sp 0 + .ra: x30
STACK CFI INIT 25380 24 .cfa: sp 0 + .ra: x30
STACK CFI 25384 .cfa: sp 32 + .ra: .cfa -24 + ^ x29: .cfa -32 + ^
STACK CFI 25388 .cfa: x29 32 +
STACK CFI 2538c x19: .cfa -16 + ^
STACK CFI 2539c x19: x19
STACK CFI 253a0 .cfa: sp 0 + .ra: .ra x29: x29
STACK CFI INIT 253a4 10 .cfa: sp 0 + .ra: x30
STACK CFI INIT 253b4 c .cfa: sp 0 + .ra: x30
STACK CFI INIT 253c0 e0 .cfa: sp 0 + .ra: x30
STACK CFI 253c4 .cfa: sp 48 + .ra: .cfa -40 + ^ x29: .cfa -48 + ^
STACK CFI 253c8 .cfa: x29 48 +
STACK CFI 253cc x19: .cfa -32 + ^ x20: .cfa -24 + ^
STACK CFI 2548c x19: x19 x20: x20
STACK CFI 25490 .cfa: sp 0 + .ra: .ra x29: x29
STACK CFI 25494 .cfa: x29 48 + .ra: .cfa -40 + ^ x19: .cfa -32 + ^ x20: .cfa -24 + ^ x29: .cfa -48 + ^
STACK CFI 25498 x19: x19 x20: x20
STACK CFI 2549c .cfa: sp 0 + .ra: .ra x29: x29
STACK CFI INIT 254a0 c .cfa: sp 0 + .ra: x30
STACK CFI INIT 254ac cc .cfa: sp 0 + .ra: x30
STACK CFI 254b0 .cfa: sp 48 + .ra: .cfa -40 + ^ x29: .cfa -48 + ^
STACK CFI 254b4 .cfa: x29 48 +
STACK CFI 254b8 x19: .cfa -32 + ^ x20: .cfa -24 + ^
STACK CFI 25564 x19: x19 x20: x20
STACK CFI 25568 .cfa: sp 0 + .ra: .ra x29: x29
STACK CFI 2556c .cfa: x29 48 + .ra: .cfa -40 + ^ x19: .cfa -32 + ^ x20: .cfa -24 + ^ x29: .cfa -48 + ^
STACK CFI 25570 x19: x19 x20: x20
STACK CFI 25574 .cfa: sp 0 + .ra: .ra x29: x29
STACK CFI INIT 25578 c .cfa: sp 0 + .ra: x30
STACK CFI INIT 25584 c .cfa: sp 0 + .ra: x30
STACK CFI INIT 25590 8 .cfa: sp 0 + .ra: x30
STACK CFI INIT 25598 10 .cfa: sp 0 + .ra: x30
STACK CFI INIT 255a8 24 .cfa: sp 0 + .ra: x30
STACK CFI 255ac .cfa: sp 32 + .ra: .cfa -24 + ^ x29: .cfa -32 + ^
STACK CFI 255b0 .cfa: x29 32 +
STACK CFI 255b4 x19: .cfa -16 + ^
STACK CFI 255c4 x19: x19
STACK CFI 255c8 .cfa: sp 0 + .ra: .ra x29: x29
STACK CFI INIT 255cc 8 .cfa: sp 0 + .ra: x30
STACK CFI INIT 255d4 10 .cfa: sp 0 + .ra: x30
STACK CFI INIT 255e4 c .cfa: sp 0 + .ra: x30
STACK CFI INIT 255f0 8 .cfa: sp 0 + .ra: x30
STACK CFI INIT 255f8 10 .cfa: sp 0 + .ra: x30
STACK CFI INIT 25608 24 .cfa: sp 0 + .ra: x30
STACK CFI 2560c .cfa: sp 32 + .ra: .cfa -24 + ^ x29: .cfa -32 + ^
STACK CFI 25610 .cfa: x29 32 +
STACK CFI 25614 x19: .cfa -16 + ^
STACK CFI 25624 x19: x19
STACK CFI 25628 .cfa: sp 0 + .ra: .ra x29: x29
STACK CFI INIT 2562c 8 .cfa: sp 0 + .ra: x30
STACK CFI INIT 25634 10 .cfa: sp 0 + .ra: x30
STACK CFI INIT 25644 5c .cfa: sp 0 + .ra: x30
STACK CFI 25648 .cfa: sp 32 + .ra: .cfa -24 + ^ x29: .cfa -32 + ^
STACK CFI 2564c .cfa: x29 32 +
STACK CFI 25650 x19: .cfa -16 + ^
STACK CFI 25698 x19: x19
STACK CFI 2569c .cfa: sp 0 + .ra: .ra x29: x29
STACK CFI INIT 256a0 78 .cfa: sp 0 + .ra: x30
STACK CFI 256a4 .cfa: sp 32 + .ra: .cfa -24 + ^ x29: .cfa -32 + ^
STACK CFI 256ac .cfa: x29 32 +
STACK CFI 256b0 x19: .cfa -16 + ^
STACK CFI 25710 x19: x19
STACK CFI 25714 .cfa: sp 0 + .ra: .ra x29: x29
STACK CFI INIT 25718 50 .cfa: sp 0 + .ra: x30
STACK CFI 2571c .cfa: sp 32 + .ra: .cfa -24 + ^ x29: .cfa -32 + ^
STACK CFI 25720 .cfa: x29 32 +
STACK CFI 25724 x19: .cfa -16 + ^
STACK CFI 25754 x19: x19
STACK CFI 25758 .cfa: sp 0 + .ra: .ra x29: x29
STACK CFI 2575c .cfa: x29 32 + .ra: .cfa -24 + ^ x19: .cfa -16 + ^ x29: .cfa -32 + ^
STACK CFI 25760 x19: x19
STACK CFI 25764 .cfa: sp 0 + .ra: .ra x29: x29
STACK CFI INIT 25768 13c .cfa: sp 0 + .ra: x30
STACK CFI 2576c .cfa: sp 64 + .ra: .cfa -56 + ^ x29: .cfa -64 + ^
STACK CFI 25770 .cfa: x29 64 +
STACK CFI 25778 x19: .cfa -48 + ^ x20: .cfa -40 + ^ x21: .cfa -32 + ^ x22: .cfa -24 + ^
STACK CFI 25898 x19: x19 x20: x20
STACK CFI 2589c x21: x21 x22: x22
STACK CFI 258a0 .cfa: sp 0 + .ra: .ra x29: x29
STACK CFI INIT 0 cc .cfa: sp 0 + .ra: x30
STACK CFI 4 .cfa: sp 80 + .ra: .cfa -72 + ^ x29: .cfa -80 + ^
STACK CFI 8 .cfa: x29 80 +
STACK CFI 10 x19: .cfa -64 + ^ x20: .cfa -56 + ^ x21: .cfa -48 + ^
STACK CFI bc x21: x21
STACK CFI c4 x19: x19 x20: x20
STACK CFI c8 .cfa: sp 0 + .ra: .ra x29: x29
STACK CFI INIT 25964 104 .cfa: sp 0 + .ra: x30
STACK CFI 25968 .cfa: sp 80 + .ra: .cfa -72 + ^ x29: .cfa -80 + ^
STACK CFI 2596c .cfa: x29 80 +
STACK CFI 25978 x19: .cfa -64 + ^ x20: .cfa -56 + ^ x21: .cfa -48 + ^ x22: .cfa -40 + ^ x23: .cfa -32 + ^ x24: .cfa -24 + ^
STACK CFI 25a58 x19: x19 x20: x20
STACK CFI 25a5c x21: x21 x22: x22
STACK CFI 25a60 x23: x23 x24: x24
STACK CFI 25a64 .cfa: sp 0 + .ra: .ra x29: x29
STACK CFI INIT 25b28 2c .cfa: sp 0 + .ra: x30
STACK CFI INIT 25b54 5c .cfa: sp 0 + .ra: x30
STACK CFI 25b58 .cfa: sp 16 + .ra: .cfa -8 + ^ x29: .cfa -16 + ^
STACK CFI 25b5c .cfa: x29 16 +
STACK CFI 25bac .cfa: sp 0 + .ra: .ra x29: x29
STACK CFI INIT 0 154 .cfa: sp 0 + .ra: x30
STACK CFI 4 .cfa: sp 80 + .ra: .cfa -72 + ^ x29: .cfa -80 + ^
STACK CFI c .cfa: x29 80 +
STACK CFI 18 x19: .cfa -64 + ^ x20: .cfa -56 + ^ x21: .cfa -48 + ^ x22: .cfa -40 + ^ x23: .cfa -32 + ^
STACK CFI 144 x23: x23
STACK CFI 148 x19: x19 x20: x20
STACK CFI 14c x21: x21 x22: x22
STACK CFI 150 .cfa: sp 0 + .ra: .ra x29: x29
STACK CFI INIT 38f88 34 .cfa: sp 0 + .ra: x30
STACK CFI 38f8c .cfa: sp 48 + .ra: .cfa -40 + ^ x29: .cfa -48 + ^
STACK CFI 38f90 .cfa: x29 48 +
STACK CFI 38f94 x19: .cfa -32 + ^
STACK CFI 38fb4 x19: x19
STACK CFI 38fb8 .cfa: sp 0 + .ra: .ra x29: x29
STACK CFI INIT 0 2a0 .cfa: sp 0 + .ra: x30
STACK CFI 4 .cfa: sp 272 + .ra: .cfa -264 + ^ x29: .cfa -272 + ^
STACK CFI c .cfa: x29 272 +
STACK CFI 10 x19: .cfa -256 + ^ x20: .cfa -248 + ^
STACK CFI 20 x21: .cfa -240 + ^ x22: .cfa -232 + ^ x23: .cfa -224 + ^ x24: .cfa -216 + ^ x25: .cfa -208 + ^
STACK CFI 28c x19: x19 x20: x20
STACK CFI 290 x21: x21 x22: x22
STACK CFI 294 x23: x23 x24: x24
STACK CFI 298 x25: x25
STACK CFI 29c .cfa: sp 0 + .ra: .ra x29: x29
STACK CFI INIT 0 a8 .cfa: sp 0 + .ra: x30
STACK CFI 4 .cfa: sp 128 + .ra: .cfa -120 + ^ x29: .cfa -128 + ^
STACK CFI 8 .cfa: x29 128 +
STACK CFI 14 x19: .cfa -112 + ^ x20: .cfa -104 + ^ x21: .cfa -96 + ^ x22: .cfa -88 + ^ x23: .cfa -80 + ^
STACK CFI 98 x23: x23
STACK CFI 9c x19: x19 x20: x20
STACK CFI a0 x21: x21 x22: x22
STACK CFI a4 .cfa: sp 0 + .ra: .ra x29: x29
STACK CFI INIT 0 cc .cfa: sp 0 + .ra: x30
STACK CFI 4 .cfa: sp 80 + .ra: .cfa -72 + ^ x29: .cfa -80 + ^
STACK CFI 8 .cfa: x29 80 +
STACK CFI 10 x19: .cfa -64 + ^ x20: .cfa -56 + ^ x21: .cfa -48 + ^
STACK CFI bc x21: x21
STACK CFI c4 x19: x19 x20: x20
STACK CFI c8 .cfa: sp 0 + .ra: .ra x29: x29
STACK CFI INIT 26188 54 .cfa: sp 0 + .ra: x30
STACK CFI 2618c .cfa: sp 64 + .ra: .cfa -56 + ^ x29: .cfa -64 + ^
STACK CFI 26190 .cfa: x29 64 +
STACK CFI 26194 x19: .cfa -48 + ^ x20: .cfa -40 + ^
STACK CFI 261d4 x19: x19 x20: x20
STACK CFI 261d8 .cfa: sp 0 + .ra: .ra x29: x29
STACK CFI INIT 261dc 64 .cfa: sp 0 + .ra: x30
STACK CFI 261e0 .cfa: sp 64 + .ra: .cfa -56 + ^ x29: .cfa -64 + ^
STACK CFI 261e4 .cfa: x29 64 +
STACK CFI 261e8 x19: .cfa -48 + ^ x20: .cfa -40 + ^
STACK CFI 26238 x19: x19 x20: x20
STACK CFI 2623c .cfa: sp 0 + .ra: .ra x29: x29
STACK CFI INIT 26240 54 .cfa: sp 0 + .ra: x30
STACK CFI 26244 .cfa: sp 64 + .ra: .cfa -56 + ^ x29: .cfa -64 + ^
STACK CFI 26248 .cfa: x29 64 +
STACK CFI 2624c x19: .cfa -48 + ^ x20: .cfa -40 + ^
STACK CFI 2628c x19: x19 x20: x20
STACK CFI 26290 .cfa: sp 0 + .ra: .ra x29: x29
STACK CFI INIT 26294 54 .cfa: sp 0 + .ra: x30
STACK CFI 26298 .cfa: sp 64 + .ra: .cfa -56 + ^ x29: .cfa -64 + ^
STACK CFI 2629c .cfa: x29 64 +
STACK CFI 262a0 x19: .cfa -48 + ^ x20: .cfa -40 + ^
STACK CFI 262e0 x19: x19 x20: x20
STACK CFI 262e4 .cfa: sp 0 + .ra: .ra x29: x29
STACK CFI INIT 262e8 54 .cfa: sp 0 + .ra: x30
STACK CFI 262ec .cfa: sp 64 + .ra: .cfa -56 + ^ x29: .cfa -64 + ^
STACK CFI 262f0 .cfa: x29 64 +
STACK CFI 262f4 x19: .cfa -48 + ^ x20: .cfa -40 + ^
STACK CFI 26334 x19: x19 x20: x20
STACK CFI 26338 .cfa: sp 0 + .ra: .ra x29: x29
STACK CFI INIT 38fbc 40 .cfa: sp 0 + .ra: x30
STACK CFI 38fc0 .cfa: sp 32 + .ra: .cfa -24 + ^ x29: .cfa -32 + ^
STACK CFI 38fc4 .cfa: x29 32 +
STACK CFI 38fc8 x19: .cfa -16 + ^ x20: .cfa -8 + ^
STACK CFI 38ff4 x19: x19 x20: x20
STACK CFI 38ff8 .cfa: sp 0 + .ra: .ra x29: x29
STACK CFI INIT 38ffc 44 .cfa: sp 0 + .ra: x30
STACK CFI 39000 .cfa: sp 32 + .ra: .cfa -24 + ^ x29: .cfa -32 + ^
STACK CFI 39004 .cfa: x29 32 +
STACK CFI 39008 x19: .cfa -16 + ^ x20: .cfa -8 + ^
STACK CFI 39038 x19: x19 x20: x20
STACK CFI 3903c .cfa: sp 0 + .ra: .ra x29: x29
STACK CFI INIT 0 f4 .cfa: sp 0 + .ra: x30
STACK CFI 4 .cfa: sp 80 + .ra: .cfa -72 + ^ x29: .cfa -80 + ^
STACK CFI c .cfa: x29 80 +
STACK CFI 18 x19: .cfa -64 + ^ x20: .cfa -56 + ^ x21: .cfa -48 + ^ x22: .cfa -40 + ^ x23: .cfa -32 + ^
STACK CFI e4 x23: x23
STACK CFI e8 x19: x19 x20: x20
STACK CFI ec x21: x21 x22: x22
STACK CFI f0 .cfa: sp 0 + .ra: .ra x29: x29
STACK CFI INIT 26440 8c .cfa: sp 0 + .ra: x30
STACK CFI 26444 .cfa: sp 64 + .ra: .cfa -56 + ^ x29: .cfa -64 + ^
STACK CFI 26448 .cfa: x29 64 +
STACK CFI 2644c x19: .cfa -48 + ^ x20: .cfa -40 + ^
STACK CFI 2645c x21: .cfa -32 + ^ x22: .cfa -24 + ^
STACK CFI 264c0 x19: x19 x20: x20
STACK CFI 264c4 x21: x21 x22: x22
STACK CFI 264c8 .cfa: sp 0 + .ra: .ra x29: x29
STACK CFI INIT 264cc 370 .cfa: sp 0 + .ra: x30
STACK CFI 264d0 .cfa: sp 368 + .ra: .cfa -360 + ^ x29: .cfa -368 + ^
STACK CFI 264d4 .cfa: x29 368 +
STACK CFI 264e8 x19: .cfa -352 + ^ x20: .cfa -344 + ^ x21: .cfa -336 + ^ x22: .cfa -328 + ^ x23: .cfa -320 + ^ x24: .cfa -312 + ^ x25: .cfa -304 + ^ x26: .cfa -296 + ^ x27: .cfa -288 + ^ x28: .cfa -280 + ^
STACK CFI 26824 x19: x19 x20: x20
STACK CFI 26828 x21: x21 x22: x22
STACK CFI 2682c x23: x23 x24: x24
STACK CFI 26830 x25: x25 x26: x26
STACK CFI 26834 x27: x27 x28: x28
STACK CFI 26838 .cfa: sp 0 + .ra: .ra x29: x29
STACK CFI INIT 2683c 28 .cfa: sp 0 + .ra: x30
STACK CFI 26840 .cfa: sp 32 + .ra: .cfa -24 + ^ x29: .cfa -32 + ^
STACK CFI 26848 .cfa: x29 32 +
STACK CFI 2684c x19: .cfa -16 + ^
STACK CFI 2685c x19: x19
STACK CFI 26860 .cfa: sp 0 + .ra: .ra x29: x29
STACK CFI INIT 26984 124 .cfa: sp 0 + .ra: x30
STACK CFI 26988 .cfa: sp 80 + .ra: .cfa -72 + ^ x29: .cfa -80 + ^
STACK CFI 26990 .cfa: x29 80 +
STACK CFI 2699c x19: .cfa -64 + ^ x20: .cfa -56 + ^ x21: .cfa -48 + ^ x22: .cfa -40 + ^ x23: .cfa -32 + ^
STACK CFI 26a98 x19: x19 x20: x20
STACK CFI 26a9c x21: x21 x22: x22
STACK CFI 26aa0 x23: x23
STACK CFI 26aa4 .cfa: sp 0 + .ra: .ra x29: x29
STACK CFI INIT 26aa8 88 .cfa: sp 0 + .ra: x30
STACK CFI 26aac .cfa: sp 336 + .ra: .cfa -328 + ^ x29: .cfa -336 + ^
STACK CFI 26ab4 .cfa: x29 336 +
STACK CFI 26ab8 x19: .cfa -320 + ^ x20: .cfa -312 + ^
STACK CFI 26ac0 x21: .cfa -304 + ^
STACK CFI 26b20 x21: x21
STACK CFI 26b28 x19: x19 x20: x20
STACK CFI 26b2c .cfa: sp 0 + .ra: .ra x29: x29
STACK CFI INIT 26b30 114 .cfa: sp 0 + .ra: x30
STACK CFI 26b34 .cfa: sp 224 + .ra: .cfa -216 + ^ x29: .cfa -224 + ^
STACK CFI 26b38 .cfa: x29 224 +
STACK CFI 26b3c x19: .cfa -208 + ^ x20: .cfa -200 + ^
STACK CFI 26b48 x21: .cfa -192 + ^ x22: .cfa -184 + ^ x23: .cfa -176 + ^
STACK CFI 26c30 x23: x23
STACK CFI 26c38 x19: x19 x20: x20
STACK CFI 26c3c x21: x21 x22: x22
STACK CFI 26c40 .cfa: sp 0 + .ra: .ra x29: x29
STACK CFI INIT 26c44 44 .cfa: sp 0 + .ra: x30
STACK CFI 26c48 .cfa: sp 32 + .ra: .cfa -24 + ^ x29: .cfa -32 + ^
STACK CFI 26c4c .cfa: x29 32 +
STACK CFI 26c58 x19: .cfa -16 + ^
STACK CFI 26c80 x19: x19
STACK CFI 26c84 .cfa: sp 0 + .ra: .ra x29: x29
STACK CFI INIT 26c88 9c .cfa: sp 0 + .ra: x30
STACK CFI 26c8c .cfa: sp 160 + .ra: .cfa -152 + ^ x29: .cfa -160 + ^
STACK CFI 26c90 .cfa: x29 160 +
STACK CFI 26c98 x19: .cfa -144 + ^ x20: .cfa -136 + ^ x21: .cfa -128 + ^ x22: .cfa -120 + ^
STACK CFI 26d18 x19: x19 x20: x20
STACK CFI 26d1c x21: x21 x22: x22
STACK CFI 26d20 .cfa: sp 0 + .ra: .ra x29: x29
STACK CFI INIT 26f1c 5c .cfa: sp 0 + .ra: x30
STACK CFI 26f20 .cfa: sp 336 + .ra: .cfa -328 + ^ x29: .cfa -336 + ^
STACK CFI 26f28 .cfa: x29 336 +
STACK CFI 26f2c x19: .cfa -320 + ^ x20: .cfa -312 + ^
STACK CFI 26f34 x21: .cfa -304 + ^
STACK CFI 26f68 x21: x21
STACK CFI 26f70 x19: x19 x20: x20
STACK CFI 26f74 .cfa: sp 0 + .ra: .ra x29: x29
STACK CFI INIT 2744c 134 .cfa: sp 0 + .ra: x30
STACK CFI 27450 .cfa: sp 224 + .ra: .cfa -216 + ^ x29: .cfa -224 + ^
STACK CFI 27454 .cfa: x29 224 +
STACK CFI 27460 x19: .cfa -208 + ^ x20: .cfa -200 + ^ x21: .cfa -192 + ^ x22: .cfa -184 + ^ x23: .cfa -176 + ^
STACK CFI 27570 x23: x23
STACK CFI 27574 x19: x19 x20: x20
STACK CFI 27578 x21: x21 x22: x22
STACK CFI 2757c .cfa: sp 0 + .ra: .ra x29: x29
STACK CFI INIT 39040 354 .cfa: sp 0 + .ra: x30
STACK CFI 39044 .cfa: sp 4096 +
STACK CFI 3904c .cfa: sp 5504 +
STACK CFI 39050 .cfa: sp 5600 + .ra: .cfa -5592 + ^ x29: .cfa -5600 + ^
STACK CFI 39054 .cfa: x29 5600 +
STACK CFI 39058 x19: .cfa -5584 + ^ x20: .cfa -5576 + ^
STACK CFI 39060 x21: .cfa -5568 + ^ x22: .cfa -5560 + ^
STACK CFI 39074 x23: .cfa -5552 + ^ x24: .cfa -5544 + ^ x25: .cfa -5536 + ^ x26: .cfa -5528 + ^ x27: .cfa -5520 + ^ x28: .cfa -5512 + ^
STACK CFI 39374 x19: x19 x20: x20
STACK CFI 39378 x21: x21 x22: x22
STACK CFI 3937c x23: x23 x24: x24
STACK CFI 39380 x25: x25 x26: x26
STACK CFI 39384 x27: x27 x28: x28
STACK CFI 39388 .cfa: sp 5504 + .ra: .ra x29: x29
STACK CFI 3938c .cfa: sp 4096 +
STACK CFI 39390 .cfa: sp 4000 +
STACK CFI INIT 39394 360 .cfa: sp 0 + .ra: x30
STACK CFI 39398 .cfa: sp 4096 +
STACK CFI 393a0 .cfa: sp 5504 +
STACK CFI 393a4 .cfa: sp 5600 + .ra: .cfa -5592 + ^ x29: .cfa -5600 + ^
STACK CFI 393a8 .cfa: x29 5600 +
STACK CFI 393ac x19: .cfa -5584 + ^ x20: .cfa -5576 + ^
STACK CFI 393b4 x21: .cfa -5568 + ^ x22: .cfa -5560 + ^
STACK CFI 393c8 x23: .cfa -5552 + ^ x24: .cfa -5544 + ^ x25: .cfa -5536 + ^ x26: .cfa -5528 + ^ x27: .cfa -5520 + ^ x28: .cfa -5512 + ^
STACK CFI 396d4 x19: x19 x20: x20
STACK CFI 396d8 x21: x21 x22: x22
STACK CFI 396dc x23: x23 x24: x24
STACK CFI 396e0 x25: x25 x26: x26
STACK CFI 396e4 x27: x27 x28: x28
STACK CFI 396e8 .cfa: sp 5504 + .ra: .ra x29: x29
STACK CFI 396ec .cfa: sp 4096 +
STACK CFI 396f0 .cfa: sp 4000 +
STACK CFI INIT 26f78 9c .cfa: sp 0 + .ra: x30
STACK CFI 26f7c .cfa: sp 160 + .ra: .cfa -152 + ^ x29: .cfa -160 + ^
STACK CFI 26f80 .cfa: x29 160 +
STACK CFI 26f88 x19: .cfa -144 + ^ x20: .cfa -136 + ^ x21: .cfa -128 + ^ x22: .cfa -120 + ^
STACK CFI 27008 x19: x19 x20: x20
STACK CFI 2700c x21: x21 x22: x22
STACK CFI 27010 .cfa: sp 0 + .ra: .ra x29: x29
STACK CFI INIT 28074 5c .cfa: sp 0 + .ra: x30
STACK CFI 28078 .cfa: sp 336 + .ra: .cfa -328 + ^ x29: .cfa -336 + ^
STACK CFI 28080 .cfa: x29 336 +
STACK CFI 28084 x19: .cfa -320 + ^ x20: .cfa -312 + ^
STACK CFI 2808c x21: .cfa -304 + ^
STACK CFI 280c0 x21: x21
STACK CFI 280c8 x19: x19 x20: x20
STACK CFI 280cc .cfa: sp 0 + .ra: .ra x29: x29
STACK CFI INIT 28208 9c .cfa: sp 0 + .ra: x30
STACK CFI 2820c .cfa: sp 160 + .ra: .cfa -152 + ^ x29: .cfa -160 + ^
STACK CFI 28210 .cfa: x29 160 +
STACK CFI 28218 x19: .cfa -144 + ^ x20: .cfa -136 + ^ x21: .cfa -128 + ^ x22: .cfa -120 + ^
STACK CFI 28298 x19: x19 x20: x20
STACK CFI 2829c x21: x21 x22: x22
STACK CFI 282a0 .cfa: sp 0 + .ra: .ra x29: x29
STACK CFI INIT 279ec 5c .cfa: sp 0 + .ra: x30
STACK CFI 279f0 .cfa: sp 336 + .ra: .cfa -328 + ^ x29: .cfa -336 + ^
STACK CFI 279f8 .cfa: x29 336 +
STACK CFI 279fc x19: .cfa -320 + ^ x20: .cfa -312 + ^
STACK CFI 27a04 x21: .cfa -304 + ^
STACK CFI 27a38 x21: x21
STACK CFI 27a40 x19: x19 x20: x20
STACK CFI 27a44 .cfa: sp 0 + .ra: .ra x29: x29
STACK CFI INIT 27d70 5c .cfa: sp 0 + .ra: x30
STACK CFI 27d74 .cfa: sp 336 + .ra: .cfa -328 + ^ x29: .cfa -336 + ^
STACK CFI 27d7c .cfa: x29 336 +
STACK CFI 27d80 x19: .cfa -320 + ^ x20: .cfa -312 + ^
STACK CFI 27d88 x21: .cfa -304 + ^
STACK CFI 27dbc x21: x21
STACK CFI 27dc4 x19: x19 x20: x20
STACK CFI 27dc8 .cfa: sp 0 + .ra: .ra x29: x29
STACK CFI INIT 27dcc c0 .cfa: sp 0 + .ra: x30
STACK CFI 27dd0 .cfa: sp 160 + .ra: .cfa -152 + ^ x29: .cfa -160 + ^
STACK CFI 27dd4 .cfa: x29 160 +
STACK CFI 27de0 x19: .cfa -144 + ^ x20: .cfa -136 + ^ x21: .cfa -128 + ^ x22: .cfa -120 + ^ x23: .cfa -112 + ^ x24: .cfa -104 + ^
STACK CFI 27e7c x19: x19 x20: x20
STACK CFI 27e80 x21: x21 x22: x22
STACK CFI 27e84 x23: x23 x24: x24
STACK CFI 27e88 .cfa: sp 0 + .ra: .ra x29: x29
STACK CFI INIT 396f4 f0 .cfa: sp 0 + .ra: x30
STACK CFI 396f8 .cfa: sp 416 + .ra: .cfa -408 + ^ x29: .cfa -416 + ^
STACK CFI 396fc .cfa: x29 416 +
STACK CFI 39704 x21: .cfa -384 + ^ x22: .cfa -376 + ^ x23: .cfa -368 + ^
STACK CFI 3970c x19: .cfa -400 + ^ x20: .cfa -392 + ^
STACK CFI 397d4 x23: x23
STACK CFI 397d8 x19: x19 x20: x20
STACK CFI 397dc x21: x21 x22: x22
STACK CFI 397e0 .cfa: sp 0 + .ra: .ra x29: x29
STACK CFI INIT 282a4 28 .cfa: sp 0 + .ra: x30
STACK CFI INIT 282cc 20 .cfa: sp 0 + .ra: x30
STACK CFI 282d0 .cfa: sp 32 + .ra: .cfa -24 + ^ x29: .cfa -32 + ^
STACK CFI 282d8 .cfa: x29 32 +
STACK CFI 282e8 .cfa: sp 0 + .ra: .ra x29: x29
STACK CFI INIT 282ec 20 .cfa: sp 0 + .ra: x30
STACK CFI 282f0 .cfa: sp 32 + .ra: .cfa -24 + ^ x29: .cfa -32 + ^
STACK CFI 282f8 .cfa: x29 32 +
STACK CFI 28308 .cfa: sp 0 + .ra: .ra x29: x29
STACK CFI INIT 2830c 110 .cfa: sp 0 + .ra: x30
STACK CFI 28310 .cfa: sp 32 + .ra: .cfa -24 + ^ x29: .cfa -32 + ^
STACK CFI 2831c .cfa: x29 32 +
STACK CFI 28398 .cfa: sp 0 + .ra: .ra x29: x29
STACK CFI 2839c .cfa: x29 32 + .ra: .cfa -24 + ^ x29: .cfa -32 + ^
STACK CFI INIT 2841c 124 .cfa: sp 0 + .ra: x30
STACK CFI 28420 .cfa: sp 80 + .ra: .cfa -72 + ^ x29: .cfa -80 + ^
STACK CFI 28424 .cfa: x29 80 +
STACK CFI 28430 x19: .cfa -64 + ^ x20: .cfa -56 + ^ x21: .cfa -48 + ^ x22: .cfa -40 + ^ x23: .cfa -32 + ^ x24: .cfa -24 + ^
STACK CFI 28530 x19: x19 x20: x20
STACK CFI 28534 x21: x21 x22: x22
STACK CFI 28538 x23: x23 x24: x24
STACK CFI 2853c .cfa: sp 0 + .ra: .ra x29: x29
STACK CFI INIT 0 9c .cfa: sp 0 + .ra: x30
STACK CFI 4 .cfa: sp 80 + .ra: .cfa -72 + ^ x29: .cfa -80 + ^
STACK CFI 8 .cfa: x29 80 +
STACK CFI 10 x19: .cfa -64 + ^ x20: .cfa -56 + ^ x21: .cfa -48 + ^
STACK CFI 8c x21: x21
STACK CFI 94 x19: x19 x20: x20
STACK CFI 98 .cfa: sp 0 + .ra: .ra x29: x29
STACK CFI INIT 28714 b8 .cfa: sp 0 + .ra: x30
STACK CFI 28718 .cfa: sp 48 + .ra: .cfa -40 + ^ x29: .cfa -48 + ^
STACK CFI 2871c .cfa: x29 48 +
STACK CFI 28724 x19: .cfa -32 + ^ x20: .cfa -24 + ^ x21: .cfa -16 + ^
STACK CFI 287c0 x21: x21
STACK CFI 287c4 x19: x19 x20: x20
STACK CFI 287c8 .cfa: sp 0 + .ra: .ra x29: x29
STACK CFI INIT 287cc 10c .cfa: sp 0 + .ra: x30
STACK CFI 287d0 .cfa: sp 64 + .ra: .cfa -56 + ^ x29: .cfa -64 + ^
STACK CFI 287d8 .cfa: x29 64 +
STACK CFI 287e0 x19: .cfa -48 + ^ x20: .cfa -40 + ^ x23: .cfa -16 + ^
STACK CFI 287e8 x21: .cfa -32 + ^ x22: .cfa -24 + ^
STACK CFI 288c8 x19: x19 x20: x20
STACK CFI 288cc x21: x21 x22: x22
STACK CFI 288d0 x23: x23
STACK CFI 288d4 .cfa: sp 0 + .ra: .ra x29: x29
STACK CFI INIT 285f0 60 .cfa: sp 0 + .ra: x30
STACK CFI 285f4 .cfa: sp 32 + .ra: .cfa -24 + ^ x29: .cfa -32 + ^
STACK CFI 285f8 .cfa: x29 32 +
STACK CFI 285fc x19: .cfa -16 + ^ x20: .cfa -8 + ^
STACK CFI 28648 x19: x19 x20: x20
STACK CFI 2864c .cfa: sp 0 + .ra: .ra x29: x29
STACK CFI INIT 28650 c4 .cfa: sp 0 + .ra: x30
STACK CFI 28654 .cfa: sp 48 + .ra: .cfa -40 + ^ x29: .cfa -48 + ^
STACK CFI 2865c .cfa: x29 48 +
STACK CFI 28664 x19: .cfa -32 + ^ x20: .cfa -24 + ^ x21: .cfa -16 + ^
STACK CFI 28708 x19: x19 x20: x20
STACK CFI 2870c x21: x21
STACK CFI 28710 .cfa: sp 0 + .ra: .ra x29: x29
STACK CFI INIT 288d8 f0 .cfa: sp 0 + .ra: x30
STACK CFI 288dc .cfa: sp 64 + .ra: .cfa -56 + ^ x29: .cfa -64 + ^
STACK CFI 288e4 .cfa: x29 64 +
STACK CFI 288f0 x19: .cfa -48 + ^ x20: .cfa -40 + ^ x21: .cfa -32 + ^ x22: .cfa -24 + ^ x23: .cfa -16 + ^
STACK CFI 289b8 x23: x23
STACK CFI 289bc x19: x19 x20: x20
STACK CFI 289c0 x21: x21 x22: x22
STACK CFI 289c4 .cfa: sp 0 + .ra: .ra x29: x29
STACK CFI INIT 21b98 2b8 .cfa: sp 0 + .ra: x30
STACK CFI 21b9c .cfa: sp 64 + .ra: .cfa -56 + ^ x29: .cfa -64 + ^
STACK CFI 21ba0 .cfa: x29 64 +
STACK CFI 21ba8 x19: .cfa -48 + ^ x20: .cfa -40 + ^ x21: .cfa -32 + ^
STACK CFI 21e3c x21: x21
STACK CFI 21e44 x19: x19 x20: x20
STACK CFI 21e48 .cfa: sp 0 + .ra: .ra x29: x29
STACK CFI INIT 397e4 10b4 .cfa: sp 0 + .ra: x30
STACK CFI 397e8 .cfa: sp 4096 +
STACK CFI 397ec .cfa: sp 6320 +
STACK CFI 397f0 .cfa: sp 6416 + .ra: .cfa -6408 + ^ x29: .cfa -6416 + ^
STACK CFI 397f4 .cfa: x29 6416 +
STACK CFI 397f8 x19: .cfa -6400 + ^ x20: .cfa -6392 + ^
STACK CFI 3980c x21: .cfa -6384 + ^ x22: .cfa -6376 + ^ x27: .cfa -6336 + ^
STACK CFI 3981c x23: .cfa -6368 + ^ x24: .cfa -6360 + ^ x25: .cfa -6352 + ^ x26: .cfa -6344 + ^
STACK CFI 3a878 x19: x19 x20: x20
STACK CFI 3a87c x21: x21 x22: x22
STACK CFI 3a880 x23: x23 x24: x24
STACK CFI 3a884 x25: x25 x26: x26
STACK CFI 3a888 x27: x27
STACK CFI 3a88c .cfa: sp 6320 + .ra: .ra x29: x29
STACK CFI 3a890 .cfa: sp 4096 +
STACK CFI 3a894 .cfa: sp 4000 +
STACK CFI INIT 3a898 aac .cfa: sp 0 + .ra: x30
STACK CFI 3a89c .cfa: sp 4096 +
STACK CFI 3a8a0 .cfa: sp 6320 +
STACK CFI 3a8a4 .cfa: sp 6416 + .ra: .cfa -6408 + ^ x29: .cfa -6416 + ^
STACK CFI 3a8a8 .cfa: x29 6416 +
STACK CFI 3a8ac x19: .cfa -6400 + ^ x20: .cfa -6392 + ^
STACK CFI 3a8c8 x21: .cfa -6384 + ^ x22: .cfa -6376 + ^ x23: .cfa -6368 + ^ x24: .cfa -6360 + ^ x25: .cfa -6352 + ^ x26: .cfa -6344 + ^ x27: .cfa -6336 + ^ x28: .cfa -6328 + ^
STACK CFI 3b324 x19: x19 x20: x20
STACK CFI 3b328 x21: x21 x22: x22
STACK CFI 3b32c x23: x23 x24: x24
STACK CFI 3b330 x25: x25 x26: x26
STACK CFI 3b334 x27: x27 x28: x28
STACK CFI 3b338 .cfa: sp 6320 + .ra: .ra x29: x29
STACK CFI 3b33c .cfa: sp 4096 +
STACK CFI 3b340 .cfa: sp 4000 +
STACK CFI INIT 3b344 b84 .cfa: sp 0 + .ra: x30
STACK CFI 3b348 .cfa: sp 4096 +
STACK CFI 3b34c .cfa: sp 6000 +
STACK CFI 3b350 .cfa: sp 6112 + .ra: .cfa -6104 + ^ x29: .cfa -6112 + ^
STACK CFI 3b354 .cfa: x29 6112 +
STACK CFI 3b358 x19: .cfa -6096 + ^ x20: .cfa -6088 + ^
STACK CFI 3b364 v8: .cfa -6016 + ^
STACK CFI 3b370 x21: .cfa -6080 + ^ x22: .cfa -6072 + ^ x27: .cfa -6032 + ^ x28: .cfa -6024 + ^
STACK CFI 3b388 x23: .cfa -6064 + ^ x24: .cfa -6056 + ^ x25: .cfa -6048 + ^ x26: .cfa -6040 + ^
STACK CFI 3b7d4 v8: v8
STACK CFI 3b7d8 x19: x19 x20: x20
STACK CFI 3b7dc x21: x21 x22: x22
STACK CFI 3b7e0 x23: x23 x24: x24
STACK CFI 3b7e4 x25: x25 x26: x26
STACK CFI 3b7e8 x27: x27 x28: x28
STACK CFI 3b7ec .cfa: sp 6000 + .ra: .ra x29: x29
STACK CFI 3b7f0 .cfa: sp 4096 +
STACK CFI 3b7f4 .cfa: sp 3984 +
STACK CFI 3b7f8 .cfa: x29 6112 + .ra: .cfa -6104 + ^ v8: .cfa -6016 + ^ x19: .cfa -6096 + ^ x20: .cfa -6088 + ^ x21: .cfa -6080 + ^ x22: .cfa -6072 + ^ x23: .cfa -6064 + ^ x24: .cfa -6056 + ^ x25: .cfa -6048 + ^ x26: .cfa -6040 + ^ x27: .cfa -6032 + ^ x28: .cfa -6024 + ^ x29: .cfa -6112 + ^
STACK CFI INIT 3bec8 3ac .cfa: sp 0 + .ra: x30
STACK CFI 3becc .cfa: sp 4096 +
STACK CFI 3bed4 .cfa: sp 5536 +
STACK CFI 3bed8 .cfa: sp 5632 + .ra: .cfa -5624 + ^ x29: .cfa -5632 + ^
STACK CFI 3bedc .cfa: x29 5632 +
STACK CFI 3bee0 x19: .cfa -5616 + ^ x20: .cfa -5608 + ^
STACK CFI 3beec x21: .cfa -5600 + ^ x22: .cfa -5592 + ^ x27: .cfa -5552 + ^
STACK CFI 3befc x23: .cfa -5584 + ^ x24: .cfa -5576 + ^ x25: .cfa -5568 + ^ x26: .cfa -5560 + ^
STACK CFI 3c254 x19: x19 x20: x20
STACK CFI 3c258 x21: x21 x22: x22
STACK CFI 3c25c x23: x23 x24: x24
STACK CFI 3c260 x25: x25 x26: x26
STACK CFI 3c264 x27: x27
STACK CFI 3c268 .cfa: sp 5536 + .ra: .ra x29: x29
STACK CFI 3c26c .cfa: sp 4096 +
STACK CFI 3c270 .cfa: sp 4000 +
STACK CFI INIT 3c274 790 .cfa: sp 0 + .ra: x30
STACK CFI 3c278 .cfa: sp 4096 +
STACK CFI 3c280 .cfa: sp 5632 +
STACK CFI 3c284 .cfa: sp 5728 + .ra: .cfa -5720 + ^ x29: .cfa -5728 + ^
STACK CFI 3c288 .cfa: x29 5728 +
STACK CFI 3c28c x19: .cfa -5712 + ^ x20: .cfa -5704 + ^
STACK CFI 3c298 x21: .cfa -5696 + ^ x22: .cfa -5688 + ^ x27: .cfa -5648 + ^
STACK CFI 3c2a8 x23: .cfa -5680 + ^ x24: .cfa -5672 + ^ x25: .cfa -5664 + ^ x26: .cfa -5656 + ^
STACK CFI 3c9e4 x19: x19 x20: x20
STACK CFI 3c9e8 x21: x21 x22: x22
STACK CFI 3c9ec x23: x23 x24: x24
STACK CFI 3c9f0 x25: x25 x26: x26
STACK CFI 3c9f4 x27: x27
STACK CFI 3c9f8 .cfa: sp 5632 + .ra: .ra x29: x29
STACK CFI 3c9fc .cfa: sp 4096 +
STACK CFI 3ca00 .cfa: sp 4000 +
STACK CFI INIT 3ca04 113c .cfa: sp 0 + .ra: x30
STACK CFI 3ca08 .cfa: sp 544 +
STACK CFI 3ca10 .cfa: sp 688 + .ra: .cfa -680 + ^ x29: .cfa -688 + ^
STACK CFI 3ca14 .cfa: x29 688 +
STACK CFI 3ca1c v8: .cfa -592 + ^ v9: .cfa -584 + ^ x19: .cfa -672 + ^ x20: .cfa -664 + ^
STACK CFI 3ca2c v10: .cfa -576 + ^ v11: .cfa -568 + ^ v12: .cfa -560 + ^ v13: .cfa -552 + ^ x23: .cfa -640 + ^ x24: .cfa -632 + ^
STACK CFI 3ca44 x21: .cfa -656 + ^ x22: .cfa -648 + ^ x27: .cfa -608 + ^ x28: .cfa -600 + ^
STACK CFI 3ca50 x25: .cfa -624 + ^ x26: .cfa -616 + ^
STACK CFI 3cdf4 v8: v8 v9: v9
STACK CFI 3cdf8 x19: x19 x20: x20
STACK CFI 3cdfc x21: x21 x22: x22
STACK CFI 3ce00 v10: v10 v11: v11
STACK CFI 3ce04 x23: x23 x24: x24
